

Microchip MPLAB XC8 Assembler V2.10 build 88905656 
                                                                                               Sat Jul 11 04:21:22 2020

Microchip MPLAB XC8 C Compiler v2.10 (Free license) build 20190730164152 Og1 
     1                           	processor	16F877A
     2                           	opt	pw 120
     3                           	opt	flic
     4                           	psect	idataBANK0,global,class=CODE,delta=2
     5                           	psect	cinit,global,class=CODE,merge=1,delta=2
     6                           	psect	bssBANK0,global,class=BANK0,space=1,delta=1
     7                           	psect	dataBANK0,global,class=BANK0,space=1,delta=1
     8                           	psect	bssBANK1,global,class=BANK1,space=1,delta=1
     9                           	psect	clrtext,global,class=CODE,delta=2
    10                           	psect	cstackBANK1,global,class=BANK1,space=1,delta=1
    11                           	psect	cstackCOMMON,global,class=COMMON,space=1,delta=1
    12                           	psect	cstackBANK0,global,class=BANK0,space=1,delta=1
    13                           	psect	maintext,global,class=CODE,split=1,delta=2
    14                           	psect	text1,local,class=CODE,merge=1,delta=2
    15                           	psect	text2,local,class=CODE,merge=1,delta=2
    16                           	psect	text3,local,class=CODE,merge=1,delta=2
    17                           	psect	text4,local,class=CODE,merge=1,delta=2
    18                           	psect	text5,local,class=CODE,merge=1,delta=2
    19                           	psect	text6,local,class=CODE,merge=1,delta=2
    20                           	psect	text7,local,class=CODE,merge=1,delta=2
    21                           	psect	text8,local,class=CODE,merge=1,delta=2
    22                           	psect	text9,local,class=CODE,merge=1,delta=2
    23                           	psect	text10,local,class=CODE,merge=1,delta=2
    24                           	psect	text11,local,class=CODE,merge=1,delta=2
    25                           	psect	text12,local,class=CODE,merge=1,delta=2
    26                           	psect	text13,local,class=CODE,merge=1,delta=2
    27                           	psect	text14,local,class=CODE,merge=1,delta=2
    28                           	psect	text15,local,class=CODE,merge=1,delta=2
    29                           	psect	text16,local,class=CODE,merge=1,delta=2
    30                           	psect	text17,local,class=CODE,merge=1,delta=2
    31                           	psect	text18,local,class=CODE,merge=1,delta=2
    32                           	psect	text19,local,class=CODE,merge=1,delta=2,group=1
    33                           	psect	text20,local,class=CODE,merge=1,delta=2
    34                           	psect	intentry,global,class=CODE,delta=2
    35                           	psect	text21,local,class=CODE,merge=1,delta=2
    36                           	psect	text22,local,class=CODE,merge=1,delta=2
    37                           	psect	text23,local,class=CODE,merge=1,delta=2
    38                           	psect	text24,local,class=CODE,merge=1,delta=2
    39                           	psect	text25,local,class=CODE,merge=1,delta=2
    40                           	psect	text26,local,class=CODE,merge=1,delta=2,group=1
    41                           	psect	text27,local,class=CODE,merge=1,delta=2,group=1
    42                           	psect	text28,local,class=CODE,merge=1,delta=2,group=1
    43                           	psect	text29,local,class=CODE,merge=1,delta=2,group=1
    44                           	psect	text30,local,class=CODE,merge=1,delta=2,group=1
    45                           	psect	text31,local,class=CODE,merge=1,delta=2,group=1
    46                           	psect	text32,local,class=CODE,merge=1,delta=2
    47                           	psect	text33,local,class=CODE,merge=1,delta=2
    48                           	psect	text34,local,class=CODE,merge=1,delta=2
    49                           	psect	text35,local,class=CODE,merge=1,delta=2
    50                           	psect	text36,local,class=CODE,merge=1,delta=2
    51                           	psect	text37,local,class=CODE,merge=1,delta=2
    52                           	psect	text38,local,class=CODE,merge=1,delta=2
    53                           	psect	text39,local,class=CODE,merge=1,delta=2
    54                           	psect	text40,local,class=CODE,merge=1,delta=2
    55                           	psect	text41,local,class=CODE,merge=1,delta=2
    56                           	psect	text42,local,class=CODE,merge=1,delta=2
    57                           	psect	text43,local,class=CODE,merge=1,delta=2
    58                           	psect	text44,local,class=CODE,merge=1,delta=2
    59                           	psect	text45,local,class=CODE,merge=1,delta=2,group=1
    60                           	psect	text46,local,class=CODE,merge=1,delta=2,group=1
    61                           	psect	text47,local,class=CODE,merge=1,delta=2
    62                           	dabs	1,0x7E,2
    63  0000                     
    64                           ; Version 2.10
    65                           ; Generated 31/07/2019 GMT
    66                           ; 
    67                           ; Copyright © 2019, Microchip Technology Inc. and its subsidiaries ("Microchip")
    68                           ; All rights reserved.
    69                           ; 
    70                           ; This software is developed by Microchip Technology Inc. and its subsidiaries ("Microch
      +                          ip").
    71                           ; 
    72                           ; Redistribution and use in source and binary forms, with or without modification, are
    73                           ; permitted provided that the following conditions are met:
    74                           ; 
    75                           ;     1. Redistributions of source code must retain the above copyright notice, this lis
      +                          t of
    76                           ;        conditions and the following disclaimer.
    77                           ; 
    78                           ;     2. Redistributions in binary form must reproduce the above copyright notice, this 
      +                          list
    79                           ;        of conditions and the following disclaimer in the documentation and/or other
    80                           ;        materials provided with the distribution.
    81                           ; 
    82                           ;     3. Microchip's name may not be used to endorse or promote products derived from th
      +                          is
    83                           ;        software without specific prior written permission.
    84                           ; 
    85                           ; THIS SOFTWARE IS PROVIDED BY MICROCHIP "AS IS" AND ANY EXPRESS OR IMPLIED WARRANTIES,
    86                           ; INCLUDING, BUT NOT LIMITED TO, THE IMPLIED WARRANTIES OF MERCHANTABILITY AND FITNESS F
      +                          OR
    87                           ; PURPOSE ARE DISCLAIMED.  IN NO EVENT SHALL MICROCHIP BE LIABLE FOR ANY DIRECT, INDIREC
      +                          T,
    88                           ; INCIDENTAL, SPECIAL, EXEMPLARY, OR CONSEQUENTIAL DAMAGES (INCLUDING BUT NOT LIMITED TO
    89                           ; PROCUREMENT OF SUBSTITUTE GOODS OR SERVICES; LOSS OF USE, DATA OR PROFITS; OR BUSINESS
    90                           ; INTERRUPTION) HOWSOEVER CAUSED AND ON ANY THEORY OF LIABILITY, WHETHER IN CONTRACT, ST
      +                          RICT
    91                           ; LIABILITY, OR TORT (INCLUDING NEGLIGENCE OR OTHERWISE) ARISING IN ANY WAY OUT OF THE U
      +                          SE OF
    92                           ; THIS SOFTWARE, EVEN IF ADVISED OF THE POSSIBILITY OF SUCH DAMAGE.
    93                           ; 
    94                           ; 
    95                           ; Code-generator required, PIC16F877A Definitions
    96                           ; 
    97                           ; SFR Addresses
    98  0000                     	;# 
    99  0001                     	;# 
   100  0002                     	;# 
   101  0003                     	;# 
   102  0004                     	;# 
   103  0005                     	;# 
   104  0006                     	;# 
   105  0007                     	;# 
   106  0008                     	;# 
   107  0009                     	;# 
   108  000A                     	;# 
   109  000B                     	;# 
   110  000C                     	;# 
   111  000D                     	;# 
   112  000E                     	;# 
   113  000E                     	;# 
   114  000F                     	;# 
   115  0010                     	;# 
   116  0011                     	;# 
   117  0012                     	;# 
   118  0013                     	;# 
   119  0014                     	;# 
   120  0015                     	;# 
   121  0015                     	;# 
   122  0016                     	;# 
   123  0017                     	;# 
   124  0018                     	;# 
   125  0019                     	;# 
   126  001A                     	;# 
   127  001B                     	;# 
   128  001B                     	;# 
   129  001C                     	;# 
   130  001D                     	;# 
   131  001E                     	;# 
   132  001F                     	;# 
   133  0081                     	;# 
   134  0085                     	;# 
   135  0086                     	;# 
   136  0087                     	;# 
   137  0088                     	;# 
   138  0089                     	;# 
   139  008C                     	;# 
   140  008D                     	;# 
   141  008E                     	;# 
   142  0091                     	;# 
   143  0092                     	;# 
   144  0093                     	;# 
   145  0094                     	;# 
   146  0098                     	;# 
   147  0099                     	;# 
   148  009C                     	;# 
   149  009D                     	;# 
   150  009E                     	;# 
   151  009F                     	;# 
   152  010C                     	;# 
   153  010D                     	;# 
   154  010E                     	;# 
   155  010F                     	;# 
   156  018C                     	;# 
   157  018D                     	;# 
   158  0000                     	;# 
   159  0001                     	;# 
   160  0002                     	;# 
   161  0003                     	;# 
   162  0004                     	;# 
   163  0005                     	;# 
   164  0006                     	;# 
   165  0007                     	;# 
   166  0008                     	;# 
   167  0009                     	;# 
   168  000A                     	;# 
   169  000B                     	;# 
   170  000C                     	;# 
   171  000D                     	;# 
   172  000E                     	;# 
   173  000E                     	;# 
   174  000F                     	;# 
   175  0010                     	;# 
   176  0011                     	;# 
   177  0012                     	;# 
   178  0013                     	;# 
   179  0014                     	;# 
   180  0015                     	;# 
   181  0015                     	;# 
   182  0016                     	;# 
   183  0017                     	;# 
   184  0018                     	;# 
   185  0019                     	;# 
   186  001A                     	;# 
   187  001B                     	;# 
   188  001B                     	;# 
   189  001C                     	;# 
   190  001D                     	;# 
   191  001E                     	;# 
   192  001F                     	;# 
   193  0081                     	;# 
   194  0085                     	;# 
   195  0086                     	;# 
   196  0087                     	;# 
   197  0088                     	;# 
   198  0089                     	;# 
   199  008C                     	;# 
   200  008D                     	;# 
   201  008E                     	;# 
   202  0091                     	;# 
   203  0092                     	;# 
   204  0093                     	;# 
   205  0094                     	;# 
   206  0098                     	;# 
   207  0099                     	;# 
   208  009C                     	;# 
   209  009D                     	;# 
   210  009E                     	;# 
   211  009F                     	;# 
   212  010C                     	;# 
   213  010D                     	;# 
   214  010E                     	;# 
   215  010F                     	;# 
   216  018C                     	;# 
   217  018D                     	;# 
   218  0000                     	;# 
   219  0001                     	;# 
   220  0002                     	;# 
   221  0003                     	;# 
   222  0004                     	;# 
   223  0005                     	;# 
   224  0006                     	;# 
   225  0007                     	;# 
   226  0008                     	;# 
   227  0009                     	;# 
   228  000A                     	;# 
   229  000B                     	;# 
   230  000C                     	;# 
   231  000D                     	;# 
   232  000E                     	;# 
   233  000E                     	;# 
   234  000F                     	;# 
   235  0010                     	;# 
   236  0011                     	;# 
   237  0012                     	;# 
   238  0013                     	;# 
   239  0014                     	;# 
   240  0015                     	;# 
   241  0015                     	;# 
   242  0016                     	;# 
   243  0017                     	;# 
   244  0018                     	;# 
   245  0019                     	;# 
   246  001A                     	;# 
   247  001B                     	;# 
   248  001B                     	;# 
   249  001C                     	;# 
   250  001D                     	;# 
   251  001E                     	;# 
   252  001F                     	;# 
   253  0081                     	;# 
   254  0085                     	;# 
   255  0086                     	;# 
   256  0087                     	;# 
   257  0088                     	;# 
   258  0089                     	;# 
   259  008C                     	;# 
   260  008D                     	;# 
   261  008E                     	;# 
   262  0091                     	;# 
   263  0092                     	;# 
   264  0093                     	;# 
   265  0094                     	;# 
   266  0098                     	;# 
   267  0099                     	;# 
   268  009C                     	;# 
   269  009D                     	;# 
   270  009E                     	;# 
   271  009F                     	;# 
   272  010C                     	;# 
   273  010D                     	;# 
   274  010E                     	;# 
   275  010F                     	;# 
   276  018C                     	;# 
   277  018D                     	;# 
   278  0000                     	;# 
   279  0001                     	;# 
   280  0002                     	;# 
   281  0003                     	;# 
   282  0004                     	;# 
   283  0005                     	;# 
   284  0006                     	;# 
   285  0007                     	;# 
   286  0008                     	;# 
   287  0009                     	;# 
   288  000A                     	;# 
   289  000B                     	;# 
   290  000C                     	;# 
   291  000D                     	;# 
   292  000E                     	;# 
   293  000E                     	;# 
   294  000F                     	;# 
   295  0010                     	;# 
   296  0011                     	;# 
   297  0012                     	;# 
   298  0013                     	;# 
   299  0014                     	;# 
   300  0015                     	;# 
   301  0015                     	;# 
   302  0016                     	;# 
   303  0017                     	;# 
   304  0018                     	;# 
   305  0019                     	;# 
   306  001A                     	;# 
   307  001B                     	;# 
   308  001B                     	;# 
   309  001C                     	;# 
   310  001D                     	;# 
   311  001E                     	;# 
   312  001F                     	;# 
   313  0081                     	;# 
   314  0085                     	;# 
   315  0086                     	;# 
   316  0087                     	;# 
   317  0088                     	;# 
   318  0089                     	;# 
   319  008C                     	;# 
   320  008D                     	;# 
   321  008E                     	;# 
   322  0091                     	;# 
   323  0092                     	;# 
   324  0093                     	;# 
   325  0094                     	;# 
   326  0098                     	;# 
   327  0099                     	;# 
   328  009C                     	;# 
   329  009D                     	;# 
   330  009E                     	;# 
   331  009F                     	;# 
   332  010C                     	;# 
   333  010D                     	;# 
   334  010E                     	;# 
   335  010F                     	;# 
   336  018C                     	;# 
   337  018D                     	;# 
   338  0000                     	;# 
   339  0001                     	;# 
   340  0002                     	;# 
   341  0003                     	;# 
   342  0004                     	;# 
   343  0005                     	;# 
   344  0006                     	;# 
   345  0007                     	;# 
   346  0008                     	;# 
   347  0009                     	;# 
   348  000A                     	;# 
   349  000B                     	;# 
   350  000C                     	;# 
   351  000D                     	;# 
   352  000E                     	;# 
   353  000E                     	;# 
   354  000F                     	;# 
   355  0010                     	;# 
   356  0011                     	;# 
   357  0012                     	;# 
   358  0013                     	;# 
   359  0014                     	;# 
   360  0015                     	;# 
   361  0015                     	;# 
   362  0016                     	;# 
   363  0017                     	;# 
   364  0018                     	;# 
   365  0019                     	;# 
   366  001A                     	;# 
   367  001B                     	;# 
   368  001B                     	;# 
   369  001C                     	;# 
   370  001D                     	;# 
   371  001E                     	;# 
   372  001F                     	;# 
   373  0081                     	;# 
   374  0085                     	;# 
   375  0086                     	;# 
   376  0087                     	;# 
   377  0088                     	;# 
   378  0089                     	;# 
   379  008C                     	;# 
   380  008D                     	;# 
   381  008E                     	;# 
   382  0091                     	;# 
   383  0092                     	;# 
   384  0093                     	;# 
   385  0094                     	;# 
   386  0098                     	;# 
   387  0099                     	;# 
   388  009C                     	;# 
   389  009D                     	;# 
   390  009E                     	;# 
   391  009F                     	;# 
   392  010C                     	;# 
   393  010D                     	;# 
   394  010E                     	;# 
   395  010F                     	;# 
   396  018C                     	;# 
   397  018D                     	;# 
   398  0000                     	;# 
   399  0001                     	;# 
   400  0002                     	;# 
   401  0003                     	;# 
   402  0004                     	;# 
   403  0005                     	;# 
   404  0006                     	;# 
   405  0007                     	;# 
   406  0008                     	;# 
   407  0009                     	;# 
   408  000A                     	;# 
   409  000B                     	;# 
   410  000C                     	;# 
   411  000D                     	;# 
   412  000E                     	;# 
   413  000E                     	;# 
   414  000F                     	;# 
   415  0010                     	;# 
   416  0011                     	;# 
   417  0012                     	;# 
   418  0013                     	;# 
   419  0014                     	;# 
   420  0015                     	;# 
   421  0015                     	;# 
   422  0016                     	;# 
   423  0017                     	;# 
   424  0018                     	;# 
   425  0019                     	;# 
   426  001A                     	;# 
   427  001B                     	;# 
   428  001B                     	;# 
   429  001C                     	;# 
   430  001D                     	;# 
   431  001E                     	;# 
   432  001F                     	;# 
   433  0081                     	;# 
   434  0085                     	;# 
   435  0086                     	;# 
   436  0087                     	;# 
   437  0088                     	;# 
   438  0089                     	;# 
   439  008C                     	;# 
   440  008D                     	;# 
   441  008E                     	;# 
   442  0091                     	;# 
   443  0092                     	;# 
   444  0093                     	;# 
   445  0094                     	;# 
   446  0098                     	;# 
   447  0099                     	;# 
   448  009C                     	;# 
   449  009D                     	;# 
   450  009E                     	;# 
   451  009F                     	;# 
   452  010C                     	;# 
   453  010D                     	;# 
   454  010E                     	;# 
   455  010F                     	;# 
   456  018C                     	;# 
   457  018D                     	;# 
   458  0000                     	;# 
   459  0001                     	;# 
   460  0002                     	;# 
   461  0003                     	;# 
   462  0004                     	;# 
   463  0005                     	;# 
   464  0006                     	;# 
   465  0007                     	;# 
   466  0008                     	;# 
   467  0009                     	;# 
   468  000A                     	;# 
   469  000B                     	;# 
   470  000C                     	;# 
   471  000D                     	;# 
   472  000E                     	;# 
   473  000E                     	;# 
   474  000F                     	;# 
   475  0010                     	;# 
   476  0011                     	;# 
   477  0012                     	;# 
   478  0013                     	;# 
   479  0014                     	;# 
   480  0015                     	;# 
   481  0015                     	;# 
   482  0016                     	;# 
   483  0017                     	;# 
   484  0018                     	;# 
   485  0019                     	;# 
   486  001A                     	;# 
   487  001B                     	;# 
   488  001B                     	;# 
   489  001C                     	;# 
   490  001D                     	;# 
   491  001E                     	;# 
   492  001F                     	;# 
   493  0081                     	;# 
   494  0085                     	;# 
   495  0086                     	;# 
   496  0087                     	;# 
   497  0088                     	;# 
   498  0089                     	;# 
   499  008C                     	;# 
   500  008D                     	;# 
   501  008E                     	;# 
   502  0091                     	;# 
   503  0092                     	;# 
   504  0093                     	;# 
   505  0094                     	;# 
   506  0098                     	;# 
   507  0099                     	;# 
   508  009C                     	;# 
   509  009D                     	;# 
   510  009E                     	;# 
   511  009F                     	;# 
   512  010C                     	;# 
   513  010D                     	;# 
   514  010E                     	;# 
   515  010F                     	;# 
   516  018C                     	;# 
   517  018D                     	;# 
   518  0000                     	;# 
   519  0001                     	;# 
   520  0002                     	;# 
   521  0003                     	;# 
   522  0004                     	;# 
   523  0005                     	;# 
   524  0006                     	;# 
   525  0007                     	;# 
   526  0008                     	;# 
   527  0009                     	;# 
   528  000A                     	;# 
   529  000B                     	;# 
   530  000C                     	;# 
   531  000D                     	;# 
   532  000E                     	;# 
   533  000E                     	;# 
   534  000F                     	;# 
   535  0010                     	;# 
   536  0011                     	;# 
   537  0012                     	;# 
   538  0013                     	;# 
   539  0014                     	;# 
   540  0015                     	;# 
   541  0015                     	;# 
   542  0016                     	;# 
   543  0017                     	;# 
   544  0018                     	;# 
   545  0019                     	;# 
   546  001A                     	;# 
   547  001B                     	;# 
   548  001B                     	;# 
   549  001C                     	;# 
   550  001D                     	;# 
   551  001E                     	;# 
   552  001F                     	;# 
   553  0081                     	;# 
   554  0085                     	;# 
   555  0086                     	;# 
   556  0087                     	;# 
   557  0088                     	;# 
   558  0089                     	;# 
   559  008C                     	;# 
   560  008D                     	;# 
   561  008E                     	;# 
   562  0091                     	;# 
   563  0092                     	;# 
   564  0093                     	;# 
   565  0094                     	;# 
   566  0098                     	;# 
   567  0099                     	;# 
   568  009C                     	;# 
   569  009D                     	;# 
   570  009E                     	;# 
   571  009F                     	;# 
   572  010C                     	;# 
   573  010D                     	;# 
   574  010E                     	;# 
   575  010F                     	;# 
   576  018C                     	;# 
   577  018D                     	;# 
   578  0000                     	;# 
   579  0001                     	;# 
   580  0002                     	;# 
   581  0003                     	;# 
   582  0004                     	;# 
   583  0005                     	;# 
   584  0006                     	;# 
   585  0007                     	;# 
   586  0008                     	;# 
   587  0009                     	;# 
   588  000A                     	;# 
   589  000B                     	;# 
   590  000C                     	;# 
   591  000D                     	;# 
   592  000E                     	;# 
   593  000E                     	;# 
   594  000F                     	;# 
   595  0010                     	;# 
   596  0011                     	;# 
   597  0012                     	;# 
   598  0013                     	;# 
   599  0014                     	;# 
   600  0015                     	;# 
   601  0015                     	;# 
   602  0016                     	;# 
   603  0017                     	;# 
   604  0018                     	;# 
   605  0019                     	;# 
   606  001A                     	;# 
   607  001B                     	;# 
   608  001B                     	;# 
   609  001C                     	;# 
   610  001D                     	;# 
   611  001E                     	;# 
   612  001F                     	;# 
   613  0081                     	;# 
   614  0085                     	;# 
   615  0086                     	;# 
   616  0087                     	;# 
   617  0088                     	;# 
   618  0089                     	;# 
   619  008C                     	;# 
   620  008D                     	;# 
   621  008E                     	;# 
   622  0091                     	;# 
   623  0092                     	;# 
   624  0093                     	;# 
   625  0094                     	;# 
   626  0098                     	;# 
   627  0099                     	;# 
   628  009C                     	;# 
   629  009D                     	;# 
   630  009E                     	;# 
   631  009F                     	;# 
   632  010C                     	;# 
   633  010D                     	;# 
   634  010E                     	;# 
   635  010F                     	;# 
   636  018C                     	;# 
   637  018D                     	;# 
   638  0000                     	;# 
   639  0001                     	;# 
   640  0002                     	;# 
   641  0003                     	;# 
   642  0004                     	;# 
   643  0005                     	;# 
   644  0006                     	;# 
   645  0007                     	;# 
   646  0008                     	;# 
   647  0009                     	;# 
   648  000A                     	;# 
   649  000B                     	;# 
   650  000C                     	;# 
   651  000D                     	;# 
   652  000E                     	;# 
   653  000E                     	;# 
   654  000F                     	;# 
   655  0010                     	;# 
   656  0011                     	;# 
   657  0012                     	;# 
   658  0013                     	;# 
   659  0014                     	;# 
   660  0015                     	;# 
   661  0015                     	;# 
   662  0016                     	;# 
   663  0017                     	;# 
   664  0018                     	;# 
   665  0019                     	;# 
   666  001A                     	;# 
   667  001B                     	;# 
   668  001B                     	;# 
   669  001C                     	;# 
   670  001D                     	;# 
   671  001E                     	;# 
   672  001F                     	;# 
   673  0081                     	;# 
   674  0085                     	;# 
   675  0086                     	;# 
   676  0087                     	;# 
   677  0088                     	;# 
   678  0089                     	;# 
   679  008C                     	;# 
   680  008D                     	;# 
   681  008E                     	;# 
   682  0091                     	;# 
   683  0092                     	;# 
   684  0093                     	;# 
   685  0094                     	;# 
   686  0098                     	;# 
   687  0099                     	;# 
   688  009C                     	;# 
   689  009D                     	;# 
   690  009E                     	;# 
   691  009F                     	;# 
   692  010C                     	;# 
   693  010D                     	;# 
   694  010E                     	;# 
   695  010F                     	;# 
   696  018C                     	;# 
   697  018D                     	;# 
   698                           
   699                           	psect	idataBANK0
   700  098E                     __pidataBANK0:	
   701                           
   702                           ;initializer for _down_sw
   703  098E  3401               	retlw	1
   704                           
   705                           ;initializer for _up_sw
   706  098F  3401               	retlw	1
   707                           
   708                           ;initializer for _power_mode
   709  0990  3401               	retlw	1
   710  0012                     _T2CON	set	18
   711  0007                     _PORTC	set	7
   712  0006                     _PORTB	set	6
   713  0005                     _PORTA	set	5
   714  0008                     _PORTD	set	8
   715  0013                     _SSPBUF	set	19
   716  0014                     _SSPCON	set	20
   717  001E                     _ADRESH	set	30
   718  001F                     _ADCON0	set	31
   719  000B                     _INTCON	set	11
   720  000C                     _PIR1	set	12
   721  0011                     _TMR2	set	17
   722  0063                     _SSPIF	set	99
   723  008C                     _PIE1	set	140
   724  0086                     _TRISB	set	134
   725  0085                     _TRISA	set	133
   726  0088                     _TRISD	set	136
   727  0087                     _TRISC	set	135
   728  0093                     _SSPADD	set	147
   729  0091                     _SSPCON2	set	145
   730  0094                     _SSPSTAT	set	148
   731  009E                     _ADRESL	set	158
   732  009F                     _ADCON1	set	159
   733                           
   734                           ; #config settings
   735  0000                     
   736                           	psect	cinit
   737  0015                     start_initialization:	
   738  0015                     __initialization:	
   739                           
   740                           ; Initialize objects allocated to BANK0
   741  0015  120A  158A  218E  120A  118A  	fcall	__pidataBANK0	;fetch initializer
   742  001A  00E9               	movwf	__pdataBANK0& (0+127)
   743  001B  120A  158A  218F  120A  118A  	fcall	__pidataBANK0+1	;fetch initializer
   744  0020  00EA               	movwf	(__pdataBANK0+1)& (0+127)
   745  0021  120A  158A  2190  120A  118A  	fcall	__pidataBANK0+2	;fetch initializer
   746  0026  00EB               	movwf	(__pdataBANK0+2)& (0+127)
   747                           
   748                           ; Clear objects allocated to BANK1
   749  0027  1383               	bcf	3,7	;select IRP bank0
   750  0028  30B7               	movlw	low __pbssBANK1
   751  0029  0084               	movwf	4
   752  002A  30CB               	movlw	low (__pbssBANK1+20)
   753  002B  120A  158A  21A5  120A  118A  	fcall	clear_ram0
   754                           
   755                           ; Clear objects allocated to BANK0
   756  0030  3056               	movlw	low __pbssBANK0
   757  0031  0084               	movwf	4
   758  0032  3069               	movlw	low (__pbssBANK0+19)
   759  0033  120A  158A  21A5  120A  118A  	fcall	clear_ram0
   760  0038                     end_of_initialization:	
   761                           ;End of C runtime variable initialization code
   762                           
   763  0038                     __end_of__initialization:	
   764  0038  0183               	clrf	3
   765  0039  120A  158A  2DE8   	ljmp	_main	;jump to C main() function
   766                           
   767                           	psect	bssBANK0
   768  0056                     __pbssBANK0:	
   769  0056                     _led_timer:	
   770  0056                     	ds	2
   771  0058                     _ssd_timer:	
   772  0058                     	ds	2
   773  005A                     _switch_wait:	
   774  005A                     	ds	2
   775  005C                     _temp:	
   776  005C                     	ds	1
   777  005D                     _i:	
   778  005D                     	ds	1
   779  005E                     _state:	
   780  005E                     	ds	1
   781  005F                     _blink:	
   782  005F                     	ds	1
   783  0060                     _ssd_select:	
   784  0060                     	ds	1
   785  0061                     _ones:	
   786  0061                     	ds	1
   787  0062                     _tens:	
   788  0062                     	ds	1
   789  0063                     _mode:	
   790  0063                     	ds	1
   791  0064                     _hold_temp:	
   792  0064                     	ds	1
   793  0065                     _set_temp:	
   794  0065                     	ds	1
   795  0066                     _switch_delay:	
   796  0066                     	ds	1
   797  0067                     _ssd_delay:	
   798  0067                     	ds	1
   799  0068                     _temp_timer:	
   800  0068                     	ds	1
   801                           
   802                           	psect	dataBANK0
   803  0069                     __pdataBANK0:	
   804  0069                     _down_sw:	
   805  0069                     	ds	1
   806  006A                     _up_sw:	
   807  006A                     	ds	1
   808  006B                     _power_mode:	
   809  006B                     	ds	1
   810                           
   811                           	psect	bssBANK1
   812  00B7                     __pbssBANK1:	
   813  00B7                     _temp_hold_array:	
   814  00B7                     	ds	20
   815                           
   816                           	psect	clrtext
   817  09A5                     clear_ram0:	
   818                           ;	Called with FSR containing the base address, and
   819                           ;	W with the last address+1
   820                           
   821  09A5  0064               	clrwdt	;clear the watchdog before getting into this loop
   822  09A6                     clrloop0:	
   823  09A6  0180               	clrf	0	;clear RAM location pointed to by FSR
   824  09A7  0A84               	incf	4,f	;increment pointer
   825  09A8  0604               	xorwf	4,w	;XOR with final address
   826  09A9  1903               	btfsc	3,2	;have we reached the end yet?
   827  09AA  3400               	retlw	0	;all done for this memory range, return
   828  09AB  0604               	xorwf	4,w	;XOR again to restore value
   829  09AC  29A6               	goto	clrloop0	;do the next byte
   830                           
   831                           	psect	cstackBANK1
   832  00A0                     __pcstackBANK1:	
   833  00A0                     ??_stop_timer:	
   834  00A0                     ??_ssd_turn_off:	
   835                           ; 1 bytes @ 0x0
   836                           
   837  00A0                     ??_temp_control_off:	
   838                           ; 1 bytes @ 0x0
   839                           
   840  00A0                     ??_temp_control_init:	
   841                           ; 1 bytes @ 0x0
   842                           
   843  00A0                     ??_switch_init:	
   844                           ; 1 bytes @ 0x0
   845                           
   846  00A0                     ??_ssd_init:	
   847                           ; 1 bytes @ 0x0
   848                           
   849  00A0                     ??_timer2_init:	
   850                           ; 1 bytes @ 0x0
   851                           
   852  00A0                     ??_system_sleep:	
   853                           ; 1 bytes @ 0x0
   854                           
   855  00A0                     ??_ADC_Init:	
   856                           ; 1 bytes @ 0x0
   857                           
   858  00A0                     ??_I2C_Wait:	
   859                           ; 1 bytes @ 0x0
   860                           
   861  00A0                     ??_I2C1_Start:	
   862                           ; 1 bytes @ 0x0
   863                           
   864  00A0                     ??_I2C1_Stop:	
   865                           ; 1 bytes @ 0x0
   866                           
   867  00A0                     ??_I2C1_Wr:	
   868                           ; 1 bytes @ 0x0
   869                           
   870  00A0                     ??_I2C1_Rd:	
   871                           ; 1 bytes @ 0x0
   872                           
   873  00A0                     ?___lldiv:	
   874                           ; 1 bytes @ 0x0
   875                           
   876  00A0                     I2C1_Wr@_data:	
   877                           ; 4 bytes @ 0x0
   878                           
   879  00A0                     ___lldiv@divisor:	
   880                           ; 1 bytes @ 0x0
   881                           
   882                           
   883                           ; 4 bytes @ 0x0
   884  00A0                     	ds	1
   885  00A1                     ??_temp_sensor_init:	
   886  00A1                     ?_EEPROM_read:	
   887                           ; 1 bytes @ 0x1
   888                           
   889  00A1                     EEPROM_read@address:	
   890                           ; 1 bytes @ 0x1
   891                           
   892                           
   893                           ; 2 bytes @ 0x1
   894  00A1                     	ds	2
   895  00A3                     ??_EEPROM_read:	
   896                           
   897                           ; 1 bytes @ 0x3
   898  00A3                     	ds	1
   899  00A4                     EEPROM_read@_x:	
   900  00A4                     ___lldiv@dividend:	
   901                           ; 1 bytes @ 0x4
   902                           
   903                           
   904                           ; 4 bytes @ 0x4
   905  00A4                     	ds	4
   906  00A8                     ??___lldiv:	
   907                           
   908                           ; 1 bytes @ 0x8
   909  00A8                     	ds	1
   910  00A9                     ___lldiv@quotient:	
   911                           
   912                           ; 4 bytes @ 0x9
   913  00A9                     	ds	4
   914  00AD                     ___lldiv@counter:	
   915                           
   916                           ; 1 bytes @ 0xD
   917  00AD                     	ds	1
   918  00AE                     ?_I2C1_Init:	
   919  00AE                     I2C1_Init@freq:	
   920                           ; 1 bytes @ 0xE
   921                           
   922                           
   923                           ; 4 bytes @ 0xE
   924  00AE                     	ds	4
   925  00B2                     ??_I2C1_Init:	
   926                           
   927                           ; 1 bytes @ 0x12
   928  00B2                     	ds	4
   929  00B6                     ??_EEPROM_init:	
   930  00B6                     ??_main:	
   931                           ; 1 bytes @ 0x16
   932                           
   933                           
   934                           ; 1 bytes @ 0x16
   935  00B6                     	ds	1
   936                           
   937                           	psect	cstackCOMMON
   938  0070                     __pcstackCOMMON:	
   939  0070                     ?_temp_sensor_read:	
   940  0070                     ?_ssd_update:	
   941                           ; 1 bytes @ 0x0
   942                           
   943  0070                     ?_temp_set:	
   944                           ; 1 bytes @ 0x0
   945                           
   946  0070                     ??_temp_set:	
   947                           ; 1 bytes @ 0x0
   948                           
   949  0070                     ?_led:	
   950                           ; 1 bytes @ 0x0
   951                           
   952  0070                     ??_led:	
   953                           ; 1 bytes @ 0x0
   954                           
   955  0070                     ?_switch_scan:	
   956                           ; 1 bytes @ 0x0
   957                           
   958  0070                     ??_switch_scan:	
   959                           ; 1 bytes @ 0x0
   960                           
   961  0070                     ?_sw_action:	
   962                           ; 1 bytes @ 0x0
   963                           
   964  0070                     ?_ssd_blink:	
   965                           ; 1 bytes @ 0x0
   966                           
   967  0070                     ?_stop_timer:	
   968                           ; 1 bytes @ 0x0
   969                           
   970  0070                     ?_ssd_turn_off:	
   971                           ; 1 bytes @ 0x0
   972                           
   973  0070                     ?_temp_control_off:	
   974                           ; 1 bytes @ 0x0
   975                           
   976  0070                     ?_start_timer:	
   977                           ; 1 bytes @ 0x0
   978                           
   979  0070                     ??_start_timer:	
   980                           ; 1 bytes @ 0x0
   981                           
   982  0070                     ?_temp_sensor_init:	
   983                           ; 1 bytes @ 0x0
   984                           
   985  0070                     ?_temp_control_init:	
   986                           ; 1 bytes @ 0x0
   987                           
   988  0070                     ?_switch_init:	
   989                           ; 1 bytes @ 0x0
   990                           
   991  0070                     ?_ssd_init:	
   992                           ; 1 bytes @ 0x0
   993                           
   994  0070                     ?_EEPROM_init:	
   995                           ; 1 bytes @ 0x0
   996                           
   997  0070                     ?_timer2_init:	
   998                           ; 1 bytes @ 0x0
   999                           
  1000  0070                     ?_system_sleep:	
  1001                           ; 1 bytes @ 0x0
  1002                           
  1003  0070                     ?_isr:	
  1004                           ; 1 bytes @ 0x0
  1005                           
  1006  0070                     ?_main:	
  1007                           ; 1 bytes @ 0x0
  1008                           
  1009  0070                     ?_ADC_Init:	
  1010                           ; 1 bytes @ 0x0
  1011                           
  1012  0070                     ?_I2C_Wait:	
  1013                           ; 1 bytes @ 0x0
  1014                           
  1015  0070                     ?_I2C1_Start:	
  1016                           ; 1 bytes @ 0x0
  1017                           
  1018  0070                     ?_I2C1_Stop:	
  1019                           ; 1 bytes @ 0x0
  1020                           
  1021  0070                     ?_I2C1_Wr:	
  1022                           ; 1 bytes @ 0x0
  1023                           
  1024  0070                     ?_I2C1_Rd:	
  1025                           ; 1 bytes @ 0x0
  1026                           
  1027  0070                     ?_display7s:	
  1028                           ; 1 bytes @ 0x0
  1029                           
  1030  0070                     ??_display7s:	
  1031                           ; 1 bytes @ 0x0
  1032                           
  1033  0070                     ?_average:	
  1034                           ; 1 bytes @ 0x0
  1035                           
  1036  0070                     ?i1_I2C_Wait:	
  1037                           ; 1 bytes @ 0x0
  1038                           
  1039  0070                     ??i1_I2C_Wait:	
  1040                           ; 1 bytes @ 0x0
  1041                           
  1042  0070                     ?i1_I2C1_Start:	
  1043                           ; 1 bytes @ 0x0
  1044                           
  1045  0070                     ??i1_I2C1_Start:	
  1046                           ; 1 bytes @ 0x0
  1047                           
  1048  0070                     ?i1_I2C1_Stop:	
  1049                           ; 1 bytes @ 0x0
  1050                           
  1051  0070                     ??i1_I2C1_Stop:	
  1052                           ; 1 bytes @ 0x0
  1053                           
  1054  0070                     ?i1_I2C1_Wr:	
  1055                           ; 1 bytes @ 0x0
  1056                           
  1057  0070                     ??i1_I2C1_Wr:	
  1058                           ; 1 bytes @ 0x0
  1059                           
  1060  0070                     ?i1_ssd_turn_off:	
  1061                           ; 1 bytes @ 0x0
  1062                           
  1063  0070                     ??i1_ssd_turn_off:	
  1064                           ; 1 bytes @ 0x0
  1065                           
  1066  0070                     ?i1_temp_control_off:	
  1067                           ; 1 bytes @ 0x0
  1068                           
  1069  0070                     ??i1_temp_control_off:	
  1070                           ; 1 bytes @ 0x0
  1071                           
  1072  0070                     ?i1_stop_timer:	
  1073                           ; 1 bytes @ 0x0
  1074                           
  1075  0070                     ??i1_stop_timer:	
  1076                           ; 1 bytes @ 0x0
  1077                           
  1078  0070                     ?__Umul8_16:	
  1079                           ; 1 bytes @ 0x0
  1080                           
  1081  0070                     ?_ADC_Read:	
  1082                           ; 2 bytes @ 0x0
  1083                           
  1084  0070                     ?___awdiv:	
  1085                           ; 2 bytes @ 0x0
  1086                           
  1087  0070                     ?___awmod:	
  1088                           ; 2 bytes @ 0x0
  1089                           
  1090  0070                     ?___lwdiv:	
  1091                           ; 2 bytes @ 0x0
  1092                           
  1093  0070                     __Umul8_16@multiplicand:	
  1094                           ; 2 bytes @ 0x0
  1095                           
  1096  0070                     i1I2C1_Wr@_data:	
  1097                           ; 1 bytes @ 0x0
  1098                           
  1099  0070                     ___awdiv@divisor:	
  1100                           ; 1 bytes @ 0x0
  1101                           
  1102  0070                     ___awmod@divisor:	
  1103                           ; 2 bytes @ 0x0
  1104                           
  1105  0070                     ___lwdiv@divisor:	
  1106                           ; 2 bytes @ 0x0
  1107                           
  1108                           
  1109                           ; 2 bytes @ 0x0
  1110  0070                     	ds	1
  1111  0071                     ?_EEPROM_write:	
  1112  0071                     EEPROM_write@address:	
  1113                           ; 1 bytes @ 0x1
  1114                           
  1115                           
  1116                           ; 2 bytes @ 0x1
  1117  0071                     	ds	1
  1118  0072                     ??__Umul8_16:	
  1119  0072                     ??_ADC_Read:	
  1120                           ; 1 bytes @ 0x2
  1121                           
  1122  0072                     display7s@v:	
  1123                           ; 1 bytes @ 0x2
  1124                           
  1125  0072                     ___awdiv@dividend:	
  1126                           ; 1 bytes @ 0x2
  1127                           
  1128  0072                     ___awmod@dividend:	
  1129                           ; 2 bytes @ 0x2
  1130                           
  1131  0072                     ___lwdiv@dividend:	
  1132                           ; 2 bytes @ 0x2
  1133                           
  1134                           
  1135                           ; 2 bytes @ 0x2
  1136  0072                     	ds	1
  1137  0073                     EEPROM_write@_x:	
  1138  0073                     temp_set@temp:	
  1139                           ; 1 bytes @ 0x3
  1140                           
  1141                           
  1142                           ; 1 bytes @ 0x3
  1143  0073                     	ds	1
  1144  0074                     ??_sw_action:	
  1145  0074                     ??_EEPROM_write:	
  1146                           ; 1 bytes @ 0x4
  1147                           
  1148  0074                     ??___awdiv:	
  1149                           ; 1 bytes @ 0x4
  1150                           
  1151  0074                     ??___awmod:	
  1152                           ; 1 bytes @ 0x4
  1153                           
  1154  0074                     ??___lwdiv:	
  1155                           ; 1 bytes @ 0x4
  1156                           
  1157  0074                     ADC_Read@channel:	
  1158                           ; 1 bytes @ 0x4
  1159                           
  1160  0074                     __Umul8_16@product:	
  1161                           ; 1 bytes @ 0x4
  1162                           
  1163                           
  1164                           ; 2 bytes @ 0x4
  1165  0074                     	ds	1
  1166  0075                     ?___xxtofl:	
  1167  0075                     ___awdiv@counter:	
  1168                           ; 4 bytes @ 0x5
  1169                           
  1170  0075                     ___awmod@counter:	
  1171                           ; 1 bytes @ 0x5
  1172                           
  1173  0075                     ___lwdiv@quotient:	
  1174                           ; 1 bytes @ 0x5
  1175                           
  1176  0075                     ___xxtofl@val:	
  1177                           ; 2 bytes @ 0x5
  1178                           
  1179                           
  1180                           ; 4 bytes @ 0x5
  1181  0075                     	ds	1
  1182  0076                     ___awdiv@sign:	
  1183  0076                     ___awmod@sign:	
  1184                           ; 1 bytes @ 0x6
  1185                           
  1186  0076                     __Umul8_16@word_mpld:	
  1187                           ; 1 bytes @ 0x6
  1188                           
  1189                           
  1190                           ; 2 bytes @ 0x6
  1191  0076                     	ds	1
  1192  0077                     ___lwdiv@counter:	
  1193  0077                     ___awdiv@quotient:	
  1194                           ; 1 bytes @ 0x7
  1195                           
  1196                           
  1197                           ; 2 bytes @ 0x7
  1198  0077                     	ds	1
  1199  0078                     ??_average:	
  1200  0078                     __Umul8_16@multiplier:	
  1201                           ; 1 bytes @ 0x8
  1202                           
  1203                           
  1204                           ; 1 bytes @ 0x8
  1205  0078                     	ds	1
  1206  0079                     ??_ssd_update:	
  1207  0079                     ??___xxtofl:	
  1208                           ; 1 bytes @ 0x9
  1209                           
  1210                           
  1211                           ; 1 bytes @ 0x9
  1212  0079                     	ds	2
  1213  007B                     average@sum:	
  1214                           
  1215                           ; 2 bytes @ 0xB
  1216  007B                     	ds	1
  1217  007C                     ssd_update@temp:	
  1218                           
  1219                           ; 1 bytes @ 0xC
  1220  007C                     	ds	1
  1221  007D                     ssd_blink@e_temp:	
  1222  007D                     average@i:	
  1223                           ; 1 bytes @ 0xD
  1224                           
  1225                           
  1226                           ; 1 bytes @ 0xD
  1227  007D                     	ds	1
  1228                           
  1229                           	psect	cstackBANK0
  1230  0020                     __pcstackBANK0:	
  1231  0020                     ??_ssd_blink:	
  1232  0020                     ___xxtofl@sign:	
  1233                           ; 1 bytes @ 0x0
  1234                           
  1235                           
  1236                           ; 1 bytes @ 0x0
  1237  0020                     	ds	1
  1238  0021                     ___xxtofl@exp:	
  1239                           
  1240                           ; 1 bytes @ 0x1
  1241  0021                     	ds	1
  1242  0022                     ___xxtofl@arg:	
  1243                           
  1244                           ; 4 bytes @ 0x2
  1245  0022                     	ds	4
  1246  0026                     ?___fldiv:	
  1247  0026                     ?___flmul:	
  1248                           ; 4 bytes @ 0x6
  1249                           
  1250  0026                     ___fldiv@a:	
  1251                           ; 4 bytes @ 0x6
  1252                           
  1253  0026                     ___flmul@b:	
  1254                           ; 4 bytes @ 0x6
  1255                           
  1256                           
  1257                           ; 4 bytes @ 0x6
  1258  0026                     	ds	4
  1259  002A                     ___fldiv@b:	
  1260  002A                     ___flmul@a:	
  1261                           ; 4 bytes @ 0xA
  1262                           
  1263                           
  1264                           ; 4 bytes @ 0xA
  1265  002A                     	ds	4
  1266  002E                     ??___fldiv:	
  1267  002E                     ??___flmul:	
  1268                           ; 1 bytes @ 0xE
  1269                           
  1270                           
  1271                           ; 1 bytes @ 0xE
  1272  002E                     	ds	5
  1273  0033                     ___flmul@sign:	
  1274  0033                     ___fldiv@rem:	
  1275                           ; 1 bytes @ 0x13
  1276                           
  1277                           
  1278                           ; 4 bytes @ 0x13
  1279  0033                     	ds	1
  1280  0034                     ___flmul@grs:	
  1281                           
  1282                           ; 4 bytes @ 0x14
  1283  0034                     	ds	3
  1284  0037                     ___fldiv@sign:	
  1285                           
  1286                           ; 1 bytes @ 0x17
  1287  0037                     	ds	1
  1288  0038                     ___flmul@aexp:	
  1289  0038                     ___fldiv@new_exp:	
  1290                           ; 1 bytes @ 0x18
  1291                           
  1292                           
  1293                           ; 2 bytes @ 0x18
  1294  0038                     	ds	1
  1295  0039                     ___flmul@bexp:	
  1296                           
  1297                           ; 1 bytes @ 0x19
  1298  0039                     	ds	1
  1299  003A                     ___fldiv@grs:	
  1300  003A                     ___flmul@prod:	
  1301                           ; 4 bytes @ 0x1A
  1302                           
  1303                           
  1304                           ; 4 bytes @ 0x1A
  1305  003A                     	ds	4
  1306  003E                     ___fldiv@bexp:	
  1307  003E                     ___flmul@temp:	
  1308                           ; 1 bytes @ 0x1E
  1309                           
  1310                           
  1311                           ; 2 bytes @ 0x1E
  1312  003E                     	ds	1
  1313  003F                     ___fldiv@aexp:	
  1314                           
  1315                           ; 1 bytes @ 0x1F
  1316  003F                     	ds	1
  1317  0040                     ?___fltol:	
  1318  0040                     ___fltol@f1:	
  1319                           ; 4 bytes @ 0x20
  1320                           
  1321                           
  1322                           ; 4 bytes @ 0x20
  1323  0040                     	ds	4
  1324  0044                     ??___fltol:	
  1325                           
  1326                           ; 1 bytes @ 0x24
  1327  0044                     	ds	5
  1328  0049                     ___fltol@sign1:	
  1329                           
  1330                           ; 1 bytes @ 0x29
  1331  0049                     	ds	1
  1332  004A                     ___fltol@exp1:	
  1333                           
  1334                           ; 1 bytes @ 0x2A
  1335  004A                     	ds	1
  1336  004B                     ??_temp_sensor_read:	
  1337                           
  1338                           ; 1 bytes @ 0x2B
  1339  004B                     	ds	5
  1340  0050                     ??_isr:	
  1341                           
  1342                           ; 1 bytes @ 0x30
  1343  0050                     	ds	6
  1344                           
  1345                           	psect	maintext
  1346  0DE8                     __pmaintext:	
  1347 ;;
  1348 ;;Main: autosize = 0, tempsize = 1, incstack = 0, save=0
  1349 ;;
  1350 ;; *************** function _main *****************
  1351 ;; Defined at:
  1352 ;;		line 124 in file "main_app.c"
  1353 ;; Parameters:    Size  Location     Type
  1354 ;;		None
  1355 ;; Auto vars:     Size  Location     Type
  1356 ;;		None
  1357 ;; Return value:  Size  Location     Type
  1358 ;;                  1    wreg      void 
  1359 ;; Registers used:
  1360 ;;		wreg, status,2, status,0, pclath, cstack
  1361 ;; Tracked objects:
  1362 ;;		On entry : B00/0
  1363 ;;		On exit  : 0/0
  1364 ;;		Unchanged: 0/0
  1365 ;; Data sizes:     COMMON   BANK0   BANK1   BANK3   BANK2
  1366 ;;      Params:         0       0       0       0       0
  1367 ;;      Locals:         0       0       0       0       0
  1368 ;;      Temps:          0       0       1       0       0
  1369 ;;      Totals:         0       0       1       0       0
  1370 ;;Total ram usage:        1 bytes
  1371 ;; Hardware stack levels required when called:    8
  1372 ;; This function calls:
  1373 ;;		_EEPROM_init
  1374 ;;		_EEPROM_read
  1375 ;;		_ssd_init
  1376 ;;		_ssd_turn_off
  1377 ;;		_stop_timer
  1378 ;;		_switch_init
  1379 ;;		_system_sleep
  1380 ;;		_temp_control_init
  1381 ;;		_temp_control_off
  1382 ;;		_temp_sensor_init
  1383 ;;		_timer2_init
  1384 ;; This function is called by:
  1385 ;;		Startup code after reset
  1386 ;; This function uses a non-reentrant model
  1387 ;;
  1388                           
  1389                           
  1390                           ;psect for function _main
  1391  0DE8                     _main:	
  1392  0DE8                     l3185:	
  1393                           ;incstack = 0
  1394                           ; Regs used in _main: [wreg+status,2+status,0+pclath+cstack]
  1395                           
  1396                           
  1397                           ;main_app.c: 126:     temp_sensor_init();
  1398  0DE8  120A  118A  27F7  120A  158A  	fcall	_temp_sensor_init
  1399                           
  1400                           ;main_app.c: 127:     temp_control_init();
  1401  0DED  120A  158A  2319  120A  158A  	fcall	_temp_control_init
  1402  0DF2                     l3187:	
  1403                           
  1404                           ;main_app.c: 128:     switch_init();
  1405  0DF2  120A  158A  219E  120A  158A  	fcall	_switch_init
  1406  0DF7                     l3189:	
  1407                           
  1408                           ;main_app.c: 129:     ssd_init();
  1409  0DF7  120A  158A  22D6  120A  158A  	fcall	_ssd_init
  1410  0DFC                     l3191:	
  1411                           
  1412                           ;main_app.c: 130:     EEPROM_init();
  1413  0DFC  120A  158A  221F  120A  158A  	fcall	_EEPROM_init
  1414  0E01                     l3193:	
  1415                           
  1416                           ;main_app.c: 131:     timer2_init();
  1417  0E01  120A  158A  22F5  120A  158A  	fcall	_timer2_init
  1418  0E06                     l3195:	
  1419                           
  1420                           ;main_app.c: 134:     if (EEPROM_read(0xff) > 100){
  1421  0E06  30FF               	movlw	255
  1422  0E07  1683               	bsf	3,5	;RP0=1, select bank1
  1423  0E08  1303               	bcf	3,6	;RP1=0, select bank1
  1424  0E09  00A1               	movwf	EEPROM_read@address^(0+128)
  1425  0E0A  3000               	movlw	0
  1426  0E0B  00A2               	movwf	(EEPROM_read@address^(0+128)+1)
  1427  0E0C  120A  158A  23BD  120A  158A  	fcall	_EEPROM_read
  1428  0E11  1683               	bsf	3,5	;RP0=1, select bank1
  1429  0E12  1303               	bcf	3,6	;RP1=0, select bank1
  1430  0E13  00B6               	movwf	??_main^(0+128)
  1431  0E14  3065               	movlw	101
  1432  0E15  0236               	subwf	??_main^(0+128),w
  1433  0E16  1C03               	skipc
  1434  0E17  2E19               	goto	u3141
  1435  0E18  2E1A               	goto	u3140
  1436  0E19                     u3141:	
  1437  0E19  2E21               	goto	l3199
  1438  0E1A                     u3140:	
  1439  0E1A                     l3197:	
  1440                           
  1441                           ;main_app.c: 135:        set_temp = 60 ;
  1442  0E1A  303C               	movlw	60
  1443  0E1B  00B6               	movwf	??_main^(0+128)
  1444  0E1C  0836               	movf	??_main^(0+128),w
  1445  0E1D  1283               	bcf	3,5	;RP0=0, select bank0
  1446  0E1E  1303               	bcf	3,6	;RP1=0, select bank0
  1447  0E1F  00E5               	movwf	_set_temp
  1448                           
  1449                           ;main_app.c: 136:     }
  1450  0E20  2E31               	goto	l86
  1451  0E21                     l3199:	
  1452                           
  1453                           ;main_app.c: 138:        set_temp = EEPROM_read(0xff) ;
  1454  0E21  30FF               	movlw	255
  1455  0E22  00A1               	movwf	EEPROM_read@address^(0+128)
  1456  0E23  3000               	movlw	0
  1457  0E24  00A2               	movwf	(EEPROM_read@address^(0+128)+1)
  1458  0E25  120A  158A  23BD  120A  158A  	fcall	_EEPROM_read
  1459  0E2A  1683               	bsf	3,5	;RP0=1, select bank1
  1460  0E2B  1303               	bcf	3,6	;RP1=0, select bank1
  1461  0E2C  00B6               	movwf	??_main^(0+128)
  1462  0E2D  0836               	movf	??_main^(0+128),w
  1463  0E2E  1283               	bcf	3,5	;RP0=0, select bank0
  1464  0E2F  1303               	bcf	3,6	;RP1=0, select bank0
  1465  0E30  00E5               	movwf	_set_temp
  1466  0E31                     l86:	
  1467                           ;main_app.c: 139:     }
  1468                           
  1469                           
  1470                           ;main_app.c: 143:     stop_timer();
  1471  0E31  120A  158A  21D1  120A  158A  	fcall	_stop_timer
  1472                           
  1473                           ;main_app.c: 144:     ssd_turn_off();
  1474  0E36  120A  158A  2254  120A  158A  	fcall	_ssd_turn_off
  1475                           
  1476                           ;main_app.c: 145:     temp_control_off();
  1477  0E3B  120A  158A  2282  120A  158A  	fcall	_temp_control_off
  1478  0E40                     l3201:	
  1479                           
  1480                           ;main_app.c: 150:         system_sleep();
  1481  0E40  120A  158A  218C  120A  158A  	fcall	_system_sleep
  1482  0E45  2E40               	goto	l3201
  1483  0E46  120A  118A  2812   	ljmp	start
  1484  0E49                     __end_of_main:	
  1485                           
  1486                           	psect	text1
  1487  0AF5                     __ptext1:	
  1488 ;; *************** function _timer2_init *****************
  1489 ;; Defined at:
  1490 ;;		line 8 in file "timer2.c"
  1491 ;; Parameters:    Size  Location     Type
  1492 ;;		None
  1493 ;; Auto vars:     Size  Location     Type
  1494 ;;		None
  1495 ;; Return value:  Size  Location     Type
  1496 ;;                  1    wreg      void 
  1497 ;; Registers used:
  1498 ;;		wreg, status,2, status,0
  1499 ;; Tracked objects:
  1500 ;;		On entry : 0/0
  1501 ;;		On exit  : 0/0
  1502 ;;		Unchanged: 0/0
  1503 ;; Data sizes:     COMMON   BANK0   BANK1   BANK3   BANK2
  1504 ;;      Params:         0       0       0       0       0
  1505 ;;      Locals:         0       0       0       0       0
  1506 ;;      Temps:          0       0       1       0       0
  1507 ;;      Totals:         0       0       1       0       0
  1508 ;;Total ram usage:        1 bytes
  1509 ;; Hardware stack levels used:    1
  1510 ;; Hardware stack levels required when called:    5
  1511 ;; This function calls:
  1512 ;;		Nothing
  1513 ;; This function is called by:
  1514 ;;		_main
  1515 ;; This function uses a non-reentrant model
  1516 ;;
  1517                           
  1518                           
  1519                           ;psect for function _timer2_init
  1520  0AF5                     _timer2_init:	
  1521  0AF5                     l3093:	
  1522                           ;incstack = 0
  1523                           ; Regs used in _timer2_init: [wreg+status,2+status,0]
  1524                           
  1525                           
  1526                           ;timer2.c: 9:     (T2CON &= ~(1 << 2)) ;
  1527  0AF5  30FB               	movlw	251
  1528  0AF6  1683               	bsf	3,5	;RP0=1, select bank1
  1529  0AF7  1303               	bcf	3,6	;RP1=0, select bank1
  1530  0AF8  00A0               	movwf	??_timer2_init^(0+128)
  1531  0AF9  0820               	movf	??_timer2_init^(0+128),w
  1532  0AFA  1283               	bcf	3,5	;RP0=0, select bank0
  1533  0AFB  1303               	bcf	3,6	;RP1=0, select bank0
  1534  0AFC  0592               	andwf	18,f	;volatile
  1535  0AFD                     l3095:	
  1536                           
  1537                           ;timer2.c: 10:     (T2CON |= (1 << 1));
  1538  0AFD  1492               	bsf	18,1	;volatile
  1539                           
  1540                           ;timer2.c: 11:     (T2CON &= ~(1 << 0));
  1541  0AFE  30FE               	movlw	254
  1542  0AFF  1683               	bsf	3,5	;RP0=1, select bank1
  1543  0B00  1303               	bcf	3,6	;RP1=0, select bank1
  1544  0B01  00A0               	movwf	??_timer2_init^(0+128)
  1545  0B02  0820               	movf	??_timer2_init^(0+128),w
  1546  0B03  1283               	bcf	3,5	;RP0=0, select bank0
  1547  0B04  1303               	bcf	3,6	;RP1=0, select bank0
  1548  0B05  0592               	andwf	18,f	;volatile
  1549  0B06                     l3097:	
  1550                           
  1551                           ;timer2.c: 12:     TMR2 = 131 ;
  1552  0B06  3083               	movlw	131
  1553  0B07  0091               	movwf	17	;volatile
  1554  0B08                     l3099:	
  1555                           
  1556                           ;timer2.c: 13:     (INTCON |= (1 << 7));
  1557  0B08  178B               	bsf	11,7	;volatile
  1558  0B09                     l3101:	
  1559                           
  1560                           ;timer2.c: 14:     (INTCON |= (1 << 6));
  1561  0B09  170B               	bsf	11,6	;volatile
  1562  0B0A                     l3103:	
  1563                           
  1564                           ;timer2.c: 15:     (PIR1 &= ~(1 << 1));
  1565  0B0A  30FD               	movlw	253
  1566  0B0B  1683               	bsf	3,5	;RP0=1, select bank1
  1567  0B0C  1303               	bcf	3,6	;RP1=0, select bank1
  1568  0B0D  00A0               	movwf	??_timer2_init^(0+128)
  1569  0B0E  0820               	movf	??_timer2_init^(0+128),w
  1570  0B0F  1283               	bcf	3,5	;RP0=0, select bank0
  1571  0B10  1303               	bcf	3,6	;RP1=0, select bank0
  1572  0B11  058C               	andwf	12,f	;volatile
  1573  0B12                     l3105:	
  1574                           
  1575                           ;timer2.c: 16:     (PIE1 |= (1 << 1));
  1576  0B12  1683               	bsf	3,5	;RP0=1, select bank1
  1577  0B13  1303               	bcf	3,6	;RP1=0, select bank1
  1578  0B14  148C               	bsf	12,1	;volatile
  1579  0B15                     l3107:	
  1580                           
  1581                           ;timer2.c: 17:     (T2CON |= (1 << 2)) ;
  1582  0B15  1283               	bcf	3,5	;RP0=0, select bank0
  1583  0B16  1303               	bcf	3,6	;RP1=0, select bank0
  1584  0B17  1512               	bsf	18,2	;volatile
  1585  0B18                     l362:	
  1586  0B18  0008               	return
  1587  0B19                     __end_of_timer2_init:	
  1588                           
  1589                           	psect	text2
  1590  07F7                     __ptext2:	
  1591 ;; *************** function _temp_sensor_init *****************
  1592 ;; Defined at:
  1593 ;;		line 13 in file "temp_sensor.c"
  1594 ;; Parameters:    Size  Location     Type
  1595 ;;		None
  1596 ;; Auto vars:     Size  Location     Type
  1597 ;;		None
  1598 ;; Return value:  Size  Location     Type
  1599 ;;                  1    wreg      void 
  1600 ;; Registers used:
  1601 ;;		wreg, status,2, status,0, pclath, cstack
  1602 ;; Tracked objects:
  1603 ;;		On entry : 0/0
  1604 ;;		On exit  : 0/0
  1605 ;;		Unchanged: 0/0
  1606 ;; Data sizes:     COMMON   BANK0   BANK1   BANK3   BANK2
  1607 ;;      Params:         0       0       0       0       0
  1608 ;;      Locals:         0       0       0       0       0
  1609 ;;      Temps:          0       0       0       0       0
  1610 ;;      Totals:         0       0       0       0       0
  1611 ;;Total ram usage:        0 bytes
  1612 ;; Hardware stack levels used:    1
  1613 ;; Hardware stack levels required when called:    6
  1614 ;; This function calls:
  1615 ;;		_ADC_Init
  1616 ;; This function is called by:
  1617 ;;		_main
  1618 ;; This function uses a non-reentrant model
  1619 ;;
  1620                           
  1621                           
  1622                           ;psect for function _temp_sensor_init
  1623  07F7                     _temp_sensor_init:	
  1624  07F7                     l3073:	
  1625                           ;incstack = 0
  1626                           ; Regs used in _temp_sensor_init: [wreg+status,2+status,0+pclath+cstack]
  1627                           
  1628                           
  1629                           ;temp_sensor.c: 14:     ADC_Init();
  1630  07F7  120A  158A  229D  120A  118A  	fcall	_ADC_Init
  1631  07FC                     l3075:	
  1632                           
  1633                           ;temp_sensor.c: 15:     (TRISA |= (1 << 2));
  1634  07FC  1683               	bsf	3,5	;RP0=1, select bank1
  1635  07FD  1303               	bcf	3,6	;RP1=0, select bank1
  1636  07FE  1505               	bsf	5,2	;volatile
  1637  07FF                     l338:	
  1638  07FF  0008               	return
  1639  0800                     __end_of_temp_sensor_init:	
  1640                           
  1641                           	psect	text3
  1642  0A9D                     __ptext3:	
  1643 ;; *************** function _ADC_Init *****************
  1644 ;; Defined at:
  1645 ;;		line 8 in file "adc_drive.c"
  1646 ;; Parameters:    Size  Location     Type
  1647 ;;		None
  1648 ;; Auto vars:     Size  Location     Type
  1649 ;;		None
  1650 ;; Return value:  Size  Location     Type
  1651 ;;                  1    wreg      void 
  1652 ;; Registers used:
  1653 ;;		wreg, status,2, status,0
  1654 ;; Tracked objects:
  1655 ;;		On entry : 0/0
  1656 ;;		On exit  : 0/0
  1657 ;;		Unchanged: 0/0
  1658 ;; Data sizes:     COMMON   BANK0   BANK1   BANK3   BANK2
  1659 ;;      Params:         0       0       0       0       0
  1660 ;;      Locals:         0       0       0       0       0
  1661 ;;      Temps:          0       0       1       0       0
  1662 ;;      Totals:         0       0       1       0       0
  1663 ;;Total ram usage:        1 bytes
  1664 ;; Hardware stack levels used:    1
  1665 ;; Hardware stack levels required when called:    5
  1666 ;; This function calls:
  1667 ;;		Nothing
  1668 ;; This function is called by:
  1669 ;;		_temp_sensor_init
  1670 ;; This function uses a non-reentrant model
  1671 ;;
  1672                           
  1673                           
  1674                           ;psect for function _ADC_Init
  1675  0A9D                     _ADC_Init:	
  1676  0A9D                     l2487:	
  1677                           ;incstack = 0
  1678                           ; Regs used in _ADC_Init: [wreg+status,2+status,0]
  1679                           
  1680                           
  1681                           ;adc_drive.c: 10:     (ADCON0 |= (1 << 7));
  1682  0A9D  1283               	bcf	3,5	;RP0=0, select bank0
  1683  0A9E  1303               	bcf	3,6	;RP1=0, select bank0
  1684  0A9F  179F               	bsf	31,7	;volatile
  1685                           
  1686                           ;adc_drive.c: 11:     (ADCON0 |= (1 << 6));
  1687  0AA0  171F               	bsf	31,6	;volatile
  1688                           
  1689                           ;adc_drive.c: 12:     (ADCON1 |= (1 << 6));
  1690  0AA1  1683               	bsf	3,5	;RP0=1, select bank1
  1691  0AA2  1303               	bcf	3,6	;RP1=0, select bank1
  1692  0AA3  171F               	bsf	31,6	;volatile
  1693                           
  1694                           ;adc_drive.c: 14:     (ADCON1 |= (1 << 7));
  1695  0AA4  179F               	bsf	31,7	;volatile
  1696  0AA5                     l2489:	
  1697                           
  1698                           ;adc_drive.c: 16:     (ADCON1 &= ~(1 << 0));
  1699  0AA5  30FE               	movlw	254
  1700  0AA6  00A0               	movwf	??_ADC_Init^(0+128)
  1701  0AA7  0820               	movf	??_ADC_Init^(0+128),w
  1702  0AA8  059F               	andwf	31,f	;volatile
  1703                           
  1704                           ;adc_drive.c: 17:     (ADCON1 &= ~(1 << 1));
  1705  0AA9  30FD               	movlw	253
  1706  0AAA  00A0               	movwf	??_ADC_Init^(0+128)
  1707  0AAB  0820               	movf	??_ADC_Init^(0+128),w
  1708  0AAC  059F               	andwf	31,f	;volatile
  1709                           
  1710                           ;adc_drive.c: 18:     (ADCON1 &= ~(1 << 2));
  1711  0AAD  30FB               	movlw	251
  1712  0AAE  00A0               	movwf	??_ADC_Init^(0+128)
  1713  0AAF  0820               	movf	??_ADC_Init^(0+128),w
  1714  0AB0  059F               	andwf	31,f	;volatile
  1715                           
  1716                           ;adc_drive.c: 19:     (ADCON1 &= ~(1 << 3));
  1717  0AB1  30F7               	movlw	247
  1718  0AB2  00A0               	movwf	??_ADC_Init^(0+128)
  1719  0AB3  0820               	movf	??_ADC_Init^(0+128),w
  1720  0AB4  059F               	andwf	31,f	;volatile
  1721  0AB5                     l2491:	
  1722                           
  1723                           ;adc_drive.c: 21:     (ADCON0 |= (1 << 0));
  1724  0AB5  1283               	bcf	3,5	;RP0=0, select bank0
  1725  0AB6  1303               	bcf	3,6	;RP1=0, select bank0
  1726  0AB7  141F               	bsf	31,0	;volatile
  1727  0AB8                     l101:	
  1728  0AB8  0008               	return
  1729  0AB9                     __end_of_ADC_Init:	
  1730                           
  1731                           	psect	text4
  1732  0A82                     __ptext4:	
  1733 ;; *************** function _temp_control_off *****************
  1734 ;; Defined at:
  1735 ;;		line 87 in file "temp_control.c"
  1736 ;; Parameters:    Size  Location     Type
  1737 ;;		None
  1738 ;; Auto vars:     Size  Location     Type
  1739 ;;		None
  1740 ;; Return value:  Size  Location     Type
  1741 ;;                  1    wreg      void 
  1742 ;; Registers used:
  1743 ;;		wreg, status,2, status,0
  1744 ;; Tracked objects:
  1745 ;;		On entry : 0/0
  1746 ;;		On exit  : 0/0
  1747 ;;		Unchanged: 0/0
  1748 ;; Data sizes:     COMMON   BANK0   BANK1   BANK3   BANK2
  1749 ;;      Params:         0       0       0       0       0
  1750 ;;      Locals:         0       0       0       0       0
  1751 ;;      Temps:          0       0       1       0       0
  1752 ;;      Totals:         0       0       1       0       0
  1753 ;;Total ram usage:        1 bytes
  1754 ;; Hardware stack levels used:    1
  1755 ;; Hardware stack levels required when called:    5
  1756 ;; This function calls:
  1757 ;;		Nothing
  1758 ;; This function is called by:
  1759 ;;		_main
  1760 ;; This function uses a non-reentrant model
  1761 ;;
  1762                           
  1763                           
  1764                           ;psect for function _temp_control_off
  1765  0A82                     _temp_control_off:	
  1766  0A82                     l3065:	
  1767                           ;incstack = 0
  1768                           ; Regs used in _temp_control_off: [wreg+status,2+status,0]
  1769                           
  1770                           
  1771                           ;temp_control.c: 88:      (PORTC &= ~(1 << 5));
  1772  0A82  30DF               	movlw	223
  1773  0A83  1683               	bsf	3,5	;RP0=1, select bank1
  1774  0A84  1303               	bcf	3,6	;RP1=0, select bank1
  1775  0A85  00A0               	movwf	??_temp_control_off^(0+128)
  1776  0A86  0820               	movf	??_temp_control_off^(0+128),w
  1777  0A87  1283               	bcf	3,5	;RP0=0, select bank0
  1778  0A88  1303               	bcf	3,6	;RP1=0, select bank0
  1779  0A89  0587               	andwf	7,f	;volatile
  1780                           
  1781                           ;temp_control.c: 89:      (PORTC &= ~(1 << 2));
  1782  0A8A  30FB               	movlw	251
  1783  0A8B  1683               	bsf	3,5	;RP0=1, select bank1
  1784  0A8C  1303               	bcf	3,6	;RP1=0, select bank1
  1785  0A8D  00A0               	movwf	??_temp_control_off^(0+128)
  1786  0A8E  0820               	movf	??_temp_control_off^(0+128),w
  1787  0A8F  1283               	bcf	3,5	;RP0=0, select bank0
  1788  0A90  1303               	bcf	3,6	;RP1=0, select bank0
  1789  0A91  0587               	andwf	7,f	;volatile
  1790                           
  1791                           ;temp_control.c: 90:      (PORTB &= ~(1 << 4));
  1792  0A92  30EF               	movlw	239
  1793  0A93  1683               	bsf	3,5	;RP0=1, select bank1
  1794  0A94  1303               	bcf	3,6	;RP1=0, select bank1
  1795  0A95  00A0               	movwf	??_temp_control_off^(0+128)
  1796  0A96  0820               	movf	??_temp_control_off^(0+128),w
  1797  0A97  1283               	bcf	3,5	;RP0=0, select bank0
  1798  0A98  1303               	bcf	3,6	;RP1=0, select bank0
  1799  0A99  0586               	andwf	6,f	;volatile
  1800  0A9A                     l3067:	
  1801                           
  1802                           ;temp_control.c: 91:      led_timer = 0 ;
  1803  0A9A  01D6               	clrf	_led_timer
  1804  0A9B  01D7               	clrf	_led_timer+1
  1805  0A9C                     l321:	
  1806  0A9C  0008               	return
  1807  0A9D                     __end_of_temp_control_off:	
  1808                           
  1809                           	psect	text5
  1810  0B19                     __ptext5:	
  1811 ;; *************** function _temp_control_init *****************
  1812 ;; Defined at:
  1813 ;;		line 13 in file "temp_control.c"
  1814 ;; Parameters:    Size  Location     Type
  1815 ;;		None
  1816 ;; Auto vars:     Size  Location     Type
  1817 ;;		None
  1818 ;; Return value:  Size  Location     Type
  1819 ;;                  1    wreg      void 
  1820 ;; Registers used:
  1821 ;;		wreg, status,2, status,0
  1822 ;; Tracked objects:
  1823 ;;		On entry : 0/0
  1824 ;;		On exit  : 0/0
  1825 ;;		Unchanged: 0/0
  1826 ;; Data sizes:     COMMON   BANK0   BANK1   BANK3   BANK2
  1827 ;;      Params:         0       0       0       0       0
  1828 ;;      Locals:         0       0       0       0       0
  1829 ;;      Temps:          0       0       1       0       0
  1830 ;;      Totals:         0       0       1       0       0
  1831 ;;Total ram usage:        1 bytes
  1832 ;; Hardware stack levels used:    1
  1833 ;; Hardware stack levels required when called:    5
  1834 ;; This function calls:
  1835 ;;		Nothing
  1836 ;; This function is called by:
  1837 ;;		_main
  1838 ;; This function uses a non-reentrant model
  1839 ;;
  1840                           
  1841                           
  1842                           ;psect for function _temp_control_init
  1843  0B19                     _temp_control_init:	
  1844  0B19                     l3077:	
  1845                           ;incstack = 0
  1846                           ; Regs used in _temp_control_init: [wreg+status,2+status,0]
  1847                           
  1848                           
  1849                           ;temp_control.c: 15:      (TRISC &= ~(1 << 5));
  1850  0B19  30DF               	movlw	223
  1851  0B1A  1683               	bsf	3,5	;RP0=1, select bank1
  1852  0B1B  1303               	bcf	3,6	;RP1=0, select bank1
  1853  0B1C  00A0               	movwf	??_temp_control_init^(0+128)
  1854  0B1D  0820               	movf	??_temp_control_init^(0+128),w
  1855  0B1E  0587               	andwf	7,f	;volatile
  1856                           
  1857                           ;temp_control.c: 16:      (PORTC &= ~(1 << 5));
  1858  0B1F  30DF               	movlw	223
  1859  0B20  00A0               	movwf	??_temp_control_init^(0+128)
  1860  0B21  0820               	movf	??_temp_control_init^(0+128),w
  1861  0B22  1283               	bcf	3,5	;RP0=0, select bank0
  1862  0B23  1303               	bcf	3,6	;RP1=0, select bank0
  1863  0B24  0587               	andwf	7,f	;volatile
  1864                           
  1865                           ;temp_control.c: 19:      (TRISC &= ~(1 << 2));
  1866  0B25  30FB               	movlw	251
  1867  0B26  1683               	bsf	3,5	;RP0=1, select bank1
  1868  0B27  1303               	bcf	3,6	;RP1=0, select bank1
  1869  0B28  00A0               	movwf	??_temp_control_init^(0+128)
  1870  0B29  0820               	movf	??_temp_control_init^(0+128),w
  1871  0B2A  0587               	andwf	7,f	;volatile
  1872                           
  1873                           ;temp_control.c: 20:      (PORTC &= ~(1 << 2));
  1874  0B2B  30FB               	movlw	251
  1875  0B2C  00A0               	movwf	??_temp_control_init^(0+128)
  1876  0B2D  0820               	movf	??_temp_control_init^(0+128),w
  1877  0B2E  1283               	bcf	3,5	;RP0=0, select bank0
  1878  0B2F  1303               	bcf	3,6	;RP1=0, select bank0
  1879  0B30  0587               	andwf	7,f	;volatile
  1880                           
  1881                           ;temp_control.c: 23:      (TRISB &= ~(1 << 4));
  1882  0B31  30EF               	movlw	239
  1883  0B32  1683               	bsf	3,5	;RP0=1, select bank1
  1884  0B33  1303               	bcf	3,6	;RP1=0, select bank1
  1885  0B34  00A0               	movwf	??_temp_control_init^(0+128)
  1886  0B35  0820               	movf	??_temp_control_init^(0+128),w
  1887  0B36  0586               	andwf	6,f	;volatile
  1888                           
  1889                           ;temp_control.c: 24:      (PORTB &= ~(1 << 4));
  1890  0B37  30EF               	movlw	239
  1891  0B38  00A0               	movwf	??_temp_control_init^(0+128)
  1892  0B39  0820               	movf	??_temp_control_init^(0+128),w
  1893  0B3A  1283               	bcf	3,5	;RP0=0, select bank0
  1894  0B3B  1303               	bcf	3,6	;RP1=0, select bank0
  1895  0B3C  0586               	andwf	6,f	;volatile
  1896  0B3D                     l299:	
  1897  0B3D  0008               	return
  1898  0B3E                     __end_of_temp_control_init:	
  1899                           
  1900                           	psect	text6
  1901  098C                     __ptext6:	
  1902 ;; *************** function _system_sleep *****************
  1903 ;; Defined at:
  1904 ;;		line 44 in file "timer2.c"
  1905 ;; Parameters:    Size  Location     Type
  1906 ;;		None
  1907 ;; Auto vars:     Size  Location     Type
  1908 ;;		None
  1909 ;; Return value:  Size  Location     Type
  1910 ;;                  1    wreg      void 
  1911 ;; Registers used:
  1912 ;;		None
  1913 ;; Tracked objects:
  1914 ;;		On entry : 0/0
  1915 ;;		On exit  : 0/0
  1916 ;;		Unchanged: 0/0
  1917 ;; Data sizes:     COMMON   BANK0   BANK1   BANK3   BANK2
  1918 ;;      Params:         0       0       0       0       0
  1919 ;;      Locals:         0       0       0       0       0
  1920 ;;      Temps:          0       0       0       0       0
  1921 ;;      Totals:         0       0       0       0       0
  1922 ;;Total ram usage:        0 bytes
  1923 ;; Hardware stack levels used:    1
  1924 ;; Hardware stack levels required when called:    5
  1925 ;; This function calls:
  1926 ;;		Nothing
  1927 ;; This function is called by:
  1928 ;;		_main
  1929 ;; This function uses a non-reentrant model
  1930 ;;
  1931                           
  1932                           
  1933                           ;psect for function _system_sleep
  1934  098C                     _system_sleep:	
  1935  098C                     l3129:	
  1936                           ;incstack = 0
  1937                           ; Regs used in _system_sleep: []
  1938                           
  1939  098C  0063               	sleep	;# 
  1940  098D                     l371:	
  1941  098D  0008               	return
  1942  098E                     __end_of_system_sleep:	
  1943                           
  1944                           	psect	text7
  1945  099E                     __ptext7:	
  1946 ;; *************** function _switch_init *****************
  1947 ;; Defined at:
  1948 ;;		line 15 in file "switchs.c"
  1949 ;; Parameters:    Size  Location     Type
  1950 ;;		None
  1951 ;; Auto vars:     Size  Location     Type
  1952 ;;		None
  1953 ;; Return value:  Size  Location     Type
  1954 ;;                  1    wreg      void 
  1955 ;; Registers used:
  1956 ;;		None
  1957 ;; Tracked objects:
  1958 ;;		On entry : 0/0
  1959 ;;		On exit  : 0/0
  1960 ;;		Unchanged: 0/0
  1961 ;; Data sizes:     COMMON   BANK0   BANK1   BANK3   BANK2
  1962 ;;      Params:         0       0       0       0       0
  1963 ;;      Locals:         0       0       0       0       0
  1964 ;;      Temps:          0       0       0       0       0
  1965 ;;      Totals:         0       0       0       0       0
  1966 ;;Total ram usage:        0 bytes
  1967 ;; Hardware stack levels used:    1
  1968 ;; Hardware stack levels required when called:    5
  1969 ;; This function calls:
  1970 ;;		Nothing
  1971 ;; This function is called by:
  1972 ;;		_main
  1973 ;; This function uses a non-reentrant model
  1974 ;;
  1975                           
  1976                           
  1977                           ;psect for function _switch_init
  1978  099E                     _switch_init:	
  1979  099E                     l3079:	
  1980                           ;incstack = 0
  1981                           ; Regs used in _switch_init: []
  1982                           
  1983                           
  1984                           ;switchs.c: 17:      (TRISB |= (1 << 2));
  1985  099E  1683               	bsf	3,5	;RP0=1, select bank1
  1986  099F  1303               	bcf	3,6	;RP1=0, select bank1
  1987  09A0  1506               	bsf	6,2	;volatile
  1988                           
  1989                           ;switchs.c: 18:      (TRISB |= (1 << 1));
  1990  09A1  1486               	bsf	6,1	;volatile
  1991                           
  1992                           ;switchs.c: 19:      (TRISB |= (1 << 0));
  1993  09A2  1406               	bsf	6,0	;volatile
  1994                           
  1995                           ;switchs.c: 20:      (INTCON |= (1 << 4));
  1996  09A3  160B               	bsf	11,4	;volatile
  1997  09A4                     l256:	
  1998  09A4  0008               	return
  1999  09A5                     __end_of_switch_init:	
  2000                           
  2001                           	psect	text8
  2002  09D1                     __ptext8:	
  2003 ;; *************** function _stop_timer *****************
  2004 ;; Defined at:
  2005 ;;		line 25 in file "timer2.c"
  2006 ;; Parameters:    Size  Location     Type
  2007 ;;		None
  2008 ;; Auto vars:     Size  Location     Type
  2009 ;;		None
  2010 ;; Return value:  Size  Location     Type
  2011 ;;                  1    wreg      void 
  2012 ;; Registers used:
  2013 ;;		wreg, status,2, status,0
  2014 ;; Tracked objects:
  2015 ;;		On entry : 0/0
  2016 ;;		On exit  : 0/0
  2017 ;;		Unchanged: 0/0
  2018 ;; Data sizes:     COMMON   BANK0   BANK1   BANK3   BANK2
  2019 ;;      Params:         0       0       0       0       0
  2020 ;;      Locals:         0       0       0       0       0
  2021 ;;      Temps:          0       0       1       0       0
  2022 ;;      Totals:         0       0       1       0       0
  2023 ;;Total ram usage:        1 bytes
  2024 ;; Hardware stack levels used:    1
  2025 ;; Hardware stack levels required when called:    5
  2026 ;; This function calls:
  2027 ;;		Nothing
  2028 ;; This function is called by:
  2029 ;;		_main
  2030 ;; This function uses a non-reentrant model
  2031 ;;
  2032                           
  2033                           
  2034                           ;psect for function _stop_timer
  2035  09D1                     _stop_timer:	
  2036  09D1                     l3057:	
  2037                           ;incstack = 0
  2038                           ; Regs used in _stop_timer: [wreg+status,2+status,0]
  2039                           
  2040                           
  2041                           ;timer2.c: 26:     (T2CON &= ~(1 << 2)) ;
  2042  09D1  30FB               	movlw	251
  2043  09D2  1683               	bsf	3,5	;RP0=1, select bank1
  2044  09D3  1303               	bcf	3,6	;RP1=0, select bank1
  2045  09D4  00A0               	movwf	??_stop_timer^(0+128)
  2046  09D5  0820               	movf	??_stop_timer^(0+128),w
  2047  09D6  1283               	bcf	3,5	;RP0=0, select bank0
  2048  09D7  1303               	bcf	3,6	;RP1=0, select bank0
  2049  09D8  0592               	andwf	18,f	;volatile
  2050  09D9                     l365:	
  2051  09D9  0008               	return
  2052  09DA                     __end_of_stop_timer:	
  2053                           
  2054                           	psect	text9
  2055  0A54                     __ptext9:	
  2056 ;; *************** function _ssd_turn_off *****************
  2057 ;; Defined at:
  2058 ;;		line 128 in file "SSD.c"
  2059 ;; Parameters:    Size  Location     Type
  2060 ;;		None
  2061 ;; Auto vars:     Size  Location     Type
  2062 ;;		None
  2063 ;; Return value:  Size  Location     Type
  2064 ;;                  1    wreg      void 
  2065 ;; Registers used:
  2066 ;;		wreg, status,2, status,0
  2067 ;; Tracked objects:
  2068 ;;		On entry : 0/0
  2069 ;;		On exit  : 0/0
  2070 ;;		Unchanged: 0/0
  2071 ;; Data sizes:     COMMON   BANK0   BANK1   BANK3   BANK2
  2072 ;;      Params:         0       0       0       0       0
  2073 ;;      Locals:         0       0       0       0       0
  2074 ;;      Temps:          0       0       1       0       0
  2075 ;;      Totals:         0       0       1       0       0
  2076 ;;Total ram usage:        1 bytes
  2077 ;; Hardware stack levels used:    1
  2078 ;; Hardware stack levels required when called:    5
  2079 ;; This function calls:
  2080 ;;		Nothing
  2081 ;; This function is called by:
  2082 ;;		_main
  2083 ;; This function uses a non-reentrant model
  2084 ;;
  2085                           
  2086                           
  2087                           ;psect for function _ssd_turn_off
  2088  0A54                     _ssd_turn_off:	
  2089  0A54                     l3059:	
  2090                           ;incstack = 0
  2091                           ; Regs used in _ssd_turn_off: [wreg+status,2+status,0]
  2092                           
  2093                           
  2094                           ;SSD.c: 129:     (PORTD &= ~(255 << 0));
  2095  0A54  1283               	bcf	3,5	;RP0=0, select bank0
  2096  0A55  1303               	bcf	3,6	;RP1=0, select bank0
  2097  0A56  0188               	clrf	8	;volatile
  2098  0A57                     l3061:	
  2099                           
  2100                           ;SSD.c: 130:     (PORTA &= ~(1 << 4));
  2101  0A57  30EF               	movlw	239
  2102  0A58  1683               	bsf	3,5	;RP0=1, select bank1
  2103  0A59  1303               	bcf	3,6	;RP1=0, select bank1
  2104  0A5A  00A0               	movwf	??_ssd_turn_off^(0+128)
  2105  0A5B  0820               	movf	??_ssd_turn_off^(0+128),w
  2106  0A5C  1283               	bcf	3,5	;RP0=0, select bank0
  2107  0A5D  1303               	bcf	3,6	;RP1=0, select bank0
  2108  0A5E  0585               	andwf	5,f	;volatile
  2109  0A5F                     l3063:	
  2110                           
  2111                           ;SSD.c: 131:     (PORTA &= ~(1 << 5));
  2112  0A5F  30DF               	movlw	223
  2113  0A60  1683               	bsf	3,5	;RP0=1, select bank1
  2114  0A61  1303               	bcf	3,6	;RP1=0, select bank1
  2115  0A62  00A0               	movwf	??_ssd_turn_off^(0+128)
  2116  0A63  0820               	movf	??_ssd_turn_off^(0+128),w
  2117  0A64  1283               	bcf	3,5	;RP0=0, select bank0
  2118  0A65  1303               	bcf	3,6	;RP1=0, select bank0
  2119  0A66  0585               	andwf	5,f	;volatile
  2120                           
  2121                           ;SSD.c: 132:     ssd_delay = 0 ;
  2122  0A67  01E7               	clrf	_ssd_delay
  2123  0A68                     l221:	
  2124  0A68  0008               	return
  2125  0A69                     __end_of_ssd_turn_off:	
  2126                           
  2127                           	psect	text10
  2128  0AD6                     __ptext10:	
  2129 ;; *************** function _ssd_init *****************
  2130 ;; Defined at:
  2131 ;;		line 15 in file "SSD.c"
  2132 ;; Parameters:    Size  Location     Type
  2133 ;;		None
  2134 ;; Auto vars:     Size  Location     Type
  2135 ;;		None
  2136 ;; Return value:  Size  Location     Type
  2137 ;;                  1    wreg      void 
  2138 ;; Registers used:
  2139 ;;		wreg, status,2, status,0
  2140 ;; Tracked objects:
  2141 ;;		On entry : 0/0
  2142 ;;		On exit  : 0/0
  2143 ;;		Unchanged: 0/0
  2144 ;; Data sizes:     COMMON   BANK0   BANK1   BANK3   BANK2
  2145 ;;      Params:         0       0       0       0       0
  2146 ;;      Locals:         0       0       0       0       0
  2147 ;;      Temps:          0       0       1       0       0
  2148 ;;      Totals:         0       0       1       0       0
  2149 ;;Total ram usage:        1 bytes
  2150 ;; Hardware stack levels used:    1
  2151 ;; Hardware stack levels required when called:    5
  2152 ;; This function calls:
  2153 ;;		Nothing
  2154 ;; This function is called by:
  2155 ;;		_main
  2156 ;; This function uses a non-reentrant model
  2157 ;;
  2158                           
  2159                           
  2160                           ;psect for function _ssd_init
  2161  0AD6                     _ssd_init:	
  2162  0AD6                     l3081:	
  2163                           ;incstack = 0
  2164                           ; Regs used in _ssd_init: [wreg+status,2+status,0]
  2165                           
  2166                           
  2167                           ;SSD.c: 17:      (TRISD &= ~(255 << 0));
  2168  0AD6  1683               	bsf	3,5	;RP0=1, select bank1
  2169  0AD7  1303               	bcf	3,6	;RP1=0, select bank1
  2170  0AD8  0188               	clrf	8	;volatile
  2171                           
  2172                           ;SSD.c: 18:      (PORTD &= ~(255 << 0));
  2173  0AD9  1283               	bcf	3,5	;RP0=0, select bank0
  2174  0ADA  1303               	bcf	3,6	;RP1=0, select bank0
  2175  0ADB  0188               	clrf	8	;volatile
  2176  0ADC                     l3083:	
  2177                           
  2178                           ;SSD.c: 20:      (TRISA &= ~(1 << 4));
  2179  0ADC  30EF               	movlw	239
  2180  0ADD  1683               	bsf	3,5	;RP0=1, select bank1
  2181  0ADE  1303               	bcf	3,6	;RP1=0, select bank1
  2182  0ADF  00A0               	movwf	??_ssd_init^(0+128)
  2183  0AE0  0820               	movf	??_ssd_init^(0+128),w
  2184  0AE1  0585               	andwf	5,f	;volatile
  2185  0AE2                     l3085:	
  2186                           
  2187                           ;SSD.c: 21:      (PORTA &= ~(1 << 4));
  2188  0AE2  30EF               	movlw	239
  2189  0AE3  00A0               	movwf	??_ssd_init^(0+128)
  2190  0AE4  0820               	movf	??_ssd_init^(0+128),w
  2191  0AE5  1283               	bcf	3,5	;RP0=0, select bank0
  2192  0AE6  1303               	bcf	3,6	;RP1=0, select bank0
  2193  0AE7  0585               	andwf	5,f	;volatile
  2194  0AE8                     l3087:	
  2195                           
  2196                           ;SSD.c: 22:      (TRISA &= ~(1 << 5));
  2197  0AE8  30DF               	movlw	223
  2198  0AE9  1683               	bsf	3,5	;RP0=1, select bank1
  2199  0AEA  1303               	bcf	3,6	;RP1=0, select bank1
  2200  0AEB  00A0               	movwf	??_ssd_init^(0+128)
  2201  0AEC  0820               	movf	??_ssd_init^(0+128),w
  2202  0AED  0585               	andwf	5,f	;volatile
  2203  0AEE                     l3089:	
  2204                           
  2205                           ;SSD.c: 23:      (PORTA &= ~(1 << 5));
  2206  0AEE  30DF               	movlw	223
  2207  0AEF  00A0               	movwf	??_ssd_init^(0+128)
  2208  0AF0  0820               	movf	??_ssd_init^(0+128),w
  2209  0AF1  1283               	bcf	3,5	;RP0=0, select bank0
  2210  0AF2  1303               	bcf	3,6	;RP1=0, select bank0
  2211  0AF3  0585               	andwf	5,f	;volatile
  2212  0AF4                     l187:	
  2213  0AF4  0008               	return
  2214  0AF5                     __end_of_ssd_init:	
  2215                           
  2216                           	psect	text11
  2217  0BBD                     __ptext11:	
  2218 ;; *************** function _EEPROM_read *****************
  2219 ;; Defined at:
  2220 ;;		line 31 in file "eeprom.c"
  2221 ;; Parameters:    Size  Location     Type
  2222 ;;  address         2    1[BANK1 ] unsigned int 
  2223 ;; Auto vars:     Size  Location     Type
  2224 ;;  _x              1    4[BANK1 ] unsigned char 
  2225 ;; Return value:  Size  Location     Type
  2226 ;;                  1    wreg      unsigned char 
  2227 ;; Registers used:
  2228 ;;		wreg, status,2, status,0, pclath, cstack
  2229 ;; Tracked objects:
  2230 ;;		On entry : 0/0
  2231 ;;		On exit  : 0/0
  2232 ;;		Unchanged: 0/0
  2233 ;; Data sizes:     COMMON   BANK0   BANK1   BANK3   BANK2
  2234 ;;      Params:         0       0       2       0       0
  2235 ;;      Locals:         0       0       1       0       0
  2236 ;;      Temps:          0       0       1       0       0
  2237 ;;      Totals:         0       0       4       0       0
  2238 ;;Total ram usage:        4 bytes
  2239 ;; Hardware stack levels used:    1
  2240 ;; Hardware stack levels required when called:    7
  2241 ;; This function calls:
  2242 ;;		_I2C1_Rd
  2243 ;;		_I2C1_Start
  2244 ;;		_I2C1_Stop
  2245 ;;		_I2C1_Wr
  2246 ;; This function is called by:
  2247 ;;		_main
  2248 ;; This function uses a non-reentrant model
  2249 ;;
  2250                           
  2251                           
  2252                           ;psect for function _EEPROM_read
  2253  0BBD                     _EEPROM_read:	
  2254  0BBD                     l3109:	
  2255                           ;incstack = 0
  2256                           ; Regs used in _EEPROM_read: [wreg+status,2+status,0+pclath+cstack]
  2257                           
  2258  0BBD                     l3111:	
  2259                           
  2260                           ;eeprom.c: 33:     I2C1_Start();
  2261  0BBD  120A  158A  21BF  120A  158A  	fcall	_I2C1_Start
  2262  0BC2                     l3113:	
  2263                           
  2264                           ;eeprom.c: 34:     I2C1_Wr(0XA2);
  2265  0BC2  30A2               	movlw	162
  2266  0BC3  120A  158A  2240  120A  158A  	fcall	_I2C1_Wr
  2267  0BC8                     l3115:	
  2268                           
  2269                           ;eeprom.c: 35:     I2C1_Wr(address);
  2270  0BC8  1683               	bsf	3,5	;RP0=1, select bank1
  2271  0BC9  1303               	bcf	3,6	;RP1=0, select bank1
  2272  0BCA  0821               	movf	EEPROM_read@address^(0+128),w
  2273  0BCB  120A  158A  2240  120A  158A  	fcall	_I2C1_Wr
  2274  0BD0                     l3117:	
  2275                           
  2276                           ;eeprom.c: 36:     I2C1_Start();
  2277  0BD0  120A  158A  21BF  120A  158A  	fcall	_I2C1_Start
  2278  0BD5                     l3119:	
  2279                           
  2280                           ;eeprom.c: 37:     I2C1_Wr(0XA3);
  2281  0BD5  30A3               	movlw	163
  2282  0BD6  120A  158A  2240  120A  158A  	fcall	_I2C1_Wr
  2283  0BDB                     l3121:	
  2284                           
  2285                           ;eeprom.c: 38:     _x = I2C1_Rd();
  2286  0BDB  120A  158A  2201  120A  158A  	fcall	_I2C1_Rd
  2287  0BE0  1683               	bsf	3,5	;RP0=1, select bank1
  2288  0BE1  1303               	bcf	3,6	;RP1=0, select bank1
  2289  0BE2  00A3               	movwf	??_EEPROM_read^(0+128)
  2290  0BE3  0823               	movf	??_EEPROM_read^(0+128),w
  2291  0BE4  00A4               	movwf	EEPROM_read@_x^(0+128)
  2292  0BE5                     l3123:	
  2293                           
  2294                           ;eeprom.c: 39:     I2C1_Stop();
  2295  0BE5  120A  158A  21C8  120A  158A  	fcall	_I2C1_Stop
  2296  0BEA                     l3125:	
  2297                           
  2298                           ;eeprom.c: 40:     return _x ;
  2299  0BEA  1683               	bsf	3,5	;RP0=1, select bank1
  2300  0BEB  1303               	bcf	3,6	;RP1=0, select bank1
  2301  0BEC  0824               	movf	EEPROM_read@_x^(0+128),w
  2302  0BED                     l164:	
  2303  0BED  0008               	return
  2304  0BEE                     __end_of_EEPROM_read:	
  2305                           
  2306                           	psect	text12
  2307  0A40                     __ptext12:	
  2308 ;; *************** function _I2C1_Wr *****************
  2309 ;; Defined at:
  2310 ;;		line 51 in file "I2C_drive.c"
  2311 ;; Parameters:    Size  Location     Type
  2312 ;;  _data           1    wreg     unsigned char 
  2313 ;; Auto vars:     Size  Location     Type
  2314 ;;  _data           1    0[BANK1 ] unsigned char 
  2315 ;; Return value:  Size  Location     Type
  2316 ;;                  1    wreg      void 
  2317 ;; Registers used:
  2318 ;;		wreg, status,2, status,0, pclath, cstack
  2319 ;; Tracked objects:
  2320 ;;		On entry : 0/0
  2321 ;;		On exit  : 0/0
  2322 ;;		Unchanged: 0/0
  2323 ;; Data sizes:     COMMON   BANK0   BANK1   BANK3   BANK2
  2324 ;;      Params:         0       0       0       0       0
  2325 ;;      Locals:         0       0       1       0       0
  2326 ;;      Temps:          0       0       0       0       0
  2327 ;;      Totals:         0       0       1       0       0
  2328 ;;Total ram usage:        1 bytes
  2329 ;; Hardware stack levels used:    1
  2330 ;; Hardware stack levels required when called:    6
  2331 ;; This function calls:
  2332 ;;		_I2C_Wait
  2333 ;; This function is called by:
  2334 ;;		_EEPROM_read
  2335 ;; This function uses a non-reentrant model
  2336 ;;
  2337                           
  2338                           
  2339                           ;psect for function _I2C1_Wr
  2340  0A40                     _I2C1_Wr:	
  2341                           
  2342                           ;incstack = 0
  2343                           ; Regs used in _I2C1_Wr: [wreg+status,2+status,0+pclath+cstack]
  2344                           ;I2C1_Wr@_data stored from wreg
  2345  0A40  1683               	bsf	3,5	;RP0=1, select bank1
  2346  0A41  1303               	bcf	3,6	;RP1=0, select bank1
  2347  0A42  00A0               	movwf	I2C1_Wr@_data^(0+128)
  2348  0A43                     l2517:	
  2349                           
  2350                           ;I2C_drive.c: 52:     I2C_Wait();
  2351  0A43  120A  158A  21F4  120A  158A  	fcall	_I2C_Wait
  2352  0A48                     l2519:	
  2353                           
  2354                           ;I2C_drive.c: 53:     SSPBUF = _data ;
  2355  0A48  1683               	bsf	3,5	;RP0=1, select bank1
  2356  0A49  1303               	bcf	3,6	;RP1=0, select bank1
  2357  0A4A  0820               	movf	I2C1_Wr@_data^(0+128),w
  2358  0A4B  1283               	bcf	3,5	;RP0=0, select bank0
  2359  0A4C  1303               	bcf	3,6	;RP1=0, select bank0
  2360  0A4D  0093               	movwf	19	;volatile
  2361  0A4E                     l2521:	
  2362                           
  2363                           ;I2C_drive.c: 54:     I2C_Wait();
  2364  0A4E  120A  158A  21F4  120A  158A  	fcall	_I2C_Wait
  2365  0A53                     l139:	
  2366  0A53  0008               	return
  2367  0A54                     __end_of_I2C1_Wr:	
  2368                           
  2369                           	psect	text13
  2370  09C8                     __ptext13:	
  2371 ;; *************** function _I2C1_Stop *****************
  2372 ;; Defined at:
  2373 ;;		line 41 in file "I2C_drive.c"
  2374 ;; Parameters:    Size  Location     Type
  2375 ;;		None
  2376 ;; Auto vars:     Size  Location     Type
  2377 ;;		None
  2378 ;; Return value:  Size  Location     Type
  2379 ;;                  1    wreg      void 
  2380 ;; Registers used:
  2381 ;;		wreg, status,2, status,0, pclath, cstack
  2382 ;; Tracked objects:
  2383 ;;		On entry : 0/0
  2384 ;;		On exit  : 0/0
  2385 ;;		Unchanged: 0/0
  2386 ;; Data sizes:     COMMON   BANK0   BANK1   BANK3   BANK2
  2387 ;;      Params:         0       0       0       0       0
  2388 ;;      Locals:         0       0       0       0       0
  2389 ;;      Temps:          0       0       0       0       0
  2390 ;;      Totals:         0       0       0       0       0
  2391 ;;Total ram usage:        0 bytes
  2392 ;; Hardware stack levels used:    1
  2393 ;; Hardware stack levels required when called:    6
  2394 ;; This function calls:
  2395 ;;		_I2C_Wait
  2396 ;; This function is called by:
  2397 ;;		_EEPROM_read
  2398 ;; This function uses a non-reentrant model
  2399 ;;
  2400                           
  2401                           
  2402                           ;psect for function _I2C1_Stop
  2403  09C8                     _I2C1_Stop:	
  2404  09C8                     l2513:	
  2405                           ;incstack = 0
  2406                           ; Regs used in _I2C1_Stop: [wreg+status,2+status,0+pclath+cstack]
  2407                           
  2408                           
  2409                           ;I2C_drive.c: 42:     I2C_Wait();
  2410  09C8  120A  158A  21F4  120A  158A  	fcall	_I2C_Wait
  2411  09CD                     l2515:	
  2412                           
  2413                           ;I2C_drive.c: 43:     (SSPCON2 |= (1 << 2));
  2414  09CD  1683               	bsf	3,5	;RP0=1, select bank1
  2415  09CE  1303               	bcf	3,6	;RP1=0, select bank1
  2416  09CF  1511               	bsf	17,2	;volatile
  2417  09D0                     l136:	
  2418  09D0  0008               	return
  2419  09D1                     __end_of_I2C1_Stop:	
  2420                           
  2421                           	psect	text14
  2422  09BF                     __ptext14:	
  2423 ;; *************** function _I2C1_Start *****************
  2424 ;; Defined at:
  2425 ;;		line 31 in file "I2C_drive.c"
  2426 ;; Parameters:    Size  Location     Type
  2427 ;;		None
  2428 ;; Auto vars:     Size  Location     Type
  2429 ;;		None
  2430 ;; Return value:  Size  Location     Type
  2431 ;;                  1    wreg      void 
  2432 ;; Registers used:
  2433 ;;		wreg, status,2, status,0, pclath, cstack
  2434 ;; Tracked objects:
  2435 ;;		On entry : 0/0
  2436 ;;		On exit  : 0/0
  2437 ;;		Unchanged: 0/0
  2438 ;; Data sizes:     COMMON   BANK0   BANK1   BANK3   BANK2
  2439 ;;      Params:         0       0       0       0       0
  2440 ;;      Locals:         0       0       0       0       0
  2441 ;;      Temps:          0       0       0       0       0
  2442 ;;      Totals:         0       0       0       0       0
  2443 ;;Total ram usage:        0 bytes
  2444 ;; Hardware stack levels used:    1
  2445 ;; Hardware stack levels required when called:    6
  2446 ;; This function calls:
  2447 ;;		_I2C_Wait
  2448 ;; This function is called by:
  2449 ;;		_EEPROM_read
  2450 ;; This function uses a non-reentrant model
  2451 ;;
  2452                           
  2453                           
  2454                           ;psect for function _I2C1_Start
  2455  09BF                     _I2C1_Start:	
  2456  09BF                     l2509:	
  2457                           ;incstack = 0
  2458                           ; Regs used in _I2C1_Start: [wreg+status,2+status,0+pclath+cstack]
  2459                           
  2460                           
  2461                           ;I2C_drive.c: 32:     I2C_Wait();
  2462  09BF  120A  158A  21F4  120A  158A  	fcall	_I2C_Wait
  2463  09C4                     l2511:	
  2464                           
  2465                           ;I2C_drive.c: 33:     (SSPCON2 |= (1 << 0));
  2466  09C4  1683               	bsf	3,5	;RP0=1, select bank1
  2467  09C5  1303               	bcf	3,6	;RP1=0, select bank1
  2468  09C6  1411               	bsf	17,0	;volatile
  2469  09C7                     l133:	
  2470  09C7  0008               	return
  2471  09C8                     __end_of_I2C1_Start:	
  2472                           
  2473                           	psect	text15
  2474  09F4                     __ptext15:	
  2475 ;; *************** function _I2C_Wait *****************
  2476 ;; Defined at:
  2477 ;;		line 8 in file "I2C_drive.c"
  2478 ;; Parameters:    Size  Location     Type
  2479 ;;		None
  2480 ;; Auto vars:     Size  Location     Type
  2481 ;;		None
  2482 ;; Return value:  Size  Location     Type
  2483 ;;                  1    wreg      void 
  2484 ;; Registers used:
  2485 ;;		wreg, status,2
  2486 ;; Tracked objects:
  2487 ;;		On entry : 0/0
  2488 ;;		On exit  : 0/0
  2489 ;;		Unchanged: 0/0
  2490 ;; Data sizes:     COMMON   BANK0   BANK1   BANK3   BANK2
  2491 ;;      Params:         0       0       0       0       0
  2492 ;;      Locals:         0       0       0       0       0
  2493 ;;      Temps:          0       0       0       0       0
  2494 ;;      Totals:         0       0       0       0       0
  2495 ;;Total ram usage:        0 bytes
  2496 ;; Hardware stack levels used:    1
  2497 ;; Hardware stack levels required when called:    5
  2498 ;; This function calls:
  2499 ;;		Nothing
  2500 ;; This function is called by:
  2501 ;;		_I2C1_Start
  2502 ;;		_I2C1_Stop
  2503 ;;		_I2C1_Wr
  2504 ;; This function uses a non-reentrant model
  2505 ;;
  2506                           
  2507                           
  2508                           ;psect for function _I2C_Wait
  2509  09F4                     _I2C_Wait:	
  2510  09F4                     l2175:	
  2511                           ;incstack = 0
  2512                           ; Regs used in _I2C_Wait: [wreg+status,2]
  2513                           
  2514  09F4                     l124:	
  2515                           ;I2C_drive.c: 9:   while ((SSPSTAT & 0x04) || (SSPCON2 & 0x1F));
  2516                           
  2517  09F4  1683               	bsf	3,5	;RP0=1, select bank1
  2518  09F5  1303               	bcf	3,6	;RP1=0, select bank1
  2519  09F6  1914               	btfsc	20,2	;volatile
  2520  09F7  29F9               	goto	u1601
  2521  09F8  29FA               	goto	u1600
  2522  09F9                     u1601:	
  2523  09F9  29F4               	goto	l124
  2524  09FA                     u1600:	
  2525  09FA                     l2177:	
  2526  09FA  0811               	movf	17,w	;volatile
  2527  09FB  391F               	andlw	31
  2528  09FC  1D03               	btfss	3,2
  2529  09FD  29FF               	goto	u1611
  2530  09FE  2A00               	goto	u1610
  2531  09FF                     u1611:	
  2532  09FF  29F4               	goto	l124
  2533  0A00                     u1610:	
  2534  0A00                     l127:	
  2535  0A00  0008               	return
  2536  0A01                     __end_of_I2C_Wait:	
  2537                           
  2538                           	psect	text16
  2539  0A01                     __ptext16:	
  2540 ;; *************** function _I2C1_Rd *****************
  2541 ;; Defined at:
  2542 ;;		line 62 in file "I2C_drive.c"
  2543 ;; Parameters:    Size  Location     Type
  2544 ;;		None
  2545 ;; Auto vars:     Size  Location     Type
  2546 ;;		None
  2547 ;; Return value:  Size  Location     Type
  2548 ;;                  1    wreg      unsigned char 
  2549 ;; Registers used:
  2550 ;;		wreg
  2551 ;; Tracked objects:
  2552 ;;		On entry : 0/0
  2553 ;;		On exit  : 0/0
  2554 ;;		Unchanged: 0/0
  2555 ;; Data sizes:     COMMON   BANK0   BANK1   BANK3   BANK2
  2556 ;;      Params:         0       0       0       0       0
  2557 ;;      Locals:         0       0       0       0       0
  2558 ;;      Temps:          0       0       0       0       0
  2559 ;;      Totals:         0       0       0       0       0
  2560 ;;Total ram usage:        0 bytes
  2561 ;; Hardware stack levels used:    1
  2562 ;; Hardware stack levels required when called:    5
  2563 ;; This function calls:
  2564 ;;		Nothing
  2565 ;; This function is called by:
  2566 ;;		_EEPROM_read
  2567 ;; This function uses a non-reentrant model
  2568 ;;
  2569                           
  2570                           
  2571                           ;psect for function _I2C1_Rd
  2572  0A01                     _I2C1_Rd:	
  2573  0A01                     l2523:	
  2574                           ;incstack = 0
  2575                           ; Regs used in _I2C1_Rd: [wreg]
  2576                           
  2577                           
  2578                           ;I2C_drive.c: 63:     SSPIF = 0;
  2579  0A01  1283               	bcf	3,5	;RP0=0, select bank0
  2580  0A02  1303               	bcf	3,6	;RP1=0, select bank0
  2581  0A03  118C               	bcf	12,3	;volatile
  2582                           
  2583                           ;I2C_drive.c: 64:     (SSPCON2 |= (1 << 3));
  2584  0A04  1683               	bsf	3,5	;RP0=1, select bank1
  2585  0A05  1303               	bcf	3,6	;RP1=0, select bank1
  2586  0A06  1591               	bsf	17,3	;volatile
  2587  0A07                     l142:	
  2588                           ;I2C_drive.c: 65:     while(!SSPIF);
  2589                           
  2590  0A07  1283               	bcf	3,5	;RP0=0, select bank0
  2591  0A08  1D8C               	btfss	12,3	;volatile
  2592  0A09  2A0B               	goto	u2021
  2593  0A0A  2A0C               	goto	u2020
  2594  0A0B                     u2021:	
  2595  0A0B  2A07               	goto	l142
  2596  0A0C                     u2020:	
  2597  0A0C                     l144:	
  2598                           
  2599                           ;I2C_drive.c: 66:     SSPIF = 0;
  2600  0A0C  118C               	bcf	12,3	;volatile
  2601  0A0D                     l2525:	
  2602                           
  2603                           ;I2C_drive.c: 67:     return SSPBUF;
  2604  0A0D  0813               	movf	19,w	;volatile
  2605  0A0E                     l145:	
  2606  0A0E  0008               	return
  2607  0A0F                     __end_of_I2C1_Rd:	
  2608                           
  2609                           	psect	text17
  2610  0A1F                     __ptext17:	
  2611 ;; *************** function _EEPROM_init *****************
  2612 ;; Defined at:
  2613 ;;		line 8 in file "eeprom.c"
  2614 ;; Parameters:    Size  Location     Type
  2615 ;;		None
  2616 ;; Auto vars:     Size  Location     Type
  2617 ;;		None
  2618 ;; Return value:  Size  Location     Type
  2619 ;;                  1    wreg      void 
  2620 ;; Registers used:
  2621 ;;		wreg, status,2, status,0, pclath, cstack
  2622 ;; Tracked objects:
  2623 ;;		On entry : 0/0
  2624 ;;		On exit  : 0/0
  2625 ;;		Unchanged: 0/0
  2626 ;; Data sizes:     COMMON   BANK0   BANK1   BANK3   BANK2
  2627 ;;      Params:         0       0       0       0       0
  2628 ;;      Locals:         0       0       0       0       0
  2629 ;;      Temps:          0       0       0       0       0
  2630 ;;      Totals:         0       0       0       0       0
  2631 ;;Total ram usage:        0 bytes
  2632 ;; Hardware stack levels used:    1
  2633 ;; Hardware stack levels required when called:    7
  2634 ;; This function calls:
  2635 ;;		_I2C1_Init
  2636 ;; This function is called by:
  2637 ;;		_main
  2638 ;; This function uses a non-reentrant model
  2639 ;;
  2640                           
  2641                           
  2642                           ;psect for function _EEPROM_init
  2643  0A1F                     _EEPROM_init:	
  2644  0A1F                     l3091:	
  2645                           ;incstack = 0
  2646                           ; Regs used in _EEPROM_init: [wreg+status,2+status,0+pclath+cstack]
  2647                           
  2648                           
  2649                           ;eeprom.c: 9:      I2C1_Init(100000);
  2650  0A1F  3000               	movlw	0
  2651  0A20  1683               	bsf	3,5	;RP0=1, select bank1
  2652  0A21  1303               	bcf	3,6	;RP1=0, select bank1
  2653  0A22  00B1               	movwf	(I2C1_Init@freq+3)^(0+128)
  2654  0A23  3001               	movlw	1
  2655  0A24  00B0               	movwf	(I2C1_Init@freq+2)^(0+128)
  2656  0A25  3086               	movlw	134
  2657  0A26  00AF               	movwf	(I2C1_Init@freq+1)^(0+128)
  2658  0A27  30A0               	movlw	160
  2659  0A28  00AE               	movwf	I2C1_Init@freq^(0+128)
  2660  0A29  120A  158A  2422  120A  158A  	fcall	_I2C1_Init
  2661  0A2E                     l158:	
  2662  0A2E  0008               	return
  2663  0A2F                     __end_of_EEPROM_init:	
  2664                           
  2665                           	psect	text18
  2666  0C22                     __ptext18:	
  2667 ;; *************** function _I2C1_Init *****************
  2668 ;; Defined at:
  2669 ;;		line 17 in file "I2C_drive.c"
  2670 ;; Parameters:    Size  Location     Type
  2671 ;;  freq            4   14[BANK1 ] unsigned long 
  2672 ;; Auto vars:     Size  Location     Type
  2673 ;;		None
  2674 ;; Return value:  Size  Location     Type
  2675 ;;                  1    wreg      void 
  2676 ;; Registers used:
  2677 ;;		wreg, status,2, status,0, pclath, cstack
  2678 ;; Tracked objects:
  2679 ;;		On entry : 0/0
  2680 ;;		On exit  : 0/0
  2681 ;;		Unchanged: 0/0
  2682 ;; Data sizes:     COMMON   BANK0   BANK1   BANK3   BANK2
  2683 ;;      Params:         0       0       4       0       0
  2684 ;;      Locals:         0       0       0       0       0
  2685 ;;      Temps:          0       0       4       0       0
  2686 ;;      Totals:         0       0       8       0       0
  2687 ;;Total ram usage:        8 bytes
  2688 ;; Hardware stack levels used:    1
  2689 ;; Hardware stack levels required when called:    6
  2690 ;; This function calls:
  2691 ;;		___lldiv
  2692 ;; This function is called by:
  2693 ;;		_EEPROM_init
  2694 ;; This function uses a non-reentrant model
  2695 ;;
  2696                           
  2697                           
  2698                           ;psect for function _I2C1_Init
  2699  0C22                     _I2C1_Init:	
  2700  0C22                     l2501:	
  2701                           ;incstack = 0
  2702                           ; Regs used in _I2C1_Init: [wreg+status,2+status,0+pclath+cstack]
  2703                           
  2704                           
  2705                           ;I2C_drive.c: 18:     (SSPCON |= (1 << 5));
  2706  0C22  1283               	bcf	3,5	;RP0=0, select bank0
  2707  0C23  1303               	bcf	3,6	;RP1=0, select bank0
  2708  0C24  1694               	bsf	20,5	;volatile
  2709                           
  2710                           ;I2C_drive.c: 19:     (SSPCON |= (1 << 3));
  2711  0C25  1594               	bsf	20,3	;volatile
  2712  0C26                     l2503:	
  2713                           
  2714                           ;I2C_drive.c: 20:     SSPADD = (8000000 / (freq * 4) ) - 1 ;
  2715  0C26  1683               	bsf	3,5	;RP0=1, select bank1
  2716  0C27  1303               	bcf	3,6	;RP1=0, select bank1
  2717  0C28  082E               	movf	I2C1_Init@freq^(0+128),w
  2718  0C29  00B2               	movwf	??_I2C1_Init^(0+128)
  2719  0C2A  082F               	movf	(I2C1_Init@freq+1)^(0+128),w
  2720  0C2B  00B3               	movwf	(??_I2C1_Init^(0+128)+1)
  2721  0C2C  0830               	movf	(I2C1_Init@freq+2)^(0+128),w
  2722  0C2D  00B4               	movwf	(??_I2C1_Init^(0+128)+2)
  2723  0C2E  0831               	movf	(I2C1_Init@freq+3)^(0+128),w
  2724  0C2F  00B5               	movwf	(??_I2C1_Init^(0+128)+3)
  2725  0C30  3002               	movlw	2
  2726  0C31                     u2015:	
  2727  0C31  1003               	clrc
  2728  0C32  0DB2               	rlf	??_I2C1_Init^(0+128),f
  2729  0C33  0DB3               	rlf	(??_I2C1_Init^(0+128)+1),f
  2730  0C34  0DB4               	rlf	(??_I2C1_Init^(0+128)+2),f
  2731  0C35  0DB5               	rlf	(??_I2C1_Init^(0+128)+3),f
  2732  0C36                     u2010:	
  2733  0C36  3EFF               	addlw	-1
  2734  0C37  1D03               	skipz
  2735  0C38  2C31               	goto	u2015
  2736  0C39  0835               	movf	(??_I2C1_Init+3)^(0+128),w
  2737  0C3A  00A3               	movwf	(___lldiv@divisor+3)^(0+128)
  2738  0C3B  0834               	movf	(??_I2C1_Init+2)^(0+128),w
  2739  0C3C  00A2               	movwf	(___lldiv@divisor+2)^(0+128)
  2740  0C3D  0833               	movf	(??_I2C1_Init+1)^(0+128),w
  2741  0C3E  00A1               	movwf	(___lldiv@divisor+1)^(0+128)
  2742  0C3F  0832               	movf	??_I2C1_Init^(0+128),w
  2743  0C40  00A0               	movwf	___lldiv@divisor^(0+128)
  2744  0C41  3000               	movlw	0
  2745  0C42  00A7               	movwf	(___lldiv@dividend+3)^(0+128)
  2746  0C43  307A               	movlw	122
  2747  0C44  00A6               	movwf	(___lldiv@dividend+2)^(0+128)
  2748  0C45  3012               	movlw	18
  2749  0C46  00A5               	movwf	(___lldiv@dividend+1)^(0+128)
  2750  0C47  3000               	movlw	0
  2751  0C48  00A4               	movwf	___lldiv@dividend^(0+128)
  2752  0C49  120A  158A  26B0  120A  158A  	fcall	___lldiv
  2753  0C4E  1683               	bsf	3,5	;RP0=1, select bank1
  2754  0C4F  1303               	bcf	3,6	;RP1=0, select bank1
  2755  0C50  0820               	movf	?___lldiv^(0+128),w
  2756  0C51  3EFF               	addlw	255
  2757  0C52  0093               	movwf	19	;volatile
  2758  0C53                     l2505:	
  2759                           
  2760                           ;I2C_drive.c: 22:     TRISC |= (1 << 3);
  2761  0C53  1587               	bsf	7,3	;volatile
  2762  0C54                     l2507:	
  2763                           
  2764                           ;I2C_drive.c: 23:     TRISC |= (1 << 4);
  2765  0C54  1607               	bsf	7,4	;volatile
  2766  0C55                     l130:	
  2767  0C55  0008               	return
  2768  0C56                     __end_of_I2C1_Init:	
  2769                           
  2770                           	psect	text19
  2771  0EB0                     __ptext19:	
  2772 ;; *************** function ___lldiv *****************
  2773 ;; Defined at:
  2774 ;;		line 5 in file "C:\Program Files (x86)\Microchip\xc8\v2.10\pic\sources\c90\common\__lldiv.c"
  2775 ;; Parameters:    Size  Location     Type
  2776 ;;  divisor         4    0[BANK1 ] unsigned long 
  2777 ;;  dividend        4    4[BANK1 ] unsigned long 
  2778 ;; Auto vars:     Size  Location     Type
  2779 ;;  quotient        4    9[BANK1 ] unsigned long 
  2780 ;;  counter         1   13[BANK1 ] unsigned char 
  2781 ;; Return value:  Size  Location     Type
  2782 ;;                  4    0[BANK1 ] unsigned long 
  2783 ;; Registers used:
  2784 ;;		wreg, status,2, status,0
  2785 ;; Tracked objects:
  2786 ;;		On entry : 0/0
  2787 ;;		On exit  : 0/0
  2788 ;;		Unchanged: 0/0
  2789 ;; Data sizes:     COMMON   BANK0   BANK1   BANK3   BANK2
  2790 ;;      Params:         0       0       8       0       0
  2791 ;;      Locals:         0       0       5       0       0
  2792 ;;      Temps:          0       0       1       0       0
  2793 ;;      Totals:         0       0      14       0       0
  2794 ;;Total ram usage:       14 bytes
  2795 ;; Hardware stack levels used:    1
  2796 ;; Hardware stack levels required when called:    5
  2797 ;; This function calls:
  2798 ;;		Nothing
  2799 ;; This function is called by:
  2800 ;;		_I2C1_Init
  2801 ;; This function uses a non-reentrant model
  2802 ;;
  2803                           
  2804                           
  2805                           ;psect for function ___lldiv
  2806  0EB0                     ___lldiv:	
  2807  0EB0                     l2291:	
  2808                           ;incstack = 0
  2809                           ; Regs used in ___lldiv: [wreg+status,2+status,0]
  2810                           
  2811  0EB0  3000               	movlw	0
  2812  0EB1  1683               	bsf	3,5	;RP0=1, select bank1
  2813  0EB2  1303               	bcf	3,6	;RP1=0, select bank1
  2814  0EB3  00AC               	movwf	(___lldiv@quotient+3)^(0+128)
  2815  0EB4  3000               	movlw	0
  2816  0EB5  00AB               	movwf	(___lldiv@quotient+2)^(0+128)
  2817  0EB6  3000               	movlw	0
  2818  0EB7  00AA               	movwf	(___lldiv@quotient+1)^(0+128)
  2819  0EB8  3000               	movlw	0
  2820  0EB9  00A9               	movwf	___lldiv@quotient^(0+128)
  2821  0EBA  0823               	movf	(___lldiv@divisor+3)^(0+128),w
  2822  0EBB  0422               	iorwf	(___lldiv@divisor+2)^(0+128),w
  2823  0EBC  0421               	iorwf	(___lldiv@divisor+1)^(0+128),w
  2824  0EBD  0420               	iorwf	___lldiv@divisor^(0+128),w
  2825  0EBE  1903               	skipnz
  2826  0EBF  2EC1               	goto	u1621
  2827  0EC0  2EC2               	goto	u1620
  2828  0EC1                     u1621:	
  2829  0EC1  2F0F               	goto	l2311
  2830  0EC2                     u1620:	
  2831  0EC2                     l2293:	
  2832  0EC2  01AD               	clrf	___lldiv@counter^(0+128)
  2833  0EC3  0AAD               	incf	___lldiv@counter^(0+128),f
  2834  0EC4  2ED2               	goto	l2297
  2835  0EC5                     l2295:	
  2836  0EC5  3001               	movlw	1
  2837  0EC6  00A8               	movwf	??___lldiv^(0+128)
  2838  0EC7                     u1635:	
  2839  0EC7  1003               	clrc
  2840  0EC8  0DA0               	rlf	___lldiv@divisor^(0+128),f
  2841  0EC9  0DA1               	rlf	(___lldiv@divisor+1)^(0+128),f
  2842  0ECA  0DA2               	rlf	(___lldiv@divisor+2)^(0+128),f
  2843  0ECB  0DA3               	rlf	(___lldiv@divisor+3)^(0+128),f
  2844  0ECC  0BA8               	decfsz	??___lldiv^(0+128),f
  2845  0ECD  2EC7               	goto	u1635
  2846  0ECE  3001               	movlw	1
  2847  0ECF  00A8               	movwf	??___lldiv^(0+128)
  2848  0ED0  0828               	movf	??___lldiv^(0+128),w
  2849  0ED1  07AD               	addwf	___lldiv@counter^(0+128),f
  2850  0ED2                     l2297:	
  2851  0ED2  1FA3               	btfss	(___lldiv@divisor+3)^(0+128),7
  2852  0ED3  2ED5               	goto	u1641
  2853  0ED4  2ED6               	goto	u1640
  2854  0ED5                     u1641:	
  2855  0ED5  2EC5               	goto	l2295
  2856  0ED6                     u1640:	
  2857  0ED6                     l2299:	
  2858  0ED6  3001               	movlw	1
  2859  0ED7  00A8               	movwf	??___lldiv^(0+128)
  2860  0ED8                     u1655:	
  2861  0ED8  1003               	clrc
  2862  0ED9  0DA9               	rlf	___lldiv@quotient^(0+128),f
  2863  0EDA  0DAA               	rlf	(___lldiv@quotient+1)^(0+128),f
  2864  0EDB  0DAB               	rlf	(___lldiv@quotient+2)^(0+128),f
  2865  0EDC  0DAC               	rlf	(___lldiv@quotient+3)^(0+128),f
  2866  0EDD  0BA8               	decfsz	??___lldiv^(0+128),f
  2867  0EDE  2ED8               	goto	u1655
  2868  0EDF                     l2301:	
  2869  0EDF  0823               	movf	(___lldiv@divisor+3)^(0+128),w
  2870  0EE0  0227               	subwf	(___lldiv@dividend+3)^(0+128),w
  2871  0EE1  1D03               	skipz
  2872  0EE2  2EED               	goto	u1665
  2873  0EE3  0822               	movf	(___lldiv@divisor+2)^(0+128),w
  2874  0EE4  0226               	subwf	(___lldiv@dividend+2)^(0+128),w
  2875  0EE5  1D03               	skipz
  2876  0EE6  2EED               	goto	u1665
  2877  0EE7  0821               	movf	(___lldiv@divisor+1)^(0+128),w
  2878  0EE8  0225               	subwf	(___lldiv@dividend+1)^(0+128),w
  2879  0EE9  1D03               	skipz
  2880  0EEA  2EED               	goto	u1665
  2881  0EEB  0820               	movf	___lldiv@divisor^(0+128),w
  2882  0EEC  0224               	subwf	___lldiv@dividend^(0+128),w
  2883  0EED                     u1665:	
  2884  0EED  1C03               	skipc
  2885  0EEE  2EF0               	goto	u1661
  2886  0EEF  2EF1               	goto	u1660
  2887  0EF0                     u1661:	
  2888  0EF0  2F00               	goto	l2307
  2889  0EF1                     u1660:	
  2890  0EF1                     l2303:	
  2891  0EF1  0820               	movf	___lldiv@divisor^(0+128),w
  2892  0EF2  02A4               	subwf	___lldiv@dividend^(0+128),f
  2893  0EF3  0821               	movf	(___lldiv@divisor+1)^(0+128),w
  2894  0EF4  1C03               	skipc
  2895  0EF5  0F21               	incfsz	(___lldiv@divisor+1)^(0+128),w
  2896  0EF6  02A5               	subwf	(___lldiv@dividend+1)^(0+128),f
  2897  0EF7  0822               	movf	(___lldiv@divisor+2)^(0+128),w
  2898  0EF8  1C03               	skipc
  2899  0EF9  0F22               	incfsz	(___lldiv@divisor+2)^(0+128),w
  2900  0EFA  02A6               	subwf	(___lldiv@dividend+2)^(0+128),f
  2901  0EFB  0823               	movf	(___lldiv@divisor+3)^(0+128),w
  2902  0EFC  1C03               	skipc
  2903  0EFD  0F23               	incfsz	(___lldiv@divisor+3)^(0+128),w
  2904  0EFE  02A7               	subwf	(___lldiv@dividend+3)^(0+128),f
  2905  0EFF                     l2305:	
  2906  0EFF  1429               	bsf	___lldiv@quotient^(0+128),0
  2907  0F00                     l2307:	
  2908  0F00  3001               	movlw	1
  2909  0F01                     u1675:	
  2910  0F01  1003               	clrc
  2911  0F02  0CA3               	rrf	(___lldiv@divisor+3)^(0+128),f
  2912  0F03  0CA2               	rrf	(___lldiv@divisor+2)^(0+128),f
  2913  0F04  0CA1               	rrf	(___lldiv@divisor+1)^(0+128),f
  2914  0F05  0CA0               	rrf	___lldiv@divisor^(0+128),f
  2915  0F06  3EFF               	addlw	-1
  2916  0F07  1D03               	skipz
  2917  0F08  2F01               	goto	u1675
  2918  0F09                     l2309:	
  2919  0F09  3001               	movlw	1
  2920  0F0A  02AD               	subwf	___lldiv@counter^(0+128),f
  2921  0F0B  1D03               	btfss	3,2
  2922  0F0C  2F0E               	goto	u1681
  2923  0F0D  2F0F               	goto	u1680
  2924  0F0E                     u1681:	
  2925  0F0E  2ED6               	goto	l2299
  2926  0F0F                     u1680:	
  2927  0F0F                     l2311:	
  2928  0F0F  082C               	movf	(___lldiv@quotient+3)^(0+128),w
  2929  0F10  00A3               	movwf	(?___lldiv+3)^(0+128)
  2930  0F11  082B               	movf	(___lldiv@quotient+2)^(0+128),w
  2931  0F12  00A2               	movwf	(?___lldiv+2)^(0+128)
  2932  0F13  082A               	movf	(___lldiv@quotient+1)^(0+128),w
  2933  0F14  00A1               	movwf	(?___lldiv+1)^(0+128)
  2934  0F15  0829               	movf	___lldiv@quotient^(0+128),w
  2935  0F16  00A0               	movwf	?___lldiv^(0+128)
  2936  0F17                     l493:	
  2937  0F17  0008               	return
  2938  0F18                     __end_of___lldiv:	
  2939                           
  2940                           	psect	text20
  2941  06F2                     __ptext20:	
  2942 ;; *************** function _isr *****************
  2943 ;; Defined at:
  2944 ;;		line 75 in file "main_app.c"
  2945 ;; Parameters:    Size  Location     Type
  2946 ;;		None
  2947 ;; Auto vars:     Size  Location     Type
  2948 ;;		None
  2949 ;; Return value:  Size  Location     Type
  2950 ;;                  1    wreg      void 
  2951 ;; Registers used:
  2952 ;;		wreg, fsr0l, fsr0h, status,2, status,0, btemp+1, pclath, cstack
  2953 ;; Tracked objects:
  2954 ;;		On entry : 0/0
  2955 ;;		On exit  : 0/0
  2956 ;;		Unchanged: 0/0
  2957 ;; Data sizes:     COMMON   BANK0   BANK1   BANK3   BANK2
  2958 ;;      Params:         0       0       0       0       0
  2959 ;;      Locals:         0       0       0       0       0
  2960 ;;      Temps:          0       6       0       0       0
  2961 ;;      Totals:         0       6       0       0       0
  2962 ;;Total ram usage:        6 bytes
  2963 ;; Hardware stack levels used:    1
  2964 ;; Hardware stack levels required when called:    4
  2965 ;; This function calls:
  2966 ;;		_led
  2967 ;;		_ssd_blink
  2968 ;;		_ssd_update
  2969 ;;		_start_timer
  2970 ;;		_sw_action
  2971 ;;		_switch_scan
  2972 ;;		_temp_sensor_read
  2973 ;;		_temp_set
  2974 ;;		i1_ssd_turn_off
  2975 ;;		i1_stop_timer
  2976 ;;		i1_temp_control_off
  2977 ;; This function is called by:
  2978 ;;		Interrupt level 1
  2979 ;; This function uses a non-reentrant model
  2980 ;;
  2981                           
  2982                           
  2983                           ;psect for function _isr
  2984  06F2                     _isr:	
  2985  06F2                     i1l3137:	
  2986                           
  2987                           ;main_app.c: 76:     TMR2 = 131 ;
  2988  06F2  3083               	movlw	131
  2989  06F3  0091               	movwf	17	;volatile
  2990  06F4                     i1l3139:	
  2991                           
  2992                           ;main_app.c: 78:     if(PIR1 & (1 << 1)){
  2993  06F4  1C8C               	btfss	12,1	;volatile
  2994  06F5  2EF7               	goto	u312_21
  2995  06F6  2EF8               	goto	u312_20
  2996  06F7                     u312_21:	
  2997  06F7  2F48               	goto	i1l69
  2998  06F8                     u312_20:	
  2999  06F8                     i1l3141:	
  3000                           
  3001                           ;main_app.c: 79:        (PIR1 &= ~(1 << 1));
  3002  06F8  30FD               	movlw	253
  3003  06F9  00D0               	movwf	??_isr
  3004  06FA  0850               	movf	??_isr,w
  3005  06FB  058C               	andwf	12,f	;volatile
  3006                           
  3007                           ;main_app.c: 80:        switch (mode){
  3008  06FC  2F38               	goto	i1l3163
  3009  06FD                     i1l3143:	
  3010                           
  3011                           ;main_app.c: 84:                 hold_temp = temp_sensor_read ();
  3012  06FD  120A  118A  257A  120A  118A  	fcall	_temp_sensor_read
  3013  0702  1283               	bcf	3,5	;RP0=0, select bank0
  3014  0703  1303               	bcf	3,6	;RP1=0, select bank0
  3015  0704  00D0               	movwf	??_isr
  3016  0705  0850               	movf	??_isr,w
  3017  0706  00E4               	movwf	_hold_temp
  3018  0707                     i1l3145:	
  3019                           
  3020                           ;main_app.c: 85:                 ssd_update(hold_temp);
  3021  0707  0864               	movf	_hold_temp,w
  3022  0708  120A  118A  2789  120A  118A  	fcall	_ssd_update
  3023  070D                     i1l3147:	
  3024                           
  3025                           ;main_app.c: 86:                 temp_set (hold_temp);
  3026  070D  1283               	bcf	3,5	;RP0=0, select bank0
  3027  070E  1303               	bcf	3,6	;RP1=0, select bank0
  3028  070F  0864               	movf	_hold_temp,w
  3029  0710  120A  158A  24DC  120A  118A  	fcall	_temp_set
  3030  0715                     i1l3149:	
  3031                           
  3032                           ;main_app.c: 87:                 led();
  3033  0715  120A  158A  23EE  120A  118A  	fcall	_led
  3034  071A                     i1l3151:	
  3035                           
  3036                           ;main_app.c: 88:                 switch_scan();
  3037  071A  120A  158A  2269  120A  118A  	fcall	_switch_scan
  3038  071F                     i1l3153:	
  3039                           
  3040                           ;main_app.c: 89:                 sw_action();
  3041  071F  120A  158A  2718  120A  118A  	fcall	_sw_action
  3042                           
  3043                           ;main_app.c: 90:                 break;
  3044  0724  2F48               	goto	i1l69
  3045  0725                     i1l3155:	
  3046                           
  3047                           ;main_app.c: 94:                 switch_scan();
  3048  0725  120A  158A  2269  120A  118A  	fcall	_switch_scan
  3049  072A                     i1l3157:	
  3050                           
  3051                           ;main_app.c: 95:                 sw_action();
  3052  072A  120A  158A  2718  120A  118A  	fcall	_sw_action
  3053  072F                     i1l3159:	
  3054                           
  3055                           ;main_app.c: 96:                 ssd_blink(set_temp);
  3056  072F  1283               	bcf	3,5	;RP0=0, select bank0
  3057  0730  1303               	bcf	3,6	;RP1=0, select bank0
  3058  0731  0865               	movf	_set_temp,w
  3059  0732  120A  158A  2456  120A  118A  	fcall	_ssd_blink
  3060                           
  3061                           ;main_app.c: 97:                 break;
  3062  0737  2F48               	goto	i1l69
  3063  0738                     i1l3163:	
  3064  0738  0863               	movf	_mode,w
  3065  0739  00D0               	movwf	??_isr
  3066  073A  01D1               	clrf	??_isr+1
  3067                           
  3068                           ; Switch on 2 bytes has been partitioned into a top level switch of size 1, and 1 sub-sw
      +                          itches
  3069                           ; Switch size 1, requested type "simple"
  3070                           ; Number of cases is 1, Range of values is 0 to 0
  3071                           ; switch strategies available:
  3072                           ; Name         Instructions Cycles
  3073                           ; simple_byte            4     3 (average)
  3074                           ; direct_byte           11     8 (fixed)
  3075                           ; jumptable            260     6 (fixed)
  3076                           ;	Chosen strategy is simple_byte
  3077  073B  0851               	movf	??_isr+1,w
  3078  073C  3A00               	xorlw	0	; case 0
  3079  073D  1903               	skipnz
  3080  073E  2F40               	goto	i1l3343
  3081  073F  2F48               	goto	i1l69
  3082  0740                     i1l3343:	
  3083                           
  3084                           ; Switch size 1, requested type "simple"
  3085                           ; Number of cases is 2, Range of values is 0 to 1
  3086                           ; switch strategies available:
  3087                           ; Name         Instructions Cycles
  3088                           ; simple_byte            7     4 (average)
  3089                           ; direct_byte           14     8 (fixed)
  3090                           ; jumptable            260     6 (fixed)
  3091                           ;	Chosen strategy is simple_byte
  3092  0740  0850               	movf	??_isr,w
  3093  0741  3A00               	xorlw	0	; case 0
  3094  0742  1903               	skipnz
  3095  0743  2EFD               	goto	i1l3143
  3096  0744  3A01               	xorlw	1	; case 1
  3097  0745  1903               	skipnz
  3098  0746  2F25               	goto	i1l3155
  3099  0747  2F48               	goto	i1l69
  3100  0748                     i1l69:	
  3101                           ;main_app.c: 102:     }
  3102                           
  3103                           
  3104                           ;main_app.c: 105:     if (INTCON & (1 << 1)){
  3105  0748  1C8B               	btfss	11,1	;volatile
  3106  0749  2F4B               	goto	u313_21
  3107  074A  2F4C               	goto	u313_20
  3108  074B                     u313_21:	
  3109  074B  2F7C               	goto	i1l80
  3110  074C                     u313_20:	
  3111  074C                     i1l3165:	
  3112                           
  3113                           ;main_app.c: 106:         (INTCON &= ~(1 << 1));
  3114  074C  30FD               	movlw	253
  3115  074D  1283               	bcf	3,5	;RP0=0, select bank0
  3116  074E  1303               	bcf	3,6	;RP1=0, select bank0
  3117  074F  00D0               	movwf	??_isr
  3118  0750  0850               	movf	??_isr,w
  3119  0751  058B               	andwf	11,f	;volatile
  3120                           
  3121                           ;main_app.c: 107:         switch (power_mode){
  3122  0752  2F6C               	goto	i1l3175
  3123  0753                     i1l77:	
  3124                           ;main_app.c: 109:             case ON_STATE :
  3125                           
  3126                           
  3127                           ;main_app.c: 110:                 power_mode = OFF_STATE ;
  3128  0753  01EB               	clrf	_power_mode
  3129  0754  0AEB               	incf	_power_mode,f
  3130  0755                     i1l3167:	
  3131                           
  3132                           ;main_app.c: 111:                 stop_timer();
  3133  0755  120A  158A  2197  120A  118A  	fcall	i1_stop_timer
  3134                           
  3135                           ;main_app.c: 112:                 ssd_turn_off();
  3136  075A  120A  158A  21DA  120A  118A  	fcall	i1_ssd_turn_off
  3137                           
  3138                           ;main_app.c: 113:                 temp_control_off();
  3139  075F  120A  158A  222F  120A  118A  	fcall	i1_temp_control_off
  3140                           
  3141                           ;main_app.c: 114:                 break;
  3142  0764  2F7C               	goto	i1l80
  3143  0765                     i1l3169:	
  3144                           
  3145                           ;main_app.c: 117:                 power_mode = ON_STATE ;
  3146  0765  01EB               	clrf	_power_mode
  3147  0766                     i1l3171:	
  3148                           
  3149                           ;main_app.c: 118:                 start_timer();
  3150  0766  120A  158A  2191  120A  118A  	fcall	_start_timer
  3151                           
  3152                           ;main_app.c: 119:                 break;
  3153  076B  2F7C               	goto	i1l80
  3154  076C                     i1l3175:	
  3155  076C  086B               	movf	_power_mode,w
  3156  076D  00D0               	movwf	??_isr
  3157  076E  01D1               	clrf	??_isr+1
  3158                           
  3159                           ; Switch on 2 bytes has been partitioned into a top level switch of size 1, and 1 sub-sw
      +                          itches
  3160                           ; Switch size 1, requested type "simple"
  3161                           ; Number of cases is 1, Range of values is 0 to 0
  3162                           ; switch strategies available:
  3163                           ; Name         Instructions Cycles
  3164                           ; simple_byte            4     3 (average)
  3165                           ; direct_byte           11     8 (fixed)
  3166                           ; jumptable            260     6 (fixed)
  3167                           ;	Chosen strategy is simple_byte
  3168  076F  0851               	movf	??_isr+1,w
  3169  0770  3A00               	xorlw	0	; case 0
  3170  0771  1903               	skipnz
  3171  0772  2F74               	goto	i1l3345
  3172  0773  2F7C               	goto	i1l80
  3173  0774                     i1l3345:	
  3174                           
  3175                           ; Switch size 1, requested type "simple"
  3176                           ; Number of cases is 2, Range of values is 0 to 1
  3177                           ; switch strategies available:
  3178                           ; Name         Instructions Cycles
  3179                           ; simple_byte            7     4 (average)
  3180                           ; direct_byte           14     8 (fixed)
  3181                           ; jumptable            260     6 (fixed)
  3182                           ;	Chosen strategy is simple_byte
  3183  0774  0850               	movf	??_isr,w
  3184  0775  3A00               	xorlw	0	; case 0
  3185  0776  1903               	skipnz
  3186  0777  2F53               	goto	i1l77
  3187  0778  3A01               	xorlw	1	; case 1
  3188  0779  1903               	skipnz
  3189  077A  2F65               	goto	i1l3169
  3190  077B  2F7C               	goto	i1l80
  3191  077C                     i1l80:	
  3192  077C  1283               	bcf	3,5	;RP0=0, select bank0
  3193  077D  1303               	bcf	3,6	;RP1=0, select bank0
  3194  077E  0855               	movf	??_isr+5,w
  3195  077F  00FF               	movwf	btemp+1
  3196  0780  0854               	movf	??_isr+4,w
  3197  0781  008A               	movwf	10
  3198  0782  0853               	movf	??_isr+3,w
  3199  0783  0084               	movwf	4
  3200  0784  0E52               	swapf	(??_isr+2)^0,w
  3201  0785  0083               	movwf	3
  3202  0786  0EFE               	swapf	btemp,f
  3203  0787  0E7E               	swapf	btemp,w
  3204  0788  0009               	retfie
  3205  0789                     __end_of_isr:	
  3206                           
  3207                           	psect	intentry
  3208  0004                     __pintentry:	
  3209                           ;incstack = 0
  3210                           ; Regs used in _isr: [wreg-fsr0h+status,2+status,0+btemp+1+pclath+cstack]
  3211                           
  3212  0004                     interrupt_function:	
  3213  007E                     saved_w	set	btemp
  3214  0004  00FE               	movwf	btemp
  3215  0005  0E03               	swapf	3,w
  3216  0006  1283               	bcf	3,5	;RP0=0, select bank0
  3217  0007  1303               	bcf	3,6	;RP1=0, select bank0
  3218  0008  00D2               	movwf	??_isr+2
  3219  0009  0804               	movf	4,w
  3220  000A  00D3               	movwf	??_isr+3
  3221  000B  080A               	movf	10,w
  3222  000C  00D4               	movwf	??_isr+4
  3223  000D  087F               	movf	btemp+1,w
  3224  000E  00D5               	movwf	??_isr+5
  3225  000F  120A  118A  2EF2   	ljmp	_isr
  3226                           
  3227                           	psect	text21
  3228  0A2F                     __ptext21:	
  3229 ;; *************** function i1_temp_control_off *****************
  3230 ;; Defined at:
  3231 ;;		line 87 in file "temp_control.c"
  3232 ;; Parameters:    Size  Location     Type
  3233 ;;		None
  3234 ;; Auto vars:     Size  Location     Type
  3235 ;;		None
  3236 ;; Return value:  Size  Location     Type
  3237 ;;                  1    wreg      void 
  3238 ;; Registers used:
  3239 ;;		wreg, status,2, status,0
  3240 ;; Tracked objects:
  3241 ;;		On entry : 0/0
  3242 ;;		On exit  : 0/0
  3243 ;;		Unchanged: 0/0
  3244 ;; Data sizes:     COMMON   BANK0   BANK1   BANK3   BANK2
  3245 ;;      Params:         0       0       0       0       0
  3246 ;;      Locals:         0       0       0       0       0
  3247 ;;      Temps:          1       0       0       0       0
  3248 ;;      Totals:         1       0       0       0       0
  3249 ;;Total ram usage:        1 bytes
  3250 ;; Hardware stack levels used:    1
  3251 ;; This function calls:
  3252 ;;		Nothing
  3253 ;; This function is called by:
  3254 ;;		_isr
  3255 ;; This function uses a non-reentrant model
  3256 ;;
  3257                           
  3258                           
  3259                           ;psect for function i1_temp_control_off
  3260  0A2F                     i1_temp_control_off:	
  3261  0A2F                     i1l3131:	
  3262                           ;incstack = 0
  3263                           ; Regs used in i1_temp_control_off: [wreg+status,2+status,0]
  3264                           
  3265                           
  3266                           ;temp_control.c: 88:      (PORTC &= ~(1 << 5));
  3267  0A2F  30DF               	movlw	223
  3268  0A30  00F0               	movwf	??i1_temp_control_off
  3269  0A31  0870               	movf	??i1_temp_control_off,w
  3270  0A32  1283               	bcf	3,5	;RP0=0, select bank0
  3271  0A33  1303               	bcf	3,6	;RP1=0, select bank0
  3272  0A34  0587               	andwf	7,f	;volatile
  3273                           
  3274                           ;temp_control.c: 89:      (PORTC &= ~(1 << 2));
  3275  0A35  30FB               	movlw	251
  3276  0A36  00F0               	movwf	??i1_temp_control_off
  3277  0A37  0870               	movf	??i1_temp_control_off,w
  3278  0A38  0587               	andwf	7,f	;volatile
  3279                           
  3280                           ;temp_control.c: 90:      (PORTB &= ~(1 << 4));
  3281  0A39  30EF               	movlw	239
  3282  0A3A  00F0               	movwf	??i1_temp_control_off
  3283  0A3B  0870               	movf	??i1_temp_control_off,w
  3284  0A3C  0586               	andwf	6,f	;volatile
  3285  0A3D                     i1l3133:	
  3286                           
  3287                           ;temp_control.c: 91:      led_timer = 0 ;
  3288  0A3D  01D6               	clrf	_led_timer
  3289  0A3E  01D7               	clrf	_led_timer+1
  3290  0A3F                     i1l321:	
  3291  0A3F  0008               	return
  3292  0A40                     __end_ofi1_temp_control_off:	
  3293                           
  3294                           	psect	text22
  3295  0997                     __ptext22:	
  3296 ;; *************** function i1_stop_timer *****************
  3297 ;; Defined at:
  3298 ;;		line 25 in file "timer2.c"
  3299 ;; Parameters:    Size  Location     Type
  3300 ;;		None
  3301 ;; Auto vars:     Size  Location     Type
  3302 ;;		None
  3303 ;; Return value:  Size  Location     Type
  3304 ;;                  1    wreg      void 
  3305 ;; Registers used:
  3306 ;;		wreg, status,2, status,0
  3307 ;; Tracked objects:
  3308 ;;		On entry : 0/0
  3309 ;;		On exit  : 0/0
  3310 ;;		Unchanged: 0/0
  3311 ;; Data sizes:     COMMON   BANK0   BANK1   BANK3   BANK2
  3312 ;;      Params:         0       0       0       0       0
  3313 ;;      Locals:         0       0       0       0       0
  3314 ;;      Temps:          1       0       0       0       0
  3315 ;;      Totals:         1       0       0       0       0
  3316 ;;Total ram usage:        1 bytes
  3317 ;; Hardware stack levels used:    1
  3318 ;; This function calls:
  3319 ;;		Nothing
  3320 ;; This function is called by:
  3321 ;;		_isr
  3322 ;; This function uses a non-reentrant model
  3323 ;;
  3324                           
  3325                           
  3326                           ;psect for function i1_stop_timer
  3327  0997                     i1_stop_timer:	
  3328  0997                     i1l3135:	
  3329                           ;incstack = 0
  3330                           ; Regs used in i1_stop_timer: [wreg+status,2+status,0]
  3331                           
  3332                           
  3333                           ;timer2.c: 26:     (T2CON &= ~(1 << 2)) ;
  3334  0997  30FB               	movlw	251
  3335  0998  00F0               	movwf	??i1_stop_timer
  3336  0999  0870               	movf	??i1_stop_timer,w
  3337  099A  1283               	bcf	3,5	;RP0=0, select bank0
  3338  099B  1303               	bcf	3,6	;RP1=0, select bank0
  3339  099C  0592               	andwf	18,f	;volatile
  3340  099D                     i1l365:	
  3341  099D  0008               	return
  3342  099E                     __end_ofi1_stop_timer:	
  3343                           
  3344                           	psect	text23
  3345  0CDC                     __ptext23:	
  3346 ;; *************** function _temp_set *****************
  3347 ;; Defined at:
  3348 ;;		line 32 in file "temp_control.c"
  3349 ;; Parameters:    Size  Location     Type
  3350 ;;  temp            1    wreg     unsigned char 
  3351 ;; Auto vars:     Size  Location     Type
  3352 ;;  temp            1    3[COMMON] unsigned char 
  3353 ;; Return value:  Size  Location     Type
  3354 ;;                  1    wreg      void 
  3355 ;; Registers used:
  3356 ;;		wreg, status,2, status,0
  3357 ;; Tracked objects:
  3358 ;;		On entry : 0/0
  3359 ;;		On exit  : 0/0
  3360 ;;		Unchanged: 0/0
  3361 ;; Data sizes:     COMMON   BANK0   BANK1   BANK3   BANK2
  3362 ;;      Params:         0       0       0       0       0
  3363 ;;      Locals:         1       0       0       0       0
  3364 ;;      Temps:          3       0       0       0       0
  3365 ;;      Totals:         4       0       0       0       0
  3366 ;;Total ram usage:        4 bytes
  3367 ;; Hardware stack levels used:    1
  3368 ;; This function calls:
  3369 ;;		Nothing
  3370 ;; This function is called by:
  3371 ;;		_isr
  3372 ;; This function uses a non-reentrant model
  3373 ;;
  3374                           
  3375                           
  3376                           ;psect for function _temp_set
  3377  0CDC                     _temp_set:	
  3378                           
  3379                           ;incstack = 0
  3380                           ; Regs used in _temp_set: [wreg+status,2+status,0]
  3381                           ;temp_set@temp stored from wreg
  3382  0CDC  00F3               	movwf	temp_set@temp
  3383  0CDD                     i1l2939:	
  3384                           
  3385                           ;temp_control.c: 33:     if ( temp < (set_temp - 5 ) ){
  3386  0CDD  1283               	bcf	3,5	;RP0=0, select bank0
  3387  0CDE  1303               	bcf	3,6	;RP1=0, select bank0
  3388  0CDF  0865               	movf	_set_temp,w
  3389  0CE0  3EFB               	addlw	251
  3390  0CE1  00F0               	movwf	??_temp_set
  3391  0CE2  30FF               	movlw	255
  3392  0CE3  1803               	skipnc
  3393  0CE4  3000               	movlw	0
  3394  0CE5  00F1               	movwf	??_temp_set+1
  3395  0CE6  0871               	movf	??_temp_set+1,w
  3396  0CE7  3A80               	xorlw	128
  3397  0CE8  3C80               	sublw	128
  3398  0CE9  1D03               	skipz
  3399  0CEA  2CED               	goto	u296_25
  3400  0CEB  0870               	movf	??_temp_set,w
  3401  0CEC  0273               	subwf	temp_set@temp,w
  3402  0CED                     u296_25:	
  3403  0CED  1803               	skipnc
  3404  0CEE  2CF0               	goto	u296_21
  3405  0CEF  2CF1               	goto	u296_20
  3406  0CF0                     u296_21:	
  3407  0CF0  2CFA               	goto	i1l2947
  3408  0CF1                     u296_20:	
  3409  0CF1                     i1l2941:	
  3410                           
  3411                           ;temp_control.c: 34:         (PORTC |= (1 << 5));
  3412  0CF1  1283               	bcf	3,5	;RP0=0, select bank0
  3413  0CF2  1303               	bcf	3,6	;RP1=0, select bank0
  3414  0CF3  1687               	bsf	7,5	;volatile
  3415  0CF4                     i1l2943:	
  3416                           
  3417                           ;temp_control.c: 35:         (PORTC &= ~(1 << 2));
  3418  0CF4  30FB               	movlw	251
  3419  0CF5  00F0               	movwf	??_temp_set
  3420  0CF6  0870               	movf	??_temp_set,w
  3421  0CF7  0587               	andwf	7,f	;volatile
  3422  0CF8                     i1l2945:	
  3423                           
  3424                           ;temp_control.c: 36:         state = HEATER_ON ;
  3425  0CF8  01DE               	clrf	_state
  3426                           
  3427                           ;temp_control.c: 37:     }
  3428  0CF9  2D2F               	goto	i1l308
  3429  0CFA                     i1l2947:	
  3430  0CFA  1283               	bcf	3,5	;RP0=0, select bank0
  3431  0CFB  1303               	bcf	3,6	;RP1=0, select bank0
  3432  0CFC  0865               	movf	_set_temp,w
  3433  0CFD  3E05               	addlw	5
  3434  0CFE  00F0               	movwf	??_temp_set
  3435  0CFF  3000               	movlw	0
  3436  0D00  1803               	skipnc
  3437  0D01  3001               	movlw	1
  3438  0D02  00F1               	movwf	??_temp_set+1
  3439  0D03  0871               	movf	??_temp_set+1,w
  3440  0D04  3A80               	xorlw	128
  3441  0D05  00F2               	movwf	??_temp_set+2
  3442  0D06  3080               	movlw	128
  3443  0D07  0272               	subwf	??_temp_set+2,w
  3444  0D08  1D03               	skipz
  3445  0D09  2D0C               	goto	u297_25
  3446  0D0A  0873               	movf	temp_set@temp,w
  3447  0D0B  0270               	subwf	??_temp_set,w
  3448  0D0C                     u297_25:	
  3449  0D0C  1803               	skipnc
  3450  0D0D  2D0F               	goto	u297_21
  3451  0D0E  2D10               	goto	u297_20
  3452  0D0F                     u297_21:	
  3453  0D0F  2D1A               	goto	i1l2955
  3454  0D10                     u297_20:	
  3455  0D10                     i1l2949:	
  3456                           
  3457                           ;temp_control.c: 39:         (PORTC |= (1 << 2));
  3458  0D10  1283               	bcf	3,5	;RP0=0, select bank0
  3459  0D11  1303               	bcf	3,6	;RP1=0, select bank0
  3460  0D12  1507               	bsf	7,2	;volatile
  3461  0D13                     i1l2951:	
  3462                           
  3463                           ;temp_control.c: 40:         (PORTC &= ~(1 << 5));
  3464  0D13  30DF               	movlw	223
  3465  0D14  00F0               	movwf	??_temp_set
  3466  0D15  0870               	movf	??_temp_set,w
  3467  0D16  0587               	andwf	7,f	;volatile
  3468  0D17                     i1l2953:	
  3469                           
  3470                           ;temp_control.c: 41:         state = COOLER_ON ;
  3471  0D17  01DE               	clrf	_state
  3472  0D18  0ADE               	incf	_state,f
  3473                           
  3474                           ;temp_control.c: 42:     }
  3475  0D19  2D2F               	goto	i1l308
  3476  0D1A                     i1l2955:	
  3477  0D1A  0873               	movf	temp_set@temp,w
  3478  0D1B  1283               	bcf	3,5	;RP0=0, select bank0
  3479  0D1C  1303               	bcf	3,6	;RP1=0, select bank0
  3480  0D1D  0665               	xorwf	_set_temp,w
  3481  0D1E  1D03               	skipz
  3482  0D1F  2D21               	goto	u298_21
  3483  0D20  2D22               	goto	u298_20
  3484  0D21                     u298_21:	
  3485  0D21  2D2F               	goto	i1l305
  3486  0D22                     u298_20:	
  3487  0D22                     i1l2957:	
  3488                           
  3489                           ;temp_control.c: 44:         (PORTC &= ~(1 << 2));
  3490  0D22  30FB               	movlw	251
  3491  0D23  00F0               	movwf	??_temp_set
  3492  0D24  0870               	movf	??_temp_set,w
  3493  0D25  0587               	andwf	7,f	;volatile
  3494                           
  3495                           ;temp_control.c: 45:         (PORTC &= ~(1 << 5));
  3496  0D26  30DF               	movlw	223
  3497  0D27  00F0               	movwf	??_temp_set
  3498  0D28  0870               	movf	??_temp_set,w
  3499  0D29  0587               	andwf	7,f	;volatile
  3500  0D2A                     i1l2959:	
  3501                           
  3502                           ;temp_control.c: 46:         state = IDEL_STATE ;
  3503  0D2A  3002               	movlw	2
  3504  0D2B  00F0               	movwf	??_temp_set
  3505  0D2C  0870               	movf	??_temp_set,w
  3506  0D2D  00DE               	movwf	_state
  3507                           
  3508                           ;temp_control.c: 47:     }
  3509  0D2E  2D2F               	goto	i1l308
  3510  0D2F                     i1l305:	
  3511  0D2F                     i1l308:	
  3512  0D2F  0008               	return
  3513  0D30                     __end_of_temp_set:	
  3514                           
  3515                           	psect	text24
  3516  057A                     __ptext24:	
  3517 ;; *************** function _temp_sensor_read *****************
  3518 ;; Defined at:
  3519 ;;		line 37 in file "temp_sensor.c"
  3520 ;; Parameters:    Size  Location     Type
  3521 ;;		None
  3522 ;; Auto vars:     Size  Location     Type
  3523 ;;		None
  3524 ;; Return value:  Size  Location     Type
  3525 ;;                  1    wreg      unsigned char 
  3526 ;; Registers used:
  3527 ;;		wreg, fsr0l, fsr0h, status,2, status,0, btemp+1, pclath, cstack
  3528 ;; Tracked objects:
  3529 ;;		On entry : 0/0
  3530 ;;		On exit  : 0/0
  3531 ;;		Unchanged: 0/0
  3532 ;; Data sizes:     COMMON   BANK0   BANK1   BANK3   BANK2
  3533 ;;      Params:         0       0       0       0       0
  3534 ;;      Locals:         0       0       0       0       0
  3535 ;;      Temps:          0       5       0       0       0
  3536 ;;      Totals:         0       5       0       0       0
  3537 ;;Total ram usage:        5 bytes
  3538 ;; Hardware stack levels used:    1
  3539 ;; Hardware stack levels required when called:    2
  3540 ;; This function calls:
  3541 ;;		_ADC_Read
  3542 ;;		___fldiv
  3543 ;;		___flmul
  3544 ;;		___fltol
  3545 ;;		___xxtofl
  3546 ;;		_average
  3547 ;; This function is called by:
  3548 ;;		_isr
  3549 ;; This function uses a non-reentrant model
  3550 ;;
  3551                           
  3552                           
  3553                           ;psect for function _temp_sensor_read
  3554  057A                     _temp_sensor_read:	
  3555  057A                     i1l2915:	
  3556                           ;incstack = 0
  3557                           ; Regs used in _temp_sensor_read: [wreg-fsr0h+status,2+status,0+btemp+1+pclath+cstack]
  3558                           
  3559                           
  3560                           ;temp_sensor.c: 38:     temp_timer += 1;
  3561  057A  3001               	movlw	1
  3562  057B  1283               	bcf	3,5	;RP0=0, select bank0
  3563  057C  1303               	bcf	3,6	;RP1=0, select bank0
  3564  057D  00CB               	movwf	??_temp_sensor_read
  3565  057E  084B               	movf	??_temp_sensor_read,w
  3566  057F  07E8               	addwf	_temp_timer,f
  3567                           
  3568                           ;temp_sensor.c: 40:     if( temp_timer == 100 ){
  3569  0580  3064               	movlw	100
  3570  0581  0668               	xorwf	_temp_timer,w
  3571  0582  1D03               	btfss	3,2
  3572  0583  2D85               	goto	u294_21
  3573  0584  2D86               	goto	u294_20
  3574  0585                     u294_21:	
  3575  0585  2E34               	goto	i1l2929
  3576  0586                     u294_20:	
  3577  0586                     i1l2917:	
  3578                           
  3579                           ;temp_sensor.c: 42:         temp_hold_array[i] = (ADC_Read(2) * 4.89 ) ;
  3580  0586  3002               	movlw	2
  3581  0587  120A  158A  2365  120A  118A  	fcall	_ADC_Read
  3582  058C  0870               	movf	?_ADC_Read,w
  3583  058D  1283               	bcf	3,5	;RP0=0, select bank0
  3584  058E  1303               	bcf	3,6	;RP1=0, select bank0
  3585  058F  00CB               	movwf	??_temp_sensor_read
  3586  0590  0871               	movf	?_ADC_Read+1,w
  3587  0591  00CC               	movwf	??_temp_sensor_read+1
  3588  0592  01CD               	clrf	??_temp_sensor_read+2
  3589  0593  01CE               	clrf	??_temp_sensor_read+3
  3590  0594  084E               	movf	??_temp_sensor_read+3,w
  3591  0595  00F8               	movwf	___xxtofl@val+3
  3592  0596  084D               	movf	??_temp_sensor_read+2,w
  3593  0597  00F7               	movwf	___xxtofl@val+2
  3594  0598  084C               	movf	??_temp_sensor_read+1,w
  3595  0599  00F6               	movwf	___xxtofl@val+1
  3596  059A  084B               	movf	??_temp_sensor_read,w
  3597  059B  00F5               	movwf	___xxtofl@val
  3598  059C  3000               	movlw	0
  3599  059D  120A  118A  2636  120A  118A  	fcall	___xxtofl
  3600  05A2  0878               	movf	?___xxtofl+3,w
  3601  05A3  1283               	bcf	3,5	;RP0=0, select bank0
  3602  05A4  1303               	bcf	3,6	;RP1=0, select bank0
  3603  05A5  00AD               	movwf	___flmul@a+3
  3604  05A6  0877               	movf	?___xxtofl+2,w
  3605  05A7  00AC               	movwf	___flmul@a+2
  3606  05A8  0876               	movf	?___xxtofl+1,w
  3607  05A9  00AB               	movwf	___flmul@a+1
  3608  05AA  0875               	movf	?___xxtofl,w
  3609  05AB  00AA               	movwf	___flmul@a
  3610  05AC  3040               	movlw	64
  3611  05AD  00A9               	movwf	___flmul@b+3
  3612  05AE  309C               	movlw	156
  3613  05AF  00A8               	movwf	___flmul@b+2
  3614  05B0  307A               	movlw	122
  3615  05B1  00A7               	movwf	___flmul@b+1
  3616  05B2  30E1               	movlw	225
  3617  05B3  00A6               	movwf	___flmul@b
  3618  05B4  120A  118A  203C  120A  118A  	fcall	___flmul
  3619  05B9  1283               	bcf	3,5	;RP0=0, select bank0
  3620  05BA  1303               	bcf	3,6	;RP1=0, select bank0
  3621  05BB  0829               	movf	?___flmul+3,w
  3622  05BC  00C3               	movwf	___fltol@f1+3
  3623  05BD  0828               	movf	?___flmul+2,w
  3624  05BE  00C2               	movwf	___fltol@f1+2
  3625  05BF  0827               	movf	?___flmul+1,w
  3626  05C0  00C1               	movwf	___fltol@f1+1
  3627  05C1  0826               	movf	?___flmul,w
  3628  05C2  00C0               	movwf	___fltol@f1
  3629  05C3  120A  158A  2784  120A  118A  	fcall	___fltol
  3630  05C8  1283               	bcf	3,5	;RP0=0, select bank0
  3631  05C9  1303               	bcf	3,6	;RP1=0, select bank0
  3632  05CA  085D               	movf	_i,w
  3633  05CB  00CF               	movwf	??_temp_sensor_read+4
  3634  05CC  074F               	addwf	??_temp_sensor_read+4,w
  3635  05CD  3EB7               	addlw	(low (_temp_hold_array| 0))& (0+255)
  3636  05CE  0084               	movwf	4
  3637  05CF  0840               	movf	?___fltol,w
  3638  05D0  1383               	bcf	3,7	;select IRP bank1
  3639  05D1  0080               	movwf	0
  3640  05D2  0A84               	incf	4,f
  3641  05D3  0841               	movf	?___fltol+1,w
  3642  05D4  0080               	movwf	0
  3643                           
  3644                           ;temp_sensor.c: 43:         temp_hold_array[i] = temp_hold_array[i] / 10.0 ;
  3645  05D5  085D               	movf	_i,w
  3646  05D6  00CB               	movwf	??_temp_sensor_read
  3647  05D7  074B               	addwf	??_temp_sensor_read,w
  3648  05D8  3EB7               	addlw	(low (_temp_hold_array| 0))& (0+255)
  3649  05D9  0084               	movwf	4
  3650  05DA  0800               	movf	0,w
  3651  05DB  00CC               	movwf	??_temp_sensor_read+1
  3652  05DC  0A84               	incf	4,f
  3653  05DD  0800               	movf	0,w
  3654  05DE  00CD               	movwf	??_temp_sensor_read+2
  3655  05DF  084C               	movf	??_temp_sensor_read+1,w
  3656  05E0  00F5               	movwf	___xxtofl@val
  3657  05E1  084D               	movf	??_temp_sensor_read+2,w
  3658  05E2  00F6               	movwf	___xxtofl@val+1
  3659  05E3  01F7               	clrf	___xxtofl@val+2
  3660  05E4  01F8               	clrf	___xxtofl@val+3
  3661  05E5  3000               	movlw	0
  3662  05E6  120A  118A  2636  120A  118A  	fcall	___xxtofl
  3663  05EB  0878               	movf	?___xxtofl+3,w
  3664  05EC  1283               	bcf	3,5	;RP0=0, select bank0
  3665  05ED  1303               	bcf	3,6	;RP1=0, select bank0
  3666  05EE  00AD               	movwf	___fldiv@b+3
  3667  05EF  0877               	movf	?___xxtofl+2,w
  3668  05F0  00AC               	movwf	___fldiv@b+2
  3669  05F1  0876               	movf	?___xxtofl+1,w
  3670  05F2  00AB               	movwf	___fldiv@b+1
  3671  05F3  0875               	movf	?___xxtofl,w
  3672  05F4  00AA               	movwf	___fldiv@b
  3673  05F5  3041               	movlw	65
  3674  05F6  00A9               	movwf	___fldiv@a+3
  3675  05F7  3020               	movlw	32
  3676  05F8  00A8               	movwf	___fldiv@a+2
  3677  05F9  3000               	movlw	0
  3678  05FA  00A7               	movwf	___fldiv@a+1
  3679  05FB  3000               	movlw	0
  3680  05FC  00A6               	movwf	___fldiv@a
  3681  05FD  120A  118A  239D  120A  118A  	fcall	___fldiv
  3682  0602  1283               	bcf	3,5	;RP0=0, select bank0
  3683  0603  1303               	bcf	3,6	;RP1=0, select bank0
  3684  0604  0829               	movf	?___fldiv+3,w
  3685  0605  00C3               	movwf	___fltol@f1+3
  3686  0606  0828               	movf	?___fldiv+2,w
  3687  0607  00C2               	movwf	___fltol@f1+2
  3688  0608  0827               	movf	?___fldiv+1,w
  3689  0609  00C1               	movwf	___fltol@f1+1
  3690  060A  0826               	movf	?___fldiv,w
  3691  060B  00C0               	movwf	___fltol@f1
  3692  060C  120A  158A  2784  120A  118A  	fcall	___fltol
  3693  0611  1283               	bcf	3,5	;RP0=0, select bank0
  3694  0612  1303               	bcf	3,6	;RP1=0, select bank0
  3695  0613  085D               	movf	_i,w
  3696  0614  00CE               	movwf	??_temp_sensor_read+3
  3697  0615  074E               	addwf	??_temp_sensor_read+3,w
  3698  0616  3EB7               	addlw	(low (_temp_hold_array| 0))& (0+255)
  3699  0617  0084               	movwf	4
  3700  0618  0840               	movf	?___fltol,w
  3701  0619  1383               	bcf	3,7	;select IRP bank1
  3702  061A  0080               	movwf	0
  3703  061B  0A84               	incf	4,f
  3704  061C  0841               	movf	?___fltol+1,w
  3705  061D  0080               	movwf	0
  3706  061E                     i1l2919:	
  3707                           
  3708                           ;temp_sensor.c: 44:         i++ ;
  3709  061E  3001               	movlw	1
  3710  061F  00CB               	movwf	??_temp_sensor_read
  3711  0620  084B               	movf	??_temp_sensor_read,w
  3712  0621  07DD               	addwf	_i,f
  3713  0622                     i1l2921:	
  3714                           
  3715                           ;temp_sensor.c: 45:         temp_timer = 0 ;
  3716  0622  01E8               	clrf	_temp_timer
  3717  0623                     i1l2923:	
  3718                           
  3719                           ;temp_sensor.c: 46:         if (i == 10){i = 0 ;}
  3720  0623  300A               	movlw	10
  3721  0624  065D               	xorwf	_i,w
  3722  0625  1D03               	btfss	3,2
  3723  0626  2E28               	goto	u295_21
  3724  0627  2E29               	goto	u295_20
  3725  0628                     u295_21:	
  3726  0628  2E2A               	goto	i1l2927
  3727  0629                     u295_20:	
  3728  0629                     i1l2925:	
  3729  0629  01DD               	clrf	_i
  3730  062A                     i1l2927:	
  3731                           
  3732                           ;temp_sensor.c: 47:         temp = average();
  3733  062A  120A  158A  238D  120A  118A  	fcall	_average
  3734  062F  1283               	bcf	3,5	;RP0=0, select bank0
  3735  0630  1303               	bcf	3,6	;RP1=0, select bank0
  3736  0631  00CB               	movwf	??_temp_sensor_read
  3737  0632  084B               	movf	??_temp_sensor_read,w
  3738  0633  00DC               	movwf	_temp
  3739  0634                     i1l2929:	
  3740                           
  3741                           ;temp_sensor.c: 48:         return temp ;
  3742  0634  085C               	movf	_temp,w
  3743  0635                     i1l348:	
  3744  0635  0008               	return
  3745  0636                     __end_of_temp_sensor_read:	
  3746                           
  3747                           	psect	text25
  3748  0B8D                     __ptext25:	
  3749 ;; *************** function _average *****************
  3750 ;; Defined at:
  3751 ;;		line 23 in file "temp_sensor.c"
  3752 ;; Parameters:    Size  Location     Type
  3753 ;;		None
  3754 ;; Auto vars:     Size  Location     Type
  3755 ;;  sum             2   11[COMMON] unsigned int 
  3756 ;;  i               1   13[COMMON] unsigned char 
  3757 ;; Return value:  Size  Location     Type
  3758 ;;                  1    wreg      unsigned char 
  3759 ;; Registers used:
  3760 ;;		wreg, fsr0l, fsr0h, status,2, status,0, pclath, cstack
  3761 ;; Tracked objects:
  3762 ;;		On entry : 0/0
  3763 ;;		On exit  : 0/0
  3764 ;;		Unchanged: 0/0
  3765 ;; Data sizes:     COMMON   BANK0   BANK1   BANK3   BANK2
  3766 ;;      Params:         0       0       0       0       0
  3767 ;;      Locals:         3       0       0       0       0
  3768 ;;      Temps:          3       0       0       0       0
  3769 ;;      Totals:         6       0       0       0       0
  3770 ;;Total ram usage:        6 bytes
  3771 ;; Hardware stack levels used:    1
  3772 ;; Hardware stack levels required when called:    1
  3773 ;; This function calls:
  3774 ;;		___lwdiv
  3775 ;; This function is called by:
  3776 ;;		_temp_sensor_read
  3777 ;; This function uses a non-reentrant model
  3778 ;;
  3779                           
  3780                           
  3781                           ;psect for function _average
  3782  0B8D                     _average:	
  3783  0B8D                     i1l2531:	
  3784                           ;incstack = 0
  3785                           ; Regs used in _average: [wreg-fsr0h+status,2+status,0+pclath+cstack]
  3786                           
  3787                           
  3788                           ;temp_sensor.c: 24:     uint8_t i = 0 ;
  3789  0B8D  01FD               	clrf	average@i
  3790                           
  3791                           ;temp_sensor.c: 25:     uint16_t sum = 0 ;
  3792  0B8E  01FB               	clrf	average@sum
  3793  0B8F  01FC               	clrf	average@sum+1
  3794                           
  3795                           ;temp_sensor.c: 26:     for (i = 0 ; i < 10 ; i++){
  3796  0B90  01FD               	clrf	average@i
  3797  0B91                     i1l2537:	
  3798                           
  3799                           ;temp_sensor.c: 27:         sum = sum + temp_hold_array[i] ;
  3800  0B91  087D               	movf	average@i,w
  3801  0B92  00F8               	movwf	??_average
  3802  0B93  0778               	addwf	??_average,w
  3803  0B94  3EB7               	addlw	(low (_temp_hold_array| 0))& (0+255)
  3804  0B95  0084               	movwf	4
  3805  0B96  1383               	bcf	3,7	;select IRP bank1
  3806  0B97  0800               	movf	0,w
  3807  0B98  00F9               	movwf	??_average+1
  3808  0B99  0A84               	incf	4,f
  3809  0B9A  0800               	movf	0,w
  3810  0B9B  00FA               	movwf	??_average+2
  3811  0B9C  087B               	movf	average@sum,w
  3812  0B9D  0779               	addwf	??_average+1,w
  3813  0B9E  00FB               	movwf	average@sum
  3814  0B9F  087C               	movf	average@sum+1,w
  3815  0BA0  1803               	skipnc
  3816  0BA1  0A7C               	incf	average@sum+1,w
  3817  0BA2  077A               	addwf	??_average+2,w
  3818  0BA3  00FC               	movwf	average@sum+1
  3819  0BA4                     i1l2539:	
  3820                           
  3821                           ;temp_sensor.c: 28:     }
  3822  0BA4  3001               	movlw	1
  3823  0BA5  00F8               	movwf	??_average
  3824  0BA6  0878               	movf	??_average,w
  3825  0BA7  07FD               	addwf	average@i,f
  3826  0BA8                     i1l2541:	
  3827  0BA8  300A               	movlw	10
  3828  0BA9  027D               	subwf	average@i,w
  3829  0BAA  1C03               	skipc
  3830  0BAB  2BAD               	goto	u203_21
  3831  0BAC  2BAE               	goto	u203_20
  3832  0BAD                     u203_21:	
  3833  0BAD  2B91               	goto	i1l2537
  3834  0BAE                     u203_20:	
  3835  0BAE                     i1l2543:	
  3836                           
  3837                           ;temp_sensor.c: 29:     return (sum / 10) ;
  3838  0BAE  300A               	movlw	10
  3839  0BAF  00F0               	movwf	___lwdiv@divisor
  3840  0BB0  3000               	movlw	0
  3841  0BB1  00F1               	movwf	___lwdiv@divisor+1
  3842  0BB2  087C               	movf	average@sum+1,w
  3843  0BB3  00F3               	movwf	___lwdiv@dividend+1
  3844  0BB4  087B               	movf	average@sum,w
  3845  0BB5  00F2               	movwf	___lwdiv@dividend
  3846  0BB6  120A  158A  2498  120A  158A  	fcall	___lwdiv
  3847  0BBB  0870               	movf	?___lwdiv,w
  3848  0BBC                     i1l343:	
  3849  0BBC  0008               	return
  3850  0BBD                     __end_of_average:	
  3851                           
  3852                           	psect	text26
  3853  0C98                     __ptext26:	
  3854 ;; *************** function ___lwdiv *****************
  3855 ;; Defined at:
  3856 ;;		line 5 in file "C:\Program Files (x86)\Microchip\xc8\v2.10\pic\sources\c90\common\lwdiv.c"
  3857 ;; Parameters:    Size  Location     Type
  3858 ;;  divisor         2    0[COMMON] unsigned int 
  3859 ;;  dividend        2    2[COMMON] unsigned int 
  3860 ;; Auto vars:     Size  Location     Type
  3861 ;;  quotient        2    5[COMMON] unsigned int 
  3862 ;;  counter         1    7[COMMON] unsigned char 
  3863 ;; Return value:  Size  Location     Type
  3864 ;;                  2    0[COMMON] unsigned int 
  3865 ;; Registers used:
  3866 ;;		wreg, status,2, status,0
  3867 ;; Tracked objects:
  3868 ;;		On entry : 0/0
  3869 ;;		On exit  : 0/0
  3870 ;;		Unchanged: 0/0
  3871 ;; Data sizes:     COMMON   BANK0   BANK1   BANK3   BANK2
  3872 ;;      Params:         4       0       0       0       0
  3873 ;;      Locals:         3       0       0       0       0
  3874 ;;      Temps:          1       0       0       0       0
  3875 ;;      Totals:         8       0       0       0       0
  3876 ;;Total ram usage:        8 bytes
  3877 ;; Hardware stack levels used:    1
  3878 ;; This function calls:
  3879 ;;		Nothing
  3880 ;; This function is called by:
  3881 ;;		_average
  3882 ;; This function uses a non-reentrant model
  3883 ;;
  3884                           
  3885                           
  3886                           ;psect for function ___lwdiv
  3887  0C98                     ___lwdiv:	
  3888  0C98                     i1l2397:	
  3889                           ;incstack = 0
  3890                           ; Regs used in ___lwdiv: [wreg+status,2+status,0]
  3891                           
  3892  0C98  01F5               	clrf	___lwdiv@quotient
  3893  0C99  01F6               	clrf	___lwdiv@quotient+1
  3894  0C9A                     i1l2399:	
  3895  0C9A  0870               	movf	___lwdiv@divisor,w
  3896  0C9B  0471               	iorwf	___lwdiv@divisor+1,w
  3897  0C9C  1903               	btfsc	3,2
  3898  0C9D  2C9F               	goto	u188_21
  3899  0C9E  2CA0               	goto	u188_20
  3900  0C9F                     u188_21:	
  3901  0C9F  2CD7               	goto	i1l2419
  3902  0CA0                     u188_20:	
  3903  0CA0                     i1l2401:	
  3904  0CA0  01F7               	clrf	___lwdiv@counter
  3905  0CA1  0AF7               	incf	___lwdiv@counter,f
  3906  0CA2  2CAE               	goto	i1l2407
  3907  0CA3                     i1l2403:	
  3908  0CA3  3001               	movlw	1
  3909  0CA4                     u189_25:	
  3910  0CA4  1003               	clrc
  3911  0CA5  0DF0               	rlf	___lwdiv@divisor,f
  3912  0CA6  0DF1               	rlf	___lwdiv@divisor+1,f
  3913  0CA7  3EFF               	addlw	-1
  3914  0CA8  1D03               	skipz
  3915  0CA9  2CA4               	goto	u189_25
  3916  0CAA                     i1l2405:	
  3917  0CAA  3001               	movlw	1
  3918  0CAB  00F4               	movwf	??___lwdiv
  3919  0CAC  0874               	movf	??___lwdiv,w
  3920  0CAD  07F7               	addwf	___lwdiv@counter,f
  3921  0CAE                     i1l2407:	
  3922  0CAE  1FF1               	btfss	___lwdiv@divisor+1,7
  3923  0CAF  2CB1               	goto	u190_21
  3924  0CB0  2CB2               	goto	u190_20
  3925  0CB1                     u190_21:	
  3926  0CB1  2CA3               	goto	i1l2403
  3927  0CB2                     u190_20:	
  3928  0CB2                     i1l2409:	
  3929  0CB2  3001               	movlw	1
  3930  0CB3                     u191_25:	
  3931  0CB3  1003               	clrc
  3932  0CB4  0DF5               	rlf	___lwdiv@quotient,f
  3933  0CB5  0DF6               	rlf	___lwdiv@quotient+1,f
  3934  0CB6  3EFF               	addlw	-1
  3935  0CB7  1D03               	skipz
  3936  0CB8  2CB3               	goto	u191_25
  3937  0CB9  0871               	movf	___lwdiv@divisor+1,w
  3938  0CBA  0273               	subwf	___lwdiv@dividend+1,w
  3939  0CBB  1D03               	skipz
  3940  0CBC  2CBF               	goto	u192_25
  3941  0CBD  0870               	movf	___lwdiv@divisor,w
  3942  0CBE  0272               	subwf	___lwdiv@dividend,w
  3943  0CBF                     u192_25:	
  3944  0CBF  1C03               	skipc
  3945  0CC0  2CC2               	goto	u192_21
  3946  0CC1  2CC3               	goto	u192_20
  3947  0CC2                     u192_21:	
  3948  0CC2  2CCA               	goto	i1l2415
  3949  0CC3                     u192_20:	
  3950  0CC3                     i1l2411:	
  3951  0CC3  0870               	movf	___lwdiv@divisor,w
  3952  0CC4  02F2               	subwf	___lwdiv@dividend,f
  3953  0CC5  0871               	movf	___lwdiv@divisor+1,w
  3954  0CC6  1C03               	skipc
  3955  0CC7  03F3               	decf	___lwdiv@dividend+1,f
  3956  0CC8  02F3               	subwf	___lwdiv@dividend+1,f
  3957  0CC9                     i1l2413:	
  3958  0CC9  1475               	bsf	___lwdiv@quotient,0
  3959  0CCA                     i1l2415:	
  3960  0CCA  3001               	movlw	1
  3961  0CCB                     u193_25:	
  3962  0CCB  1003               	clrc
  3963  0CCC  0CF1               	rrf	___lwdiv@divisor+1,f
  3964  0CCD  0CF0               	rrf	___lwdiv@divisor,f
  3965  0CCE  3EFF               	addlw	-1
  3966  0CCF  1D03               	skipz
  3967  0CD0  2CCB               	goto	u193_25
  3968  0CD1                     i1l2417:	
  3969  0CD1  3001               	movlw	1
  3970  0CD2  02F7               	subwf	___lwdiv@counter,f
  3971  0CD3  1D03               	btfss	3,2
  3972  0CD4  2CD6               	goto	u194_21
  3973  0CD5  2CD7               	goto	u194_20
  3974  0CD6                     u194_21:	
  3975  0CD6  2CB2               	goto	i1l2409
  3976  0CD7                     u194_20:	
  3977  0CD7                     i1l2419:	
  3978  0CD7  0876               	movf	___lwdiv@quotient+1,w
  3979  0CD8  00F1               	movwf	?___lwdiv+1
  3980  0CD9  0875               	movf	___lwdiv@quotient,w
  3981  0CDA  00F0               	movwf	?___lwdiv
  3982  0CDB                     i1l729:	
  3983  0CDB  0008               	return
  3984  0CDC                     __end_of___lwdiv:	
  3985                           
  3986                           	psect	text27
  3987  0636                     __ptext27:	
  3988 ;; *************** function ___xxtofl *****************
  3989 ;; Defined at:
  3990 ;;		line 10 in file "C:\Program Files (x86)\Microchip\xc8\v2.10\pic\sources\c90\common\xxtofl.c"
  3991 ;; Parameters:    Size  Location     Type
  3992 ;;  sign            1    wreg     unsigned char 
  3993 ;;  val             4    5[COMMON] long 
  3994 ;; Auto vars:     Size  Location     Type
  3995 ;;  sign            1    0[BANK0 ] unsigned char 
  3996 ;;  arg             4    2[BANK0 ] unsigned long 
  3997 ;;  exp             1    1[BANK0 ] unsigned char 
  3998 ;; Return value:  Size  Location     Type
  3999 ;;                  4    5[COMMON] unsigned char 
  4000 ;; Registers used:
  4001 ;;		wreg, status,2, status,0
  4002 ;; Tracked objects:
  4003 ;;		On entry : 0/0
  4004 ;;		On exit  : 0/0
  4005 ;;		Unchanged: 0/0
  4006 ;; Data sizes:     COMMON   BANK0   BANK1   BANK3   BANK2
  4007 ;;      Params:         4       0       0       0       0
  4008 ;;      Locals:         0       6       0       0       0
  4009 ;;      Temps:          4       0       0       0       0
  4010 ;;      Totals:         8       6       0       0       0
  4011 ;;Total ram usage:       14 bytes
  4012 ;; Hardware stack levels used:    1
  4013 ;; This function calls:
  4014 ;;		Nothing
  4015 ;; This function is called by:
  4016 ;;		_temp_sensor_read
  4017 ;; This function uses a non-reentrant model
  4018 ;;
  4019                           
  4020                           
  4021                           ;psect for function ___xxtofl
  4022  0636                     ___xxtofl:	
  4023                           
  4024                           ;incstack = 0
  4025                           ; Regs used in ___xxtofl: [wreg+status,2+status,0]
  4026                           ;___xxtofl@sign stored from wreg
  4027  0636  1283               	bcf	3,5	;RP0=0, select bank0
  4028  0637  1303               	bcf	3,6	;RP1=0, select bank0
  4029  0638  00A0               	movwf	___xxtofl@sign
  4030  0639                     i1l2865:	
  4031  0639  0820               	movf	___xxtofl@sign,w
  4032  063A  1903               	btfsc	3,2
  4033  063B  2E3D               	goto	u280_21
  4034  063C  2E3E               	goto	u280_20
  4035  063D                     u280_21:	
  4036  063D  2E52               	goto	i1l2871
  4037  063E                     u280_20:	
  4038  063E                     i1l2867:	
  4039  063E  1FF8               	btfss	___xxtofl@val+3,7
  4040  063F  2E41               	goto	u281_21
  4041  0640  2E42               	goto	u281_20
  4042  0641                     u281_21:	
  4043  0641  2E52               	goto	i1l2871
  4044  0642                     u281_20:	
  4045  0642                     i1l2869:	
  4046  0642  0975               	comf	___xxtofl@val,w
  4047  0643  00A2               	movwf	___xxtofl@arg
  4048  0644  0976               	comf	___xxtofl@val+1,w
  4049  0645  00A3               	movwf	___xxtofl@arg+1
  4050  0646  0977               	comf	___xxtofl@val+2,w
  4051  0647  00A4               	movwf	___xxtofl@arg+2
  4052  0648  0978               	comf	___xxtofl@val+3,w
  4053  0649  00A5               	movwf	___xxtofl@arg+3
  4054  064A  0AA2               	incf	___xxtofl@arg,f
  4055  064B  1903               	skipnz
  4056  064C  0AA3               	incf	___xxtofl@arg+1,f
  4057  064D  1903               	skipnz
  4058  064E  0AA4               	incf	___xxtofl@arg+2,f
  4059  064F  1903               	skipnz
  4060  0650  0AA5               	incf	___xxtofl@arg+3,f
  4061  0651  2E5A               	goto	i1l884
  4062  0652                     i1l2871:	
  4063  0652  0878               	movf	___xxtofl@val+3,w
  4064  0653  00A5               	movwf	___xxtofl@arg+3
  4065  0654  0877               	movf	___xxtofl@val+2,w
  4066  0655  00A4               	movwf	___xxtofl@arg+2
  4067  0656  0876               	movf	___xxtofl@val+1,w
  4068  0657  00A3               	movwf	___xxtofl@arg+1
  4069  0658  0875               	movf	___xxtofl@val,w
  4070  0659  00A2               	movwf	___xxtofl@arg
  4071  065A                     i1l884:	
  4072  065A  0878               	movf	___xxtofl@val+3,w
  4073  065B  0477               	iorwf	___xxtofl@val+2,w
  4074  065C  0476               	iorwf	___xxtofl@val+1,w
  4075  065D  0475               	iorwf	___xxtofl@val,w
  4076  065E  1D03               	skipz
  4077  065F  2E61               	goto	u282_21
  4078  0660  2E62               	goto	u282_20
  4079  0661                     u282_21:	
  4080  0661  2E6B               	goto	i1l2877
  4081  0662                     u282_20:	
  4082  0662                     i1l2873:	
  4083  0662  3000               	movlw	0
  4084  0663  00F8               	movwf	?___xxtofl+3
  4085  0664  3000               	movlw	0
  4086  0665  00F7               	movwf	?___xxtofl+2
  4087  0666  3000               	movlw	0
  4088  0667  00F6               	movwf	?___xxtofl+1
  4089  0668  3000               	movlw	0
  4090  0669  00F5               	movwf	?___xxtofl
  4091  066A  2EF1               	goto	i1l886
  4092  066B                     i1l2877:	
  4093  066B  3096               	movlw	150
  4094  066C  00F9               	movwf	??___xxtofl
  4095  066D  0879               	movf	??___xxtofl,w
  4096  066E  00A1               	movwf	___xxtofl@exp
  4097  066F  2E7D               	goto	i1l2881
  4098  0670                     i1l2879:	
  4099  0670  3001               	movlw	1
  4100  0671  00F9               	movwf	??___xxtofl
  4101  0672  0879               	movf	??___xxtofl,w
  4102  0673  07A1               	addwf	___xxtofl@exp,f
  4103  0674  3001               	movlw	1
  4104  0675                     u283_25:	
  4105  0675  1003               	clrc
  4106  0676  0CA5               	rrf	___xxtofl@arg+3,f
  4107  0677  0CA4               	rrf	___xxtofl@arg+2,f
  4108  0678  0CA3               	rrf	___xxtofl@arg+1,f
  4109  0679  0CA2               	rrf	___xxtofl@arg,f
  4110  067A  3EFF               	addlw	-1
  4111  067B  1D03               	skipz
  4112  067C  2E75               	goto	u283_25
  4113  067D                     i1l2881:	
  4114  067D  30FE               	movlw	254
  4115  067E  0525               	andwf	___xxtofl@arg+3,w
  4116  067F  1D03               	btfss	3,2
  4117  0680  2E82               	goto	u284_21
  4118  0681  2E83               	goto	u284_20
  4119  0682                     u284_21:	
  4120  0682  2E70               	goto	i1l2879
  4121  0683                     u284_20:	
  4122  0683  2E9F               	goto	i1l890
  4123  0684                     i1l2883:	
  4124  0684  3001               	movlw	1
  4125  0685  00F9               	movwf	??___xxtofl
  4126  0686  0879               	movf	??___xxtofl,w
  4127  0687  07A1               	addwf	___xxtofl@exp,f
  4128  0688                     i1l2885:	
  4129  0688  3001               	movlw	1
  4130  0689  07A2               	addwf	___xxtofl@arg,f
  4131  068A  3000               	movlw	0
  4132  068B  1803               	skipnc
  4133  068C  3001               	movlw	1
  4134  068D  07A3               	addwf	___xxtofl@arg+1,f
  4135  068E  3000               	movlw	0
  4136  068F  1803               	skipnc
  4137  0690  3001               	movlw	1
  4138  0691  07A4               	addwf	___xxtofl@arg+2,f
  4139  0692  3000               	movlw	0
  4140  0693  1803               	skipnc
  4141  0694  3001               	movlw	1
  4142  0695  07A5               	addwf	___xxtofl@arg+3,f
  4143  0696                     i1l2887:	
  4144  0696  3001               	movlw	1
  4145  0697                     u285_25:	
  4146  0697  1003               	clrc
  4147  0698  0CA5               	rrf	___xxtofl@arg+3,f
  4148  0699  0CA4               	rrf	___xxtofl@arg+2,f
  4149  069A  0CA3               	rrf	___xxtofl@arg+1,f
  4150  069B  0CA2               	rrf	___xxtofl@arg,f
  4151  069C  3EFF               	addlw	-1
  4152  069D  1D03               	skipz
  4153  069E  2E97               	goto	u285_25
  4154  069F                     i1l890:	
  4155  069F  30FF               	movlw	255
  4156  06A0  0525               	andwf	___xxtofl@arg+3,w
  4157  06A1  1D03               	btfss	3,2
  4158  06A2  2EA4               	goto	u286_21
  4159  06A3  2EA5               	goto	u286_20
  4160  06A4                     u286_21:	
  4161  06A4  2E84               	goto	i1l2883
  4162  06A5                     u286_20:	
  4163  06A5  2EB1               	goto	i1l2891
  4164  06A6                     i1l2889:	
  4165  06A6  3001               	movlw	1
  4166  06A7  02A1               	subwf	___xxtofl@exp,f
  4167  06A8  3001               	movlw	1
  4168  06A9  00F9               	movwf	??___xxtofl
  4169  06AA                     u287_25:	
  4170  06AA  1003               	clrc
  4171  06AB  0DA2               	rlf	___xxtofl@arg,f
  4172  06AC  0DA3               	rlf	___xxtofl@arg+1,f
  4173  06AD  0DA4               	rlf	___xxtofl@arg+2,f
  4174  06AE  0DA5               	rlf	___xxtofl@arg+3,f
  4175  06AF  0BF9               	decfsz	??___xxtofl,f
  4176  06B0  2EAA               	goto	u287_25
  4177  06B1                     i1l2891:	
  4178  06B1  1BA4               	btfsc	___xxtofl@arg+2,7
  4179  06B2  2EB4               	goto	u288_21
  4180  06B3  2EB5               	goto	u288_20
  4181  06B4                     u288_21:	
  4182  06B4  2EBB               	goto	i1l897
  4183  06B5                     u288_20:	
  4184  06B5                     i1l2893:	
  4185  06B5  3002               	movlw	2
  4186  06B6  0221               	subwf	___xxtofl@exp,w
  4187  06B7  1803               	skipnc
  4188  06B8  2EBA               	goto	u289_21
  4189  06B9  2EBB               	goto	u289_20
  4190  06BA                     u289_21:	
  4191  06BA  2EA6               	goto	i1l2889
  4192  06BB                     u289_20:	
  4193  06BB                     i1l897:	
  4194  06BB  1821               	btfsc	___xxtofl@exp,0
  4195  06BC  2EBE               	goto	u290_21
  4196  06BD  2EBF               	goto	u290_20
  4197  06BE                     u290_21:	
  4198  06BE  2EC7               	goto	i1l898
  4199  06BF                     u290_20:	
  4200  06BF                     i1l2895:	
  4201  06BF  30FF               	movlw	255
  4202  06C0  05A2               	andwf	___xxtofl@arg,f
  4203  06C1  30FF               	movlw	255
  4204  06C2  05A3               	andwf	___xxtofl@arg+1,f
  4205  06C3  307F               	movlw	127
  4206  06C4  05A4               	andwf	___xxtofl@arg+2,f
  4207  06C5  30FF               	movlw	255
  4208  06C6  05A5               	andwf	___xxtofl@arg+3,f
  4209  06C7                     i1l898:	
  4210  06C7  1003               	clrc
  4211  06C8  0CA1               	rrf	___xxtofl@exp,f
  4212  06C9                     i1l2897:	
  4213  06C9  0821               	movf	___xxtofl@exp,w
  4214  06CA  00F9               	movwf	??___xxtofl
  4215  06CB  01FA               	clrf	??___xxtofl+1
  4216  06CC  01FB               	clrf	??___xxtofl+2
  4217  06CD  01FC               	clrf	??___xxtofl+3
  4218  06CE  3018               	movlw	24
  4219  06CF                     u291_25:	
  4220  06CF  1003               	clrc
  4221  06D0  0DF9               	rlf	??___xxtofl,f
  4222  06D1  0DFA               	rlf	??___xxtofl+1,f
  4223  06D2  0DFB               	rlf	??___xxtofl+2,f
  4224  06D3  0DFC               	rlf	??___xxtofl+3,f
  4225  06D4                     u291_20:	
  4226  06D4  3EFF               	addlw	-1
  4227  06D5  1D03               	skipz
  4228  06D6  2ECF               	goto	u291_25
  4229  06D7  0879               	movf	??___xxtofl,w
  4230  06D8  04A2               	iorwf	___xxtofl@arg,f
  4231  06D9  087A               	movf	??___xxtofl+1,w
  4232  06DA  04A3               	iorwf	___xxtofl@arg+1,f
  4233  06DB  087B               	movf	??___xxtofl+2,w
  4234  06DC  04A4               	iorwf	___xxtofl@arg+2,f
  4235  06DD  087C               	movf	??___xxtofl+3,w
  4236  06DE  04A5               	iorwf	___xxtofl@arg+3,f
  4237  06DF                     i1l2899:	
  4238  06DF  0820               	movf	___xxtofl@sign,w
  4239  06E0  1903               	btfsc	3,2
  4240  06E1  2EE3               	goto	u292_21
  4241  06E2  2EE4               	goto	u292_20
  4242  06E3                     u292_21:	
  4243  06E3  2EE9               	goto	i1l2905
  4244  06E4                     u292_20:	
  4245  06E4                     i1l2901:	
  4246  06E4  1FF8               	btfss	___xxtofl@val+3,7
  4247  06E5  2EE7               	goto	u293_21
  4248  06E6  2EE8               	goto	u293_20
  4249  06E7                     u293_21:	
  4250  06E7  2EE9               	goto	i1l2905
  4251  06E8                     u293_20:	
  4252  06E8                     i1l2903:	
  4253  06E8  17A5               	bsf	___xxtofl@arg+3,7
  4254  06E9                     i1l2905:	
  4255  06E9  0825               	movf	___xxtofl@arg+3,w
  4256  06EA  00F8               	movwf	?___xxtofl+3
  4257  06EB  0824               	movf	___xxtofl@arg+2,w
  4258  06EC  00F7               	movwf	?___xxtofl+2
  4259  06ED  0823               	movf	___xxtofl@arg+1,w
  4260  06EE  00F6               	movwf	?___xxtofl+1
  4261  06EF  0822               	movf	___xxtofl@arg,w
  4262  06F0  00F5               	movwf	?___xxtofl
  4263  06F1                     i1l886:	
  4264  06F1  0008               	return
  4265  06F2                     __end_of___xxtofl:	
  4266                           
  4267                           	psect	text28
  4268  0F84                     __ptext28:	
  4269 ;; *************** function ___fltol *****************
  4270 ;; Defined at:
  4271 ;;		line 43 in file "C:\Program Files (x86)\Microchip\xc8\v2.10\pic\sources\c90\common\fltol.c"
  4272 ;; Parameters:    Size  Location     Type
  4273 ;;  f1              4   32[BANK0 ] unsigned char 
  4274 ;; Auto vars:     Size  Location     Type
  4275 ;;  exp1            1   42[BANK0 ] unsigned char 
  4276 ;;  sign1           1   41[BANK0 ] unsigned char 
  4277 ;; Return value:  Size  Location     Type
  4278 ;;                  4   32[BANK0 ] long 
  4279 ;; Registers used:
  4280 ;;		wreg, status,2, status,0
  4281 ;; Tracked objects:
  4282 ;;		On entry : 0/0
  4283 ;;		On exit  : 0/0
  4284 ;;		Unchanged: 0/0
  4285 ;; Data sizes:     COMMON   BANK0   BANK1   BANK3   BANK2
  4286 ;;      Params:         0       4       0       0       0
  4287 ;;      Locals:         0       2       0       0       0
  4288 ;;      Temps:          0       5       0       0       0
  4289 ;;      Totals:         0      11       0       0       0
  4290 ;;Total ram usage:       11 bytes
  4291 ;; Hardware stack levels used:    1
  4292 ;; This function calls:
  4293 ;;		Nothing
  4294 ;; This function is called by:
  4295 ;;		_temp_sensor_read
  4296 ;; This function uses a non-reentrant model
  4297 ;;
  4298                           
  4299                           
  4300                           ;psect for function ___fltol
  4301  0F84                     ___fltol:	
  4302  0F84                     i1l2547:	
  4303                           ;incstack = 0
  4304                           ; Regs used in ___fltol: [wreg+status,2+status,0]
  4305                           
  4306  0F84  1003               	clrc
  4307  0F85  1283               	bcf	3,5	;RP0=0, select bank0
  4308  0F86  1303               	bcf	3,6	;RP1=0, select bank0
  4309  0F87  0D42               	rlf	___fltol@f1+2,w
  4310  0F88  0D43               	rlf	___fltol@f1+3,w
  4311  0F89  00C4               	movwf	??___fltol
  4312  0F8A  0844               	movf	??___fltol,w
  4313  0F8B  00CA               	movwf	___fltol@exp1
  4314  0F8C  084A               	movf	___fltol@exp1,w
  4315  0F8D  1D03               	btfss	3,2
  4316  0F8E  2F90               	goto	u204_21
  4317  0F8F  2F91               	goto	u204_20
  4318  0F90                     u204_21:	
  4319  0F90  2F9A               	goto	i1l2553
  4320  0F91                     u204_20:	
  4321  0F91                     i1l2549:	
  4322  0F91  3000               	movlw	0
  4323  0F92  00C3               	movwf	?___fltol+3
  4324  0F93  3000               	movlw	0
  4325  0F94  00C2               	movwf	?___fltol+2
  4326  0F95  3000               	movlw	0
  4327  0F96  00C1               	movwf	?___fltol+1
  4328  0F97  3000               	movlw	0
  4329  0F98  00C0               	movwf	?___fltol
  4330  0F99  2FFF               	goto	i1l643
  4331  0F9A                     i1l2553:	
  4332  0F9A  0840               	movf	___fltol@f1,w
  4333  0F9B  00C4               	movwf	??___fltol
  4334  0F9C  0841               	movf	___fltol@f1+1,w
  4335  0F9D  00C5               	movwf	??___fltol+1
  4336  0F9E  0842               	movf	___fltol@f1+2,w
  4337  0F9F  00C6               	movwf	??___fltol+2
  4338  0FA0  0843               	movf	___fltol@f1+3,w
  4339  0FA1  00C7               	movwf	??___fltol+3
  4340  0FA2  301F               	movlw	31
  4341  0FA3                     u205_25:	
  4342  0FA3  1003               	clrc
  4343  0FA4  0CC7               	rrf	??___fltol+3,f
  4344  0FA5  0CC6               	rrf	??___fltol+2,f
  4345  0FA6  0CC5               	rrf	??___fltol+1,f
  4346  0FA7  0CC4               	rrf	??___fltol,f
  4347  0FA8                     u205_20:	
  4348  0FA8  3EFF               	addlw	-1
  4349  0FA9  1D03               	skipz
  4350  0FAA  2FA3               	goto	u205_25
  4351  0FAB  0844               	movf	??___fltol,w
  4352  0FAC  00C8               	movwf	??___fltol+4
  4353  0FAD  0848               	movf	??___fltol+4,w
  4354  0FAE  00C9               	movwf	___fltol@sign1
  4355  0FAF                     i1l2555:	
  4356  0FAF  17C2               	bsf	___fltol@f1+2,7
  4357  0FB0                     i1l2557:	
  4358  0FB0  30FF               	movlw	255
  4359  0FB1  05C0               	andwf	___fltol@f1,f
  4360  0FB2  30FF               	movlw	255
  4361  0FB3  05C1               	andwf	___fltol@f1+1,f
  4362  0FB4  30FF               	movlw	255
  4363  0FB5  05C2               	andwf	___fltol@f1+2,f
  4364  0FB6  3000               	movlw	0
  4365  0FB7  05C3               	andwf	___fltol@f1+3,f
  4366  0FB8                     i1l2559:	
  4367  0FB8  3096               	movlw	150
  4368  0FB9  02CA               	subwf	___fltol@exp1,f
  4369  0FBA                     i1l2561:	
  4370  0FBA  1FCA               	btfss	___fltol@exp1,7
  4371  0FBB  2FBD               	goto	u206_21
  4372  0FBC  2FBE               	goto	u206_20
  4373  0FBD                     u206_21:	
  4374  0FBD  2FD8               	goto	i1l2571
  4375  0FBE                     u206_20:	
  4376  0FBE                     i1l2563:	
  4377  0FBE  084A               	movf	___fltol@exp1,w
  4378  0FBF  3A80               	xorlw	128
  4379  0FC0  3E97               	addlw	151
  4380  0FC1  1803               	skipnc
  4381  0FC2  2FC4               	goto	u207_21
  4382  0FC3  2FC5               	goto	u207_20
  4383  0FC4                     u207_21:	
  4384  0FC4  2FC6               	goto	i1l2569
  4385  0FC5                     u207_20:	
  4386  0FC5  2F91               	goto	i1l2549
  4387  0FC6                     i1l2569:	
  4388  0FC6  3001               	movlw	1
  4389  0FC7                     u208_25:	
  4390  0FC7  1003               	clrc
  4391  0FC8  0CC3               	rrf	___fltol@f1+3,f
  4392  0FC9  0CC2               	rrf	___fltol@f1+2,f
  4393  0FCA  0CC1               	rrf	___fltol@f1+1,f
  4394  0FCB  0CC0               	rrf	___fltol@f1,f
  4395  0FCC  3EFF               	addlw	-1
  4396  0FCD  1D03               	skipz
  4397  0FCE  2FC7               	goto	u208_25
  4398  0FCF  3001               	movlw	1
  4399  0FD0  00C4               	movwf	??___fltol
  4400  0FD1  0844               	movf	??___fltol,w
  4401  0FD2  07CA               	addwf	___fltol@exp1,f
  4402  0FD3  1D03               	btfss	3,2
  4403  0FD4  2FD6               	goto	u209_21
  4404  0FD5  2FD7               	goto	u209_20
  4405  0FD6                     u209_21:	
  4406  0FD6  2FC6               	goto	i1l2569
  4407  0FD7                     u209_20:	
  4408  0FD7  2FEF               	goto	i1l2579
  4409  0FD8                     i1l2571:	
  4410  0FD8  3020               	movlw	32
  4411  0FD9  024A               	subwf	___fltol@exp1,w
  4412  0FDA  1C03               	skipc
  4413  0FDB  2FDD               	goto	u210_21
  4414  0FDC  2FDE               	goto	u210_20
  4415  0FDD                     u210_21:	
  4416  0FDD  2FEA               	goto	i1l650
  4417  0FDE                     u210_20:	
  4418  0FDE  2F91               	goto	i1l2549
  4419  0FDF                     i1l2577:	
  4420  0FDF  3001               	movlw	1
  4421  0FE0  00C4               	movwf	??___fltol
  4422  0FE1                     u211_25:	
  4423  0FE1  1003               	clrc
  4424  0FE2  0DC0               	rlf	___fltol@f1,f
  4425  0FE3  0DC1               	rlf	___fltol@f1+1,f
  4426  0FE4  0DC2               	rlf	___fltol@f1+2,f
  4427  0FE5  0DC3               	rlf	___fltol@f1+3,f
  4428  0FE6  0BC4               	decfsz	??___fltol,f
  4429  0FE7  2FE1               	goto	u211_25
  4430  0FE8  3001               	movlw	1
  4431  0FE9  02CA               	subwf	___fltol@exp1,f
  4432  0FEA                     i1l650:	
  4433  0FEA  084A               	movf	___fltol@exp1,w
  4434  0FEB  1D03               	btfss	3,2
  4435  0FEC  2FEE               	goto	u212_21
  4436  0FED  2FEF               	goto	u212_20
  4437  0FEE                     u212_21:	
  4438  0FEE  2FDF               	goto	i1l2577
  4439  0FEF                     u212_20:	
  4440  0FEF                     i1l2579:	
  4441  0FEF  0849               	movf	___fltol@sign1,w
  4442  0FF0  1903               	btfsc	3,2
  4443  0FF1  2FF3               	goto	u213_21
  4444  0FF2  2FF4               	goto	u213_20
  4445  0FF3                     u213_21:	
  4446  0FF3  2FFF               	goto	i1l653
  4447  0FF4                     u213_20:	
  4448  0FF4                     i1l2581:	
  4449  0FF4  09C0               	comf	___fltol@f1,f
  4450  0FF5  09C1               	comf	___fltol@f1+1,f
  4451  0FF6  09C2               	comf	___fltol@f1+2,f
  4452  0FF7  09C3               	comf	___fltol@f1+3,f
  4453  0FF8  0AC0               	incf	___fltol@f1,f
  4454  0FF9  1903               	skipnz
  4455  0FFA  0AC1               	incf	___fltol@f1+1,f
  4456  0FFB  1903               	skipnz
  4457  0FFC  0AC2               	incf	___fltol@f1+2,f
  4458  0FFD  1903               	skipnz
  4459  0FFE  0AC3               	incf	___fltol@f1+3,f
  4460  0FFF                     i1l653:	
  4461  0FFF                     i1l643:	
  4462  0FFF  0008               	return
  4463  1000                     __end_of___fltol:	
  4464                           
  4465                           	psect	text29
  4466  003C                     __ptext29:	
  4467 ;; *************** function ___flmul *****************
  4468 ;; Defined at:
  4469 ;;		line 8 in file "C:\Program Files (x86)\Microchip\xc8\v2.10\pic\sources\c90\common\sprcmul.c"
  4470 ;; Parameters:    Size  Location     Type
  4471 ;;  b               4    6[BANK0 ] long 
  4472 ;;  a               4   10[BANK0 ] long 
  4473 ;; Auto vars:     Size  Location     Type
  4474 ;;  prod            4   26[BANK0 ] struct .
  4475 ;;  grs             4   20[BANK0 ] unsigned long 
  4476 ;;  temp            2   30[BANK0 ] struct .
  4477 ;;  bexp            1   25[BANK0 ] unsigned char 
  4478 ;;  aexp            1   24[BANK0 ] unsigned char 
  4479 ;;  sign            1   19[BANK0 ] unsigned char 
  4480 ;; Return value:  Size  Location     Type
  4481 ;;                  4    6[BANK0 ] unsigned char 
  4482 ;; Registers used:
  4483 ;;		wreg, status,2, status,0, btemp+1, pclath, cstack
  4484 ;; Tracked objects:
  4485 ;;		On entry : 0/0
  4486 ;;		On exit  : 0/0
  4487 ;;		Unchanged: 0/0
  4488 ;; Data sizes:     COMMON   BANK0   BANK1   BANK3   BANK2
  4489 ;;      Params:         0       8       0       0       0
  4490 ;;      Locals:         0      13       0       0       0
  4491 ;;      Temps:          0       5       0       0       0
  4492 ;;      Totals:         0      26       0       0       0
  4493 ;;Total ram usage:       26 bytes
  4494 ;; Hardware stack levels used:    1
  4495 ;; Hardware stack levels required when called:    1
  4496 ;; This function calls:
  4497 ;;		__Umul8_16
  4498 ;; This function is called by:
  4499 ;;		_temp_sensor_read
  4500 ;; This function uses a non-reentrant model
  4501 ;;
  4502                           
  4503                           
  4504                           ;psect for function ___flmul
  4505  003C                     ___flmul:	
  4506  003C                     i1l2725:	
  4507                           ;incstack = 0
  4508                           ; Regs used in ___flmul: [wreg+status,2+status,0+btemp+1+pclath+cstack]
  4509                           
  4510  003C  1283               	bcf	3,5	;RP0=0, select bank0
  4511  003D  1303               	bcf	3,6	;RP1=0, select bank0
  4512  003E  0829               	movf	___flmul@b+3,w
  4513  003F  3980               	andlw	128
  4514  0040  00AE               	movwf	??___flmul
  4515  0041  082E               	movf	??___flmul,w
  4516  0042  00B3               	movwf	___flmul@sign
  4517  0043                     i1l2727:	
  4518  0043  0829               	movf	___flmul@b+3,w
  4519  0044  00AE               	movwf	??___flmul
  4520  0045  072E               	addwf	??___flmul,w
  4521  0046  00AF               	movwf	??___flmul+1
  4522  0047  082F               	movf	??___flmul+1,w
  4523  0048  00B9               	movwf	___flmul@bexp
  4524  0049                     i1l2729:	
  4525  0049  1FA8               	btfss	___flmul@b+2,7
  4526  004A  284C               	goto	u243_21
  4527  004B  284D               	goto	u243_20
  4528  004C                     u243_21:	
  4529  004C  284E               	goto	i1l2733
  4530  004D                     u243_20:	
  4531  004D                     i1l2731:	
  4532  004D  1439               	bsf	___flmul@bexp,0
  4533  004E                     i1l2733:	
  4534  004E  0839               	movf	___flmul@bexp,w
  4535  004F  1903               	btfsc	3,2
  4536  0050  2852               	goto	u244_21
  4537  0051  2853               	goto	u244_20
  4538  0052                     u244_21:	
  4539  0052  2862               	goto	i1l2741
  4540  0053                     u244_20:	
  4541  0053                     i1l2735:	
  4542  0053  0A39               	incf	___flmul@bexp,w
  4543  0054  1D03               	btfss	3,2
  4544  0055  2857               	goto	u245_21
  4545  0056  2858               	goto	u245_20
  4546  0057                     u245_21:	
  4547  0057  2860               	goto	i1l2739
  4548  0058                     u245_20:	
  4549  0058                     i1l2737:	
  4550  0058  3000               	movlw	0
  4551  0059  00A9               	movwf	___flmul@b+3
  4552  005A  3000               	movlw	0
  4553  005B  00A8               	movwf	___flmul@b+2
  4554  005C  3000               	movlw	0
  4555  005D  00A7               	movwf	___flmul@b+1
  4556  005E  3000               	movlw	0
  4557  005F  00A6               	movwf	___flmul@b
  4558  0060                     i1l2739:	
  4559  0060  17A8               	bsf	___flmul@b+2,7
  4560  0061  286A               	goto	i1l2743
  4561  0062                     i1l2741:	
  4562  0062  3000               	movlw	0
  4563  0063  00A9               	movwf	___flmul@b+3
  4564  0064  3000               	movlw	0
  4565  0065  00A8               	movwf	___flmul@b+2
  4566  0066  3000               	movlw	0
  4567  0067  00A7               	movwf	___flmul@b+1
  4568  0068  3000               	movlw	0
  4569  0069  00A6               	movwf	___flmul@b
  4570  006A                     i1l2743:	
  4571  006A  082D               	movf	___flmul@a+3,w
  4572  006B  3980               	andlw	128
  4573  006C  00AE               	movwf	??___flmul
  4574  006D  082E               	movf	??___flmul,w
  4575  006E  06B3               	xorwf	___flmul@sign,f
  4576  006F                     i1l2745:	
  4577  006F  082D               	movf	___flmul@a+3,w
  4578  0070  00AE               	movwf	??___flmul
  4579  0071  072E               	addwf	??___flmul,w
  4580  0072  00AF               	movwf	??___flmul+1
  4581  0073  082F               	movf	??___flmul+1,w
  4582  0074  00B8               	movwf	___flmul@aexp
  4583  0075                     i1l2747:	
  4584  0075  1FAC               	btfss	___flmul@a+2,7
  4585  0076  2878               	goto	u246_21
  4586  0077  2879               	goto	u246_20
  4587  0078                     u246_21:	
  4588  0078  287A               	goto	i1l2751
  4589  0079                     u246_20:	
  4590  0079                     i1l2749:	
  4591  0079  1438               	bsf	___flmul@aexp,0
  4592  007A                     i1l2751:	
  4593  007A  0838               	movf	___flmul@aexp,w
  4594  007B  1903               	btfsc	3,2
  4595  007C  287E               	goto	u247_21
  4596  007D  287F               	goto	u247_20
  4597  007E                     u247_21:	
  4598  007E  288E               	goto	i1l2759
  4599  007F                     u247_20:	
  4600  007F                     i1l2753:	
  4601  007F  0A38               	incf	___flmul@aexp,w
  4602  0080  1D03               	btfss	3,2
  4603  0081  2883               	goto	u248_21
  4604  0082  2884               	goto	u248_20
  4605  0083                     u248_21:	
  4606  0083  288C               	goto	i1l2757
  4607  0084                     u248_20:	
  4608  0084                     i1l2755:	
  4609  0084  3000               	movlw	0
  4610  0085  00AD               	movwf	___flmul@a+3
  4611  0086  3000               	movlw	0
  4612  0087  00AC               	movwf	___flmul@a+2
  4613  0088  3000               	movlw	0
  4614  0089  00AB               	movwf	___flmul@a+1
  4615  008A  3000               	movlw	0
  4616  008B  00AA               	movwf	___flmul@a
  4617  008C                     i1l2757:	
  4618  008C  17AC               	bsf	___flmul@a+2,7
  4619  008D  2896               	goto	i1l2761
  4620  008E                     i1l2759:	
  4621  008E  3000               	movlw	0
  4622  008F  00AD               	movwf	___flmul@a+3
  4623  0090  3000               	movlw	0
  4624  0091  00AC               	movwf	___flmul@a+2
  4625  0092  3000               	movlw	0
  4626  0093  00AB               	movwf	___flmul@a+1
  4627  0094  3000               	movlw	0
  4628  0095  00AA               	movwf	___flmul@a
  4629  0096                     i1l2761:	
  4630  0096  0838               	movf	___flmul@aexp,w
  4631  0097  1903               	btfsc	3,2
  4632  0098  289A               	goto	u249_21
  4633  0099  289B               	goto	u249_20
  4634  009A                     u249_21:	
  4635  009A  28A0               	goto	i1l2765
  4636  009B                     u249_20:	
  4637  009B                     i1l2763:	
  4638  009B  0839               	movf	___flmul@bexp,w
  4639  009C  1D03               	btfss	3,2
  4640  009D  289F               	goto	u250_21
  4641  009E  28A0               	goto	u250_20
  4642  009F                     u250_21:	
  4643  009F  28A9               	goto	i1l2769
  4644  00A0                     u250_20:	
  4645  00A0                     i1l2765:	
  4646  00A0  3000               	movlw	0
  4647  00A1  00A9               	movwf	?___flmul+3
  4648  00A2  3000               	movlw	0
  4649  00A3  00A8               	movwf	?___flmul+2
  4650  00A4  3000               	movlw	0
  4651  00A5  00A7               	movwf	?___flmul+1
  4652  00A6  3000               	movlw	0
  4653  00A7  00A6               	movwf	?___flmul
  4654  00A8  2B9C               	goto	i1l846
  4655  00A9                     i1l2769:	
  4656  00A9  0826               	movf	___flmul@b,w
  4657  00AA  00AE               	movwf	??___flmul
  4658  00AB  082E               	movf	??___flmul,w
  4659  00AC  00F0               	movwf	__Umul8_16@multiplicand
  4660  00AD  082C               	movf	___flmul@a+2,w
  4661  00AE  120A  158A  233E  120A  118A  	fcall	__Umul8_16
  4662  00B3  0871               	movf	?__Umul8_16+1,w
  4663  00B4  1283               	bcf	3,5	;RP0=0, select bank0
  4664  00B5  1303               	bcf	3,6	;RP1=0, select bank0
  4665  00B6  00BF               	movwf	___flmul@temp+1
  4666  00B7  0870               	movf	?__Umul8_16,w
  4667  00B8  00BE               	movwf	___flmul@temp
  4668  00B9                     i1l2771:	
  4669  00B9  083E               	movf	___flmul@temp,w
  4670  00BA  00AE               	movwf	??___flmul
  4671  00BB  01AF               	clrf	??___flmul+1
  4672  00BC  01B0               	clrf	??___flmul+2
  4673  00BD  01B1               	clrf	??___flmul+3
  4674  00BE  0831               	movf	??___flmul+3,w
  4675  00BF  00B7               	movwf	___flmul@grs+3
  4676  00C0  0830               	movf	??___flmul+2,w
  4677  00C1  00B6               	movwf	___flmul@grs+2
  4678  00C2  082F               	movf	??___flmul+1,w
  4679  00C3  00B5               	movwf	___flmul@grs+1
  4680  00C4  082E               	movf	??___flmul,w
  4681  00C5  00B4               	movwf	___flmul@grs
  4682  00C6                     i1l2773:	
  4683  00C6  083F               	movf	___flmul@temp+1,w
  4684  00C7  00AE               	movwf	??___flmul
  4685  00C8  01AF               	clrf	??___flmul+1
  4686  00C9  01B0               	clrf	??___flmul+2
  4687  00CA  01B1               	clrf	??___flmul+3
  4688  00CB  0831               	movf	??___flmul+3,w
  4689  00CC  00BD               	movwf	___flmul@prod+3
  4690  00CD  0830               	movf	??___flmul+2,w
  4691  00CE  00BC               	movwf	___flmul@prod+2
  4692  00CF  082F               	movf	??___flmul+1,w
  4693  00D0  00BB               	movwf	___flmul@prod+1
  4694  00D1  082E               	movf	??___flmul,w
  4695  00D2  00BA               	movwf	___flmul@prod
  4696  00D3  0827               	movf	___flmul@b+1,w
  4697  00D4  00AE               	movwf	??___flmul
  4698  00D5  082E               	movf	??___flmul,w
  4699  00D6  00F0               	movwf	__Umul8_16@multiplicand
  4700  00D7  082B               	movf	___flmul@a+1,w
  4701  00D8  120A  158A  233E  120A  118A  	fcall	__Umul8_16
  4702  00DD  0871               	movf	?__Umul8_16+1,w
  4703  00DE  1283               	bcf	3,5	;RP0=0, select bank0
  4704  00DF  1303               	bcf	3,6	;RP1=0, select bank0
  4705  00E0  00BF               	movwf	___flmul@temp+1
  4706  00E1  0870               	movf	?__Umul8_16,w
  4707  00E2  00BE               	movwf	___flmul@temp
  4708  00E3                     i1l2775:	
  4709  00E3  083E               	movf	___flmul@temp,w
  4710  00E4  00AE               	movwf	??___flmul
  4711  00E5  01AF               	clrf	??___flmul+1
  4712  00E6  01B0               	clrf	??___flmul+2
  4713  00E7  01B1               	clrf	??___flmul+3
  4714  00E8  082E               	movf	??___flmul,w
  4715  00E9  07B4               	addwf	___flmul@grs,f
  4716  00EA  082F               	movf	??___flmul+1,w
  4717  00EB  1103               	clrz
  4718  00EC  1803               	skipnc
  4719  00ED  3E01               	addlw	1
  4720  00EE  1903               	skipnz
  4721  00EF  28F1               	goto	u251_21
  4722  00F0  07B5               	addwf	___flmul@grs+1,f
  4723  00F1                     u251_21:	
  4724  00F1  0830               	movf	??___flmul+2,w
  4725  00F2  1103               	clrz
  4726  00F3  1803               	skipnc
  4727  00F4  3E01               	addlw	1
  4728  00F5  1903               	skipnz
  4729  00F6  28F8               	goto	u251_22
  4730  00F7  07B6               	addwf	___flmul@grs+2,f
  4731  00F8                     u251_22:	
  4732  00F8  0831               	movf	??___flmul+3,w
  4733  00F9  1103               	clrz
  4734  00FA  1803               	skipnc
  4735  00FB  3E01               	addlw	1
  4736  00FC  1903               	skipnz
  4737  00FD  28FF               	goto	u251_23
  4738  00FE  07B7               	addwf	___flmul@grs+3,f
  4739  00FF                     u251_23:	
  4740  00FF                     i1l2777:	
  4741  00FF  083F               	movf	___flmul@temp+1,w
  4742  0100  00AE               	movwf	??___flmul
  4743  0101  01AF               	clrf	??___flmul+1
  4744  0102  01B0               	clrf	??___flmul+2
  4745  0103  01B1               	clrf	??___flmul+3
  4746  0104  082E               	movf	??___flmul,w
  4747  0105  07BA               	addwf	___flmul@prod,f
  4748  0106  082F               	movf	??___flmul+1,w
  4749  0107  1103               	clrz
  4750  0108  1803               	skipnc
  4751  0109  3E01               	addlw	1
  4752  010A  1903               	skipnz
  4753  010B  290D               	goto	u252_21
  4754  010C  07BB               	addwf	___flmul@prod+1,f
  4755  010D                     u252_21:	
  4756  010D  0830               	movf	??___flmul+2,w
  4757  010E  1103               	clrz
  4758  010F  1803               	skipnc
  4759  0110  3E01               	addlw	1
  4760  0111  1903               	skipnz
  4761  0112  2914               	goto	u252_22
  4762  0113  07BC               	addwf	___flmul@prod+2,f
  4763  0114                     u252_22:	
  4764  0114  0831               	movf	??___flmul+3,w
  4765  0115  1103               	clrz
  4766  0116  1803               	skipnc
  4767  0117  3E01               	addlw	1
  4768  0118  1903               	skipnz
  4769  0119  291B               	goto	u252_23
  4770  011A  07BD               	addwf	___flmul@prod+3,f
  4771  011B                     u252_23:	
  4772  011B  0828               	movf	___flmul@b+2,w
  4773  011C  00AE               	movwf	??___flmul
  4774  011D  082E               	movf	??___flmul,w
  4775  011E  00F0               	movwf	__Umul8_16@multiplicand
  4776  011F  082A               	movf	___flmul@a,w
  4777  0120  120A  158A  233E  120A  118A  	fcall	__Umul8_16
  4778  0125  0871               	movf	?__Umul8_16+1,w
  4779  0126  1283               	bcf	3,5	;RP0=0, select bank0
  4780  0127  1303               	bcf	3,6	;RP1=0, select bank0
  4781  0128  00BF               	movwf	___flmul@temp+1
  4782  0129  0870               	movf	?__Umul8_16,w
  4783  012A  00BE               	movwf	___flmul@temp
  4784  012B                     i1l2779:	
  4785  012B  083E               	movf	___flmul@temp,w
  4786  012C  00AE               	movwf	??___flmul
  4787  012D  01AF               	clrf	??___flmul+1
  4788  012E  01B0               	clrf	??___flmul+2
  4789  012F  01B1               	clrf	??___flmul+3
  4790  0130  082E               	movf	??___flmul,w
  4791  0131  07B4               	addwf	___flmul@grs,f
  4792  0132  082F               	movf	??___flmul+1,w
  4793  0133  1103               	clrz
  4794  0134  1803               	skipnc
  4795  0135  3E01               	addlw	1
  4796  0136  1903               	skipnz
  4797  0137  2939               	goto	u253_21
  4798  0138  07B5               	addwf	___flmul@grs+1,f
  4799  0139                     u253_21:	
  4800  0139  0830               	movf	??___flmul+2,w
  4801  013A  1103               	clrz
  4802  013B  1803               	skipnc
  4803  013C  3E01               	addlw	1
  4804  013D  1903               	skipnz
  4805  013E  2940               	goto	u253_22
  4806  013F  07B6               	addwf	___flmul@grs+2,f
  4807  0140                     u253_22:	
  4808  0140  0831               	movf	??___flmul+3,w
  4809  0141  1103               	clrz
  4810  0142  1803               	skipnc
  4811  0143  3E01               	addlw	1
  4812  0144  1903               	skipnz
  4813  0145  2947               	goto	u253_23
  4814  0146  07B7               	addwf	___flmul@grs+3,f
  4815  0147                     u253_23:	
  4816  0147                     i1l2781:	
  4817  0147  083F               	movf	___flmul@temp+1,w
  4818  0148  00AE               	movwf	??___flmul
  4819  0149  01AF               	clrf	??___flmul+1
  4820  014A  01B0               	clrf	??___flmul+2
  4821  014B  01B1               	clrf	??___flmul+3
  4822  014C  082E               	movf	??___flmul,w
  4823  014D  07BA               	addwf	___flmul@prod,f
  4824  014E  082F               	movf	??___flmul+1,w
  4825  014F  1103               	clrz
  4826  0150  1803               	skipnc
  4827  0151  3E01               	addlw	1
  4828  0152  1903               	skipnz
  4829  0153  2955               	goto	u254_21
  4830  0154  07BB               	addwf	___flmul@prod+1,f
  4831  0155                     u254_21:	
  4832  0155  0830               	movf	??___flmul+2,w
  4833  0156  1103               	clrz
  4834  0157  1803               	skipnc
  4835  0158  3E01               	addlw	1
  4836  0159  1903               	skipnz
  4837  015A  295C               	goto	u254_22
  4838  015B  07BC               	addwf	___flmul@prod+2,f
  4839  015C                     u254_22:	
  4840  015C  0831               	movf	??___flmul+3,w
  4841  015D  1103               	clrz
  4842  015E  1803               	skipnc
  4843  015F  3E01               	addlw	1
  4844  0160  1903               	skipnz
  4845  0161  2963               	goto	u254_23
  4846  0162  07BD               	addwf	___flmul@prod+3,f
  4847  0163                     u254_23:	
  4848  0163                     i1l2783:	
  4849  0163  3008               	movlw	8
  4850  0164  00AE               	movwf	??___flmul
  4851  0165                     u255_25:	
  4852  0165  1003               	clrc
  4853  0166  0DB4               	rlf	___flmul@grs,f
  4854  0167  0DB5               	rlf	___flmul@grs+1,f
  4855  0168  0DB6               	rlf	___flmul@grs+2,f
  4856  0169  0DB7               	rlf	___flmul@grs+3,f
  4857  016A  0BAE               	decfsz	??___flmul,f
  4858  016B  2965               	goto	u255_25
  4859  016C                     i1l2785:	
  4860  016C  0827               	movf	___flmul@b+1,w
  4861  016D  00AE               	movwf	??___flmul
  4862  016E  082E               	movf	??___flmul,w
  4863  016F  00F0               	movwf	__Umul8_16@multiplicand
  4864  0170  082A               	movf	___flmul@a,w
  4865  0171  120A  158A  233E  120A  118A  	fcall	__Umul8_16
  4866  0176  0871               	movf	?__Umul8_16+1,w
  4867  0177  1283               	bcf	3,5	;RP0=0, select bank0
  4868  0178  1303               	bcf	3,6	;RP1=0, select bank0
  4869  0179  00BF               	movwf	___flmul@temp+1
  4870  017A  0870               	movf	?__Umul8_16,w
  4871  017B  00BE               	movwf	___flmul@temp
  4872  017C                     i1l2787:	
  4873  017C  083E               	movf	___flmul@temp,w
  4874  017D  00AE               	movwf	??___flmul
  4875  017E  083F               	movf	___flmul@temp+1,w
  4876  017F  00AF               	movwf	??___flmul+1
  4877  0180  01B0               	clrf	??___flmul+2
  4878  0181  01B1               	clrf	??___flmul+3
  4879  0182  082E               	movf	??___flmul,w
  4880  0183  07B4               	addwf	___flmul@grs,f
  4881  0184  082F               	movf	??___flmul+1,w
  4882  0185  1103               	clrz
  4883  0186  1803               	skipnc
  4884  0187  3E01               	addlw	1
  4885  0188  1903               	skipnz
  4886  0189  298B               	goto	u256_21
  4887  018A  07B5               	addwf	___flmul@grs+1,f
  4888  018B                     u256_21:	
  4889  018B  0830               	movf	??___flmul+2,w
  4890  018C  1103               	clrz
  4891  018D  1803               	skipnc
  4892  018E  3E01               	addlw	1
  4893  018F  1903               	skipnz
  4894  0190  2992               	goto	u256_22
  4895  0191  07B6               	addwf	___flmul@grs+2,f
  4896  0192                     u256_22:	
  4897  0192  0831               	movf	??___flmul+3,w
  4898  0193  1103               	clrz
  4899  0194  1803               	skipnc
  4900  0195  3E01               	addlw	1
  4901  0196  1903               	skipnz
  4902  0197  2999               	goto	u256_23
  4903  0198  07B7               	addwf	___flmul@grs+3,f
  4904  0199                     u256_23:	
  4905  0199                     i1l2789:	
  4906  0199  0826               	movf	___flmul@b,w
  4907  019A  00AE               	movwf	??___flmul
  4908  019B  082E               	movf	??___flmul,w
  4909  019C  00F0               	movwf	__Umul8_16@multiplicand
  4910  019D  082B               	movf	___flmul@a+1,w
  4911  019E  120A  158A  233E  120A  118A  	fcall	__Umul8_16
  4912  01A3  0871               	movf	?__Umul8_16+1,w
  4913  01A4  1283               	bcf	3,5	;RP0=0, select bank0
  4914  01A5  1303               	bcf	3,6	;RP1=0, select bank0
  4915  01A6  00BF               	movwf	___flmul@temp+1
  4916  01A7  0870               	movf	?__Umul8_16,w
  4917  01A8  00BE               	movwf	___flmul@temp
  4918  01A9                     i1l2791:	
  4919  01A9  083E               	movf	___flmul@temp,w
  4920  01AA  00AE               	movwf	??___flmul
  4921  01AB  083F               	movf	___flmul@temp+1,w
  4922  01AC  00AF               	movwf	??___flmul+1
  4923  01AD  01B0               	clrf	??___flmul+2
  4924  01AE  01B1               	clrf	??___flmul+3
  4925  01AF  082E               	movf	??___flmul,w
  4926  01B0  07B4               	addwf	___flmul@grs,f
  4927  01B1  082F               	movf	??___flmul+1,w
  4928  01B2  1103               	clrz
  4929  01B3  1803               	skipnc
  4930  01B4  3E01               	addlw	1
  4931  01B5  1903               	skipnz
  4932  01B6  29B8               	goto	u257_21
  4933  01B7  07B5               	addwf	___flmul@grs+1,f
  4934  01B8                     u257_21:	
  4935  01B8  0830               	movf	??___flmul+2,w
  4936  01B9  1103               	clrz
  4937  01BA  1803               	skipnc
  4938  01BB  3E01               	addlw	1
  4939  01BC  1903               	skipnz
  4940  01BD  29BF               	goto	u257_22
  4941  01BE  07B6               	addwf	___flmul@grs+2,f
  4942  01BF                     u257_22:	
  4943  01BF  0831               	movf	??___flmul+3,w
  4944  01C0  1103               	clrz
  4945  01C1  1803               	skipnc
  4946  01C2  3E01               	addlw	1
  4947  01C3  1903               	skipnz
  4948  01C4  29C6               	goto	u257_23
  4949  01C5  07B7               	addwf	___flmul@grs+3,f
  4950  01C6                     u257_23:	
  4951  01C6                     i1l2793:	
  4952  01C6  3008               	movlw	8
  4953  01C7  00AE               	movwf	??___flmul
  4954  01C8                     u258_25:	
  4955  01C8  1003               	clrc
  4956  01C9  0DB4               	rlf	___flmul@grs,f
  4957  01CA  0DB5               	rlf	___flmul@grs+1,f
  4958  01CB  0DB6               	rlf	___flmul@grs+2,f
  4959  01CC  0DB7               	rlf	___flmul@grs+3,f
  4960  01CD  0BAE               	decfsz	??___flmul,f
  4961  01CE  29C8               	goto	u258_25
  4962  01CF  0826               	movf	___flmul@b,w
  4963  01D0  00AE               	movwf	??___flmul
  4964  01D1  082E               	movf	??___flmul,w
  4965  01D2  00F0               	movwf	__Umul8_16@multiplicand
  4966  01D3  082A               	movf	___flmul@a,w
  4967  01D4  120A  158A  233E  120A  118A  	fcall	__Umul8_16
  4968  01D9  0871               	movf	?__Umul8_16+1,w
  4969  01DA  1283               	bcf	3,5	;RP0=0, select bank0
  4970  01DB  1303               	bcf	3,6	;RP1=0, select bank0
  4971  01DC  00BF               	movwf	___flmul@temp+1
  4972  01DD  0870               	movf	?__Umul8_16,w
  4973  01DE  00BE               	movwf	___flmul@temp
  4974  01DF                     i1l2795:	
  4975  01DF  083E               	movf	___flmul@temp,w
  4976  01E0  00AE               	movwf	??___flmul
  4977  01E1  083F               	movf	___flmul@temp+1,w
  4978  01E2  00AF               	movwf	??___flmul+1
  4979  01E3  01B0               	clrf	??___flmul+2
  4980  01E4  01B1               	clrf	??___flmul+3
  4981  01E5  082E               	movf	??___flmul,w
  4982  01E6  07B4               	addwf	___flmul@grs,f
  4983  01E7  082F               	movf	??___flmul+1,w
  4984  01E8  1103               	clrz
  4985  01E9  1803               	skipnc
  4986  01EA  3E01               	addlw	1
  4987  01EB  1903               	skipnz
  4988  01EC  29EE               	goto	u259_21
  4989  01ED  07B5               	addwf	___flmul@grs+1,f
  4990  01EE                     u259_21:	
  4991  01EE  0830               	movf	??___flmul+2,w
  4992  01EF  1103               	clrz
  4993  01F0  1803               	skipnc
  4994  01F1  3E01               	addlw	1
  4995  01F2  1903               	skipnz
  4996  01F3  29F5               	goto	u259_22
  4997  01F4  07B6               	addwf	___flmul@grs+2,f
  4998  01F5                     u259_22:	
  4999  01F5  0831               	movf	??___flmul+3,w
  5000  01F6  1103               	clrz
  5001  01F7  1803               	skipnc
  5002  01F8  3E01               	addlw	1
  5003  01F9  1903               	skipnz
  5004  01FA  29FC               	goto	u259_23
  5005  01FB  07B7               	addwf	___flmul@grs+3,f
  5006  01FC                     u259_23:	
  5007  01FC                     i1l2797:	
  5008  01FC  0827               	movf	___flmul@b+1,w
  5009  01FD  00AE               	movwf	??___flmul
  5010  01FE  082E               	movf	??___flmul,w
  5011  01FF  00F0               	movwf	__Umul8_16@multiplicand
  5012  0200  082C               	movf	___flmul@a+2,w
  5013  0201  120A  158A  233E  120A  118A  	fcall	__Umul8_16
  5014  0206  0871               	movf	?__Umul8_16+1,w
  5015  0207  1283               	bcf	3,5	;RP0=0, select bank0
  5016  0208  1303               	bcf	3,6	;RP1=0, select bank0
  5017  0209  00BF               	movwf	___flmul@temp+1
  5018  020A  0870               	movf	?__Umul8_16,w
  5019  020B  00BE               	movwf	___flmul@temp
  5020  020C  083E               	movf	___flmul@temp,w
  5021  020D  00AE               	movwf	??___flmul
  5022  020E  083F               	movf	___flmul@temp+1,w
  5023  020F  00AF               	movwf	??___flmul+1
  5024  0210  01B0               	clrf	??___flmul+2
  5025  0211  01B1               	clrf	??___flmul+3
  5026  0212  082E               	movf	??___flmul,w
  5027  0213  07BA               	addwf	___flmul@prod,f
  5028  0214  082F               	movf	??___flmul+1,w
  5029  0215  1103               	clrz
  5030  0216  1803               	skipnc
  5031  0217  3E01               	addlw	1
  5032  0218  1903               	skipnz
  5033  0219  2A1B               	goto	u260_21
  5034  021A  07BB               	addwf	___flmul@prod+1,f
  5035  021B                     u260_21:	
  5036  021B  0830               	movf	??___flmul+2,w
  5037  021C  1103               	clrz
  5038  021D  1803               	skipnc
  5039  021E  3E01               	addlw	1
  5040  021F  1903               	skipnz
  5041  0220  2A22               	goto	u260_22
  5042  0221  07BC               	addwf	___flmul@prod+2,f
  5043  0222                     u260_22:	
  5044  0222  0831               	movf	??___flmul+3,w
  5045  0223  1103               	clrz
  5046  0224  1803               	skipnc
  5047  0225  3E01               	addlw	1
  5048  0226  1903               	skipnz
  5049  0227  2A29               	goto	u260_23
  5050  0228  07BD               	addwf	___flmul@prod+3,f
  5051  0229                     u260_23:	
  5052  0229                     i1l2799:	
  5053  0229  0828               	movf	___flmul@b+2,w
  5054  022A  00AE               	movwf	??___flmul
  5055  022B  082E               	movf	??___flmul,w
  5056  022C  00F0               	movwf	__Umul8_16@multiplicand
  5057  022D  082B               	movf	___flmul@a+1,w
  5058  022E  120A  158A  233E  120A  118A  	fcall	__Umul8_16
  5059  0233  0871               	movf	?__Umul8_16+1,w
  5060  0234  1283               	bcf	3,5	;RP0=0, select bank0
  5061  0235  1303               	bcf	3,6	;RP1=0, select bank0
  5062  0236  00BF               	movwf	___flmul@temp+1
  5063  0237  0870               	movf	?__Umul8_16,w
  5064  0238  00BE               	movwf	___flmul@temp
  5065  0239                     i1l2801:	
  5066  0239  083E               	movf	___flmul@temp,w
  5067  023A  00AE               	movwf	??___flmul
  5068  023B  083F               	movf	___flmul@temp+1,w
  5069  023C  00AF               	movwf	??___flmul+1
  5070  023D  01B0               	clrf	??___flmul+2
  5071  023E  01B1               	clrf	??___flmul+3
  5072  023F  082E               	movf	??___flmul,w
  5073  0240  07BA               	addwf	___flmul@prod,f
  5074  0241  082F               	movf	??___flmul+1,w
  5075  0242  1103               	clrz
  5076  0243  1803               	skipnc
  5077  0244  3E01               	addlw	1
  5078  0245  1903               	skipnz
  5079  0246  2A48               	goto	u261_21
  5080  0247  07BB               	addwf	___flmul@prod+1,f
  5081  0248                     u261_21:	
  5082  0248  0830               	movf	??___flmul+2,w
  5083  0249  1103               	clrz
  5084  024A  1803               	skipnc
  5085  024B  3E01               	addlw	1
  5086  024C  1903               	skipnz
  5087  024D  2A4F               	goto	u261_22
  5088  024E  07BC               	addwf	___flmul@prod+2,f
  5089  024F                     u261_22:	
  5090  024F  0831               	movf	??___flmul+3,w
  5091  0250  1103               	clrz
  5092  0251  1803               	skipnc
  5093  0252  3E01               	addlw	1
  5094  0253  1903               	skipnz
  5095  0254  2A56               	goto	u261_23
  5096  0255  07BD               	addwf	___flmul@prod+3,f
  5097  0256                     u261_23:	
  5098  0256  0828               	movf	___flmul@b+2,w
  5099  0257  00AE               	movwf	??___flmul
  5100  0258  082E               	movf	??___flmul,w
  5101  0259  00F0               	movwf	__Umul8_16@multiplicand
  5102  025A  082C               	movf	___flmul@a+2,w
  5103  025B  120A  158A  233E  120A  118A  	fcall	__Umul8_16
  5104  0260  0871               	movf	?__Umul8_16+1,w
  5105  0261  1283               	bcf	3,5	;RP0=0, select bank0
  5106  0262  1303               	bcf	3,6	;RP1=0, select bank0
  5107  0263  00BF               	movwf	___flmul@temp+1
  5108  0264  0870               	movf	?__Umul8_16,w
  5109  0265  00BE               	movwf	___flmul@temp
  5110  0266                     i1l2803:	
  5111  0266  083E               	movf	___flmul@temp,w
  5112  0267  00AE               	movwf	??___flmul
  5113  0268  083F               	movf	___flmul@temp+1,w
  5114  0269  00AF               	movwf	??___flmul+1
  5115  026A  01B0               	clrf	??___flmul+2
  5116  026B  01B1               	clrf	??___flmul+3
  5117  026C  3008               	movlw	8
  5118  026D                     u262_25:	
  5119  026D  1003               	clrc
  5120  026E  0DAE               	rlf	??___flmul,f
  5121  026F  0DAF               	rlf	??___flmul+1,f
  5122  0270  0DB0               	rlf	??___flmul+2,f
  5123  0271  0DB1               	rlf	??___flmul+3,f
  5124  0272                     u262_20:	
  5125  0272  3EFF               	addlw	-1
  5126  0273  1D03               	skipz
  5127  0274  2A6D               	goto	u262_25
  5128  0275  082E               	movf	??___flmul,w
  5129  0276  07BA               	addwf	___flmul@prod,f
  5130  0277  082F               	movf	??___flmul+1,w
  5131  0278  1103               	clrz
  5132  0279  1803               	skipnc
  5133  027A  3E01               	addlw	1
  5134  027B  1903               	skipnz
  5135  027C  2A7E               	goto	u263_21
  5136  027D  07BB               	addwf	___flmul@prod+1,f
  5137  027E                     u263_21:	
  5138  027E  0830               	movf	??___flmul+2,w
  5139  027F  1103               	clrz
  5140  0280  1803               	skipnc
  5141  0281  3E01               	addlw	1
  5142  0282  1903               	skipnz
  5143  0283  2A85               	goto	u263_22
  5144  0284  07BC               	addwf	___flmul@prod+2,f
  5145  0285                     u263_22:	
  5146  0285  0831               	movf	??___flmul+3,w
  5147  0286  1103               	clrz
  5148  0287  1803               	skipnc
  5149  0288  3E01               	addlw	1
  5150  0289  1903               	skipnz
  5151  028A  2A8C               	goto	u263_23
  5152  028B  07BD               	addwf	___flmul@prod+3,f
  5153  028C                     u263_23:	
  5154  028C                     i1l2805:	
  5155  028C  0834               	movf	___flmul@grs,w
  5156  028D  00AE               	movwf	??___flmul
  5157  028E  0835               	movf	___flmul@grs+1,w
  5158  028F  00AF               	movwf	??___flmul+1
  5159  0290  0836               	movf	___flmul@grs+2,w
  5160  0291  00B0               	movwf	??___flmul+2
  5161  0292  0837               	movf	___flmul@grs+3,w
  5162  0293  00B1               	movwf	??___flmul+3
  5163  0294  3018               	movlw	24
  5164  0295                     u264_25:	
  5165  0295  1003               	clrc
  5166  0296  0CB1               	rrf	??___flmul+3,f
  5167  0297  0CB0               	rrf	??___flmul+2,f
  5168  0298  0CAF               	rrf	??___flmul+1,f
  5169  0299  0CAE               	rrf	??___flmul,f
  5170  029A                     u264_20:	
  5171  029A  3EFF               	addlw	-1
  5172  029B  1D03               	skipz
  5173  029C  2A95               	goto	u264_25
  5174  029D  082E               	movf	??___flmul,w
  5175  029E  07BA               	addwf	___flmul@prod,f
  5176  029F  082F               	movf	??___flmul+1,w
  5177  02A0  1103               	clrz
  5178  02A1  1803               	skipnc
  5179  02A2  3E01               	addlw	1
  5180  02A3  1903               	skipnz
  5181  02A4  2AA6               	goto	u265_21
  5182  02A5  07BB               	addwf	___flmul@prod+1,f
  5183  02A6                     u265_21:	
  5184  02A6  0830               	movf	??___flmul+2,w
  5185  02A7  1103               	clrz
  5186  02A8  1803               	skipnc
  5187  02A9  3E01               	addlw	1
  5188  02AA  1903               	skipnz
  5189  02AB  2AAD               	goto	u265_22
  5190  02AC  07BC               	addwf	___flmul@prod+2,f
  5191  02AD                     u265_22:	
  5192  02AD  0831               	movf	??___flmul+3,w
  5193  02AE  1103               	clrz
  5194  02AF  1803               	skipnc
  5195  02B0  3E01               	addlw	1
  5196  02B1  1903               	skipnz
  5197  02B2  2AB4               	goto	u265_23
  5198  02B3  07BD               	addwf	___flmul@prod+3,f
  5199  02B4                     u265_23:	
  5200  02B4                     i1l2807:	
  5201  02B4  3008               	movlw	8
  5202  02B5  00AE               	movwf	??___flmul
  5203  02B6                     u266_25:	
  5204  02B6  1003               	clrc
  5205  02B7  0DB4               	rlf	___flmul@grs,f
  5206  02B8  0DB5               	rlf	___flmul@grs+1,f
  5207  02B9  0DB6               	rlf	___flmul@grs+2,f
  5208  02BA  0DB7               	rlf	___flmul@grs+3,f
  5209  02BB  0BAE               	decfsz	??___flmul,f
  5210  02BC  2AB6               	goto	u266_25
  5211  02BD                     i1l2809:	
  5212  02BD  0839               	movf	___flmul@bexp,w
  5213  02BE  0738               	addwf	___flmul@aexp,w
  5214  02BF  00AE               	movwf	??___flmul
  5215  02C0  01AF               	clrf	??___flmul+1
  5216  02C1  0DAF               	rlf	??___flmul+1,f
  5217  02C2  082E               	movf	??___flmul,w
  5218  02C3  3E82               	addlw	130
  5219  02C4  00BE               	movwf	___flmul@temp
  5220  02C5  082F               	movf	??___flmul+1,w
  5221  02C6  1803               	skipnc
  5222  02C7  3E01               	addlw	1
  5223  02C8  3EFF               	addlw	255
  5224  02C9  00BF               	movwf	___flmul@temp+1
  5225  02CA  2AE8               	goto	i1l2821
  5226  02CB                     i1l2811:	
  5227  02CB  3001               	movlw	1
  5228  02CC  00AE               	movwf	??___flmul
  5229  02CD                     u267_25:	
  5230  02CD  1003               	clrc
  5231  02CE  0DBA               	rlf	___flmul@prod,f
  5232  02CF  0DBB               	rlf	___flmul@prod+1,f
  5233  02D0  0DBC               	rlf	___flmul@prod+2,f
  5234  02D1  0DBD               	rlf	___flmul@prod+3,f
  5235  02D2  0BAE               	decfsz	??___flmul,f
  5236  02D3  2ACD               	goto	u267_25
  5237  02D4                     i1l2813:	
  5238  02D4  1FB7               	btfss	___flmul@grs+3,7
  5239  02D5  2AD7               	goto	u268_21
  5240  02D6  2AD8               	goto	u268_20
  5241  02D7                     u268_21:	
  5242  02D7  2AD9               	goto	i1l2817
  5243  02D8                     u268_20:	
  5244  02D8                     i1l2815:	
  5245  02D8  143A               	bsf	___flmul@prod,0
  5246  02D9                     i1l2817:	
  5247  02D9  3001               	movlw	1
  5248  02DA  00AE               	movwf	??___flmul
  5249  02DB                     u269_25:	
  5250  02DB  1003               	clrc
  5251  02DC  0DB4               	rlf	___flmul@grs,f
  5252  02DD  0DB5               	rlf	___flmul@grs+1,f
  5253  02DE  0DB6               	rlf	___flmul@grs+2,f
  5254  02DF  0DB7               	rlf	___flmul@grs+3,f
  5255  02E0  0BAE               	decfsz	??___flmul,f
  5256  02E1  2ADB               	goto	u269_25
  5257  02E2                     i1l2819:	
  5258  02E2  30FF               	movlw	255
  5259  02E3  07BE               	addwf	___flmul@temp,f
  5260  02E4  1803               	skipnc
  5261  02E5  0ABF               	incf	___flmul@temp+1,f
  5262  02E6  30FF               	movlw	255
  5263  02E7  07BF               	addwf	___flmul@temp+1,f
  5264  02E8                     i1l2821:	
  5265  02E8  1FBC               	btfss	___flmul@prod+2,7
  5266  02E9  2AEB               	goto	u270_21
  5267  02EA  2AEC               	goto	u270_20
  5268  02EB                     u270_21:	
  5269  02EB  2ACB               	goto	i1l2811
  5270  02EC                     u270_20:	
  5271  02EC                     i1l2823:	
  5272  02EC  01B8               	clrf	___flmul@aexp
  5273  02ED                     i1l2825:	
  5274  02ED  1FB7               	btfss	___flmul@grs+3,7
  5275  02EE  2AF0               	goto	u271_21
  5276  02EF  2AF1               	goto	u271_20
  5277  02F0                     u271_21:	
  5278  02F0  2B0D               	goto	i1l2833
  5279  02F1                     u271_20:	
  5280  02F1                     i1l2827:	
  5281  02F1  30FF               	movlw	255
  5282  02F2  0534               	andwf	___flmul@grs,w
  5283  02F3  00AE               	movwf	??___flmul
  5284  02F4  30FF               	movlw	255
  5285  02F5  0535               	andwf	___flmul@grs+1,w
  5286  02F6  00AF               	movwf	??___flmul+1
  5287  02F7  30FF               	movlw	255
  5288  02F8  0536               	andwf	___flmul@grs+2,w
  5289  02F9  00B0               	movwf	??___flmul+2
  5290  02FA  307F               	movlw	127
  5291  02FB  0537               	andwf	___flmul@grs+3,w
  5292  02FC  00B1               	movwf	??___flmul+3
  5293  02FD  0831               	movf	??___flmul+3,w
  5294  02FE  0430               	iorwf	??___flmul+2,w
  5295  02FF  042F               	iorwf	??___flmul+1,w
  5296  0300  042E               	iorwf	??___flmul,w
  5297  0301  1903               	skipnz
  5298  0302  2B04               	goto	u272_21
  5299  0303  2B05               	goto	u272_20
  5300  0304                     u272_21:	
  5301  0304  2B08               	goto	i1l852
  5302  0305                     u272_20:	
  5303  0305                     i1l2829:	
  5304  0305  01B8               	clrf	___flmul@aexp
  5305  0306  0AB8               	incf	___flmul@aexp,f
  5306  0307  2B0D               	goto	i1l2833
  5307  0308                     i1l852:	
  5308  0308  1C3A               	btfss	___flmul@prod,0
  5309  0309  2B0B               	goto	u273_21
  5310  030A  2B0C               	goto	u273_20
  5311  030B                     u273_21:	
  5312  030B  2B0D               	goto	i1l2833
  5313  030C                     u273_20:	
  5314  030C  2B05               	goto	i1l2829
  5315  030D                     i1l2833:	
  5316  030D  0838               	movf	___flmul@aexp,w
  5317  030E  1903               	btfsc	3,2
  5318  030F  2B11               	goto	u274_21
  5319  0310  2B12               	goto	u274_20
  5320  0311                     u274_21:	
  5321  0311  2B43               	goto	i1l2843
  5322  0312                     u274_20:	
  5323  0312                     i1l2835:	
  5324  0312  3001               	movlw	1
  5325  0313  07BA               	addwf	___flmul@prod,f
  5326  0314  3000               	movlw	0
  5327  0315  1803               	skipnc
  5328  0316  3001               	movlw	1
  5329  0317  07BB               	addwf	___flmul@prod+1,f
  5330  0318  3000               	movlw	0
  5331  0319  1803               	skipnc
  5332  031A  3001               	movlw	1
  5333  031B  07BC               	addwf	___flmul@prod+2,f
  5334  031C  3000               	movlw	0
  5335  031D  1803               	skipnc
  5336  031E  3001               	movlw	1
  5337  031F  07BD               	addwf	___flmul@prod+3,f
  5338  0320                     i1l2837:	
  5339  0320  1C3D               	btfss	___flmul@prod+3,0
  5340  0321  2B23               	goto	u275_21
  5341  0322  2B24               	goto	u275_20
  5342  0323                     u275_21:	
  5343  0323  2B43               	goto	i1l2843
  5344  0324                     u275_20:	
  5345  0324                     i1l2839:	
  5346  0324  083A               	movf	___flmul@prod,w
  5347  0325  00AE               	movwf	??___flmul
  5348  0326  083B               	movf	___flmul@prod+1,w
  5349  0327  00AF               	movwf	??___flmul+1
  5350  0328  083C               	movf	___flmul@prod+2,w
  5351  0329  00B0               	movwf	??___flmul+2
  5352  032A  083D               	movf	___flmul@prod+3,w
  5353  032B  00B1               	movwf	??___flmul+3
  5354  032C  3001               	movlw	1
  5355  032D  00B2               	movwf	??___flmul+4
  5356  032E                     u276_25:	
  5357  032E  0D31               	rlf	??___flmul+3,w
  5358  032F  0CB1               	rrf	??___flmul+3,f
  5359  0330  0CB0               	rrf	??___flmul+2,f
  5360  0331  0CAF               	rrf	??___flmul+1,f
  5361  0332  0CAE               	rrf	??___flmul,f
  5362  0333                     u276_20:	
  5363  0333  0BB2               	decfsz	??___flmul+4,f
  5364  0334  2B2E               	goto	u276_25
  5365  0335  0831               	movf	??___flmul+3,w
  5366  0336  00BD               	movwf	___flmul@prod+3
  5367  0337  0830               	movf	??___flmul+2,w
  5368  0338  00BC               	movwf	___flmul@prod+2
  5369  0339  082F               	movf	??___flmul+1,w
  5370  033A  00BB               	movwf	___flmul@prod+1
  5371  033B  082E               	movf	??___flmul,w
  5372  033C  00BA               	movwf	___flmul@prod
  5373  033D                     i1l2841:	
  5374  033D  3001               	movlw	1
  5375  033E  07BE               	addwf	___flmul@temp,f
  5376  033F  1803               	skipnc
  5377  0340  0ABF               	incf	___flmul@temp+1,f
  5378  0341  3000               	movlw	0
  5379  0342  07BF               	addwf	___flmul@temp+1,f
  5380  0343                     i1l2843:	
  5381  0343  083F               	movf	___flmul@temp+1,w
  5382  0344  3A80               	xorlw	128
  5383  0345  00FF               	movwf	btemp+1
  5384  0346  3080               	movlw	128
  5385  0347  027F               	subwf	btemp+1,w
  5386  0348  1D03               	skipz
  5387  0349  2B4C               	goto	u277_25
  5388  034A  30FF               	movlw	255
  5389  034B  023E               	subwf	___flmul@temp,w
  5390  034C                     u277_25:	
  5391  034C  1C03               	skipc
  5392  034D  2B4F               	goto	u277_21
  5393  034E  2B50               	goto	u277_20
  5394  034F                     u277_21:	
  5395  034F  2B5B               	goto	i1l2847
  5396  0350                     u277_20:	
  5397  0350                     i1l2845:	
  5398  0350  307F               	movlw	127
  5399  0351  1283               	bcf	3,5	;RP0=0, select bank0
  5400  0352  1303               	bcf	3,6	;RP1=0, select bank0
  5401  0353  00BD               	movwf	___flmul@prod+3
  5402  0354  3080               	movlw	128
  5403  0355  00BC               	movwf	___flmul@prod+2
  5404  0356  3000               	movlw	0
  5405  0357  00BB               	movwf	___flmul@prod+1
  5406  0358  3000               	movlw	0
  5407  0359  00BA               	movwf	___flmul@prod
  5408  035A  2B90               	goto	i1l858
  5409  035B                     i1l2847:	
  5410  035B  1283               	bcf	3,5	;RP0=0, select bank0
  5411  035C  1303               	bcf	3,6	;RP1=0, select bank0
  5412  035D  083F               	movf	___flmul@temp+1,w
  5413  035E  3A80               	xorlw	128
  5414  035F  00FF               	movwf	btemp+1
  5415  0360  3080               	movlw	128
  5416  0361  027F               	subwf	btemp+1,w
  5417  0362  1D03               	skipz
  5418  0363  2B66               	goto	u278_25
  5419  0364  3001               	movlw	1
  5420  0365  023E               	subwf	___flmul@temp,w
  5421  0366                     u278_25:	
  5422  0366  1803               	skipnc
  5423  0367  2B69               	goto	u278_21
  5424  0368  2B6A               	goto	u278_20
  5425  0369                     u278_21:	
  5426  0369  2B76               	goto	i1l2853
  5427  036A                     u278_20:	
  5428  036A                     i1l2849:	
  5429  036A  3000               	movlw	0
  5430  036B  1283               	bcf	3,5	;RP0=0, select bank0
  5431  036C  1303               	bcf	3,6	;RP1=0, select bank0
  5432  036D  00BD               	movwf	___flmul@prod+3
  5433  036E  3000               	movlw	0
  5434  036F  00BC               	movwf	___flmul@prod+2
  5435  0370  3000               	movlw	0
  5436  0371  00BB               	movwf	___flmul@prod+1
  5437  0372  3000               	movlw	0
  5438  0373  00BA               	movwf	___flmul@prod
  5439  0374                     i1l2851:	
  5440  0374  01B3               	clrf	___flmul@sign
  5441  0375  2B90               	goto	i1l858
  5442  0376                     i1l2853:	
  5443  0376  1283               	bcf	3,5	;RP0=0, select bank0
  5444  0377  1303               	bcf	3,6	;RP1=0, select bank0
  5445  0378  083E               	movf	___flmul@temp,w
  5446  0379  00AE               	movwf	??___flmul
  5447  037A  082E               	movf	??___flmul,w
  5448  037B  00B9               	movwf	___flmul@bexp
  5449  037C  30FF               	movlw	255
  5450  037D  05BA               	andwf	___flmul@prod,f
  5451  037E  30FF               	movlw	255
  5452  037F  05BB               	andwf	___flmul@prod+1,f
  5453  0380  307F               	movlw	127
  5454  0381  05BC               	andwf	___flmul@prod+2,f
  5455  0382  3000               	movlw	0
  5456  0383  05BD               	andwf	___flmul@prod+3,f
  5457  0384                     i1l2855:	
  5458  0384  1C39               	btfss	___flmul@bexp,0
  5459  0385  2B87               	goto	u279_21
  5460  0386  2B88               	goto	u279_20
  5461  0387                     u279_21:	
  5462  0387  2B89               	goto	i1l2859
  5463  0388                     u279_20:	
  5464  0388                     i1l2857:	
  5465  0388  17BC               	bsf	___flmul@prod+2,7
  5466  0389                     i1l2859:	
  5467  0389  0839               	movf	___flmul@bexp,w
  5468  038A  00AE               	movwf	??___flmul
  5469  038B  1003               	clrc
  5470  038C  0C2E               	rrf	??___flmul,w
  5471  038D  00AF               	movwf	??___flmul+1
  5472  038E  082F               	movf	??___flmul+1,w
  5473  038F  00BD               	movwf	___flmul@prod+3
  5474  0390                     i1l858:	
  5475  0390  0833               	movf	___flmul@sign,w
  5476  0391  00AE               	movwf	??___flmul
  5477  0392  082E               	movf	??___flmul,w
  5478  0393  04BD               	iorwf	___flmul@prod+3,f
  5479  0394                     i1l2861:	
  5480  0394  083D               	movf	___flmul@prod+3,w
  5481  0395  00A9               	movwf	?___flmul+3
  5482  0396  083C               	movf	___flmul@prod+2,w
  5483  0397  00A8               	movwf	?___flmul+2
  5484  0398  083B               	movf	___flmul@prod+1,w
  5485  0399  00A7               	movwf	?___flmul+1
  5486  039A  083A               	movf	___flmul@prod,w
  5487  039B  00A6               	movwf	?___flmul
  5488  039C                     i1l846:	
  5489  039C  0008               	return
  5490  039D                     __end_of___flmul:	
  5491                           
  5492                           	psect	text30
  5493  0B3E                     __ptext30:	
  5494 ;; *************** function __Umul8_16 *****************
  5495 ;; Defined at:
  5496 ;;		line 4 in file "C:\Program Files (x86)\Microchip\xc8\v2.10\pic\sources\c90\common\Umul8_16.c"
  5497 ;; Parameters:    Size  Location     Type
  5498 ;;  multiplier      1    wreg     unsigned char 
  5499 ;;  multiplicand    1    0[COMMON] unsigned char 
  5500 ;; Auto vars:     Size  Location     Type
  5501 ;;  multiplier      1    8[COMMON] unsigned char 
  5502 ;;  word_mpld       2    6[COMMON] unsigned int 
  5503 ;;  product         2    4[COMMON] unsigned int 
  5504 ;; Return value:  Size  Location     Type
  5505 ;;                  2    0[COMMON] unsigned int 
  5506 ;; Registers used:
  5507 ;;		wreg, status,2, status,0
  5508 ;; Tracked objects:
  5509 ;;		On entry : 0/0
  5510 ;;		On exit  : 0/0
  5511 ;;		Unchanged: 0/0
  5512 ;; Data sizes:     COMMON   BANK0   BANK1   BANK3   BANK2
  5513 ;;      Params:         2       0       0       0       0
  5514 ;;      Locals:         5       0       0       0       0
  5515 ;;      Temps:          2       0       0       0       0
  5516 ;;      Totals:         9       0       0       0       0
  5517 ;;Total ram usage:        9 bytes
  5518 ;; Hardware stack levels used:    1
  5519 ;; This function calls:
  5520 ;;		Nothing
  5521 ;; This function is called by:
  5522 ;;		___flmul
  5523 ;; This function uses a non-reentrant model
  5524 ;;
  5525                           
  5526                           
  5527                           ;psect for function __Umul8_16
  5528  0B3E                     __Umul8_16:	
  5529                           
  5530                           ;incstack = 0
  5531                           ; Regs used in __Umul8_16: [wreg+status,2+status,0]
  5532                           ;__Umul8_16@multiplier stored from wreg
  5533  0B3E  00F8               	movwf	__Umul8_16@multiplier
  5534  0B3F                     i1l2423:	
  5535  0B3F  01F4               	clrf	__Umul8_16@product
  5536  0B40  01F5               	clrf	__Umul8_16@product+1
  5537  0B41                     i1l2425:	
  5538  0B41  0870               	movf	__Umul8_16@multiplicand,w
  5539  0B42  00F2               	movwf	??__Umul8_16
  5540  0B43  01F3               	clrf	??__Umul8_16+1
  5541  0B44  0872               	movf	??__Umul8_16,w
  5542  0B45  00F6               	movwf	__Umul8_16@word_mpld
  5543  0B46  0873               	movf	??__Umul8_16+1,w
  5544  0B47  00F7               	movwf	__Umul8_16@word_mpld+1
  5545  0B48                     i1l2427:	
  5546  0B48  1C78               	btfss	__Umul8_16@multiplier,0
  5547  0B49  2B4B               	goto	u195_21
  5548  0B4A  2B4C               	goto	u195_20
  5549  0B4B                     u195_21:	
  5550  0B4B  2B52               	goto	i1l903
  5551  0B4C                     u195_20:	
  5552  0B4C                     i1l2429:	
  5553  0B4C  0876               	movf	__Umul8_16@word_mpld,w
  5554  0B4D  07F4               	addwf	__Umul8_16@product,f
  5555  0B4E  1803               	skipnc
  5556  0B4F  0AF5               	incf	__Umul8_16@product+1,f
  5557  0B50  0877               	movf	__Umul8_16@word_mpld+1,w
  5558  0B51  07F5               	addwf	__Umul8_16@product+1,f
  5559  0B52                     i1l903:	
  5560  0B52  3001               	movlw	1
  5561  0B53                     u196_25:	
  5562  0B53  1003               	clrc
  5563  0B54  0DF6               	rlf	__Umul8_16@word_mpld,f
  5564  0B55  0DF7               	rlf	__Umul8_16@word_mpld+1,f
  5565  0B56  3EFF               	addlw	-1
  5566  0B57  1D03               	skipz
  5567  0B58  2B53               	goto	u196_25
  5568  0B59  1003               	clrc
  5569  0B5A  0CF8               	rrf	__Umul8_16@multiplier,f
  5570  0B5B                     i1l2431:	
  5571  0B5B  0878               	movf	__Umul8_16@multiplier,w
  5572  0B5C  1D03               	btfss	3,2
  5573  0B5D  2B5F               	goto	u197_21
  5574  0B5E  2B60               	goto	u197_20
  5575  0B5F                     u197_21:	
  5576  0B5F  2B48               	goto	i1l2427
  5577  0B60                     u197_20:	
  5578  0B60                     i1l2433:	
  5579  0B60  0875               	movf	__Umul8_16@product+1,w
  5580  0B61  00F1               	movwf	?__Umul8_16+1
  5581  0B62  0874               	movf	__Umul8_16@product,w
  5582  0B63  00F0               	movwf	?__Umul8_16
  5583  0B64                     i1l905:	
  5584  0B64  0008               	return
  5585  0B65                     __end_of__Umul8_16:	
  5586                           
  5587                           	psect	text31
  5588  039D                     __ptext31:	
  5589 ;; *************** function ___fldiv *****************
  5590 ;; Defined at:
  5591 ;;		line 8 in file "C:\Program Files (x86)\Microchip\xc8\v2.10\pic\sources\c90\common\sprcdiv.c"
  5592 ;; Parameters:    Size  Location     Type
  5593 ;;  a               4    6[BANK0 ] unsigned int 
  5594 ;;  b               4   10[BANK0 ] unsigned int 
  5595 ;; Auto vars:     Size  Location     Type
  5596 ;;  grs             4   26[BANK0 ] unsigned long 
  5597 ;;  rem             4   19[BANK0 ] unsigned long 
  5598 ;;  new_exp         2   24[BANK0 ] int 
  5599 ;;  aexp            1   31[BANK0 ] unsigned char 
  5600 ;;  bexp            1   30[BANK0 ] unsigned char 
  5601 ;;  sign            1   23[BANK0 ] unsigned char 
  5602 ;; Return value:  Size  Location     Type
  5603 ;;                  4    6[BANK0 ] unsigned char 
  5604 ;; Registers used:
  5605 ;;		wreg, status,2, status,0, btemp+1
  5606 ;; Tracked objects:
  5607 ;;		On entry : 0/0
  5608 ;;		On exit  : 0/0
  5609 ;;		Unchanged: 0/0
  5610 ;; Data sizes:     COMMON   BANK0   BANK1   BANK3   BANK2
  5611 ;;      Params:         0       8       0       0       0
  5612 ;;      Locals:         0      13       0       0       0
  5613 ;;      Temps:          0       5       0       0       0
  5614 ;;      Totals:         0      26       0       0       0
  5615 ;;Total ram usage:       26 bytes
  5616 ;; Hardware stack levels used:    1
  5617 ;; This function calls:
  5618 ;;		Nothing
  5619 ;; This function is called by:
  5620 ;;		_temp_sensor_read
  5621 ;; This function uses a non-reentrant model
  5622 ;;
  5623                           
  5624                           
  5625                           ;psect for function ___fldiv
  5626  039D                     ___fldiv:	
  5627  039D                     i1l2583:	
  5628                           ;incstack = 0
  5629                           ; Regs used in ___fldiv: [wreg+status,2+status,0+btemp+1]
  5630                           
  5631  039D  1283               	bcf	3,5	;RP0=0, select bank0
  5632  039E  1303               	bcf	3,6	;RP1=0, select bank0
  5633  039F  082D               	movf	___fldiv@b+3,w
  5634  03A0  3980               	andlw	128
  5635  03A1  00AE               	movwf	??___fldiv
  5636  03A2  082E               	movf	??___fldiv,w
  5637  03A3  00B7               	movwf	___fldiv@sign
  5638  03A4                     i1l2585:	
  5639  03A4  082D               	movf	___fldiv@b+3,w
  5640  03A5  00AE               	movwf	??___fldiv
  5641  03A6  072E               	addwf	??___fldiv,w
  5642  03A7  00AF               	movwf	??___fldiv+1
  5643  03A8  082F               	movf	??___fldiv+1,w
  5644  03A9  00BE               	movwf	___fldiv@bexp
  5645  03AA                     i1l2587:	
  5646  03AA  1FAC               	btfss	___fldiv@b+2,7
  5647  03AB  2BAD               	goto	u214_21
  5648  03AC  2BAE               	goto	u214_20
  5649  03AD                     u214_21:	
  5650  03AD  2BAF               	goto	i1l2591
  5651  03AE                     u214_20:	
  5652  03AE                     i1l2589:	
  5653  03AE  143E               	bsf	___fldiv@bexp,0
  5654  03AF                     i1l2591:	
  5655  03AF  083E               	movf	___fldiv@bexp,w
  5656  03B0  1903               	btfsc	3,2
  5657  03B1  2BB3               	goto	u215_21
  5658  03B2  2BB4               	goto	u215_20
  5659  03B3                     u215_21:	
  5660  03B3  2BC4               	goto	i1l2601
  5661  03B4                     u215_20:	
  5662  03B4                     i1l2593:	
  5663  03B4  0A3E               	incf	___fldiv@bexp,w
  5664  03B5  1D03               	btfss	3,2
  5665  03B6  2BB8               	goto	u216_21
  5666  03B7  2BB9               	goto	u216_20
  5667  03B8                     u216_21:	
  5668  03B8  2BC1               	goto	i1l2597
  5669  03B9                     u216_20:	
  5670  03B9                     i1l2595:	
  5671  03B9  3000               	movlw	0
  5672  03BA  00AD               	movwf	___fldiv@b+3
  5673  03BB  3000               	movlw	0
  5674  03BC  00AC               	movwf	___fldiv@b+2
  5675  03BD  3000               	movlw	0
  5676  03BE  00AB               	movwf	___fldiv@b+1
  5677  03BF  3000               	movlw	0
  5678  03C0  00AA               	movwf	___fldiv@b
  5679  03C1                     i1l2597:	
  5680  03C1  17AC               	bsf	___fldiv@b+2,7
  5681  03C2                     i1l2599:	
  5682  03C2  01AD               	clrf	___fldiv@b+3
  5683  03C3  2BCC               	goto	i1l2603
  5684  03C4                     i1l2601:	
  5685  03C4  3000               	movlw	0
  5686  03C5  00AD               	movwf	___fldiv@b+3
  5687  03C6  3000               	movlw	0
  5688  03C7  00AC               	movwf	___fldiv@b+2
  5689  03C8  3000               	movlw	0
  5690  03C9  00AB               	movwf	___fldiv@b+1
  5691  03CA  3000               	movlw	0
  5692  03CB  00AA               	movwf	___fldiv@b
  5693  03CC                     i1l2603:	
  5694  03CC  0829               	movf	___fldiv@a+3,w
  5695  03CD  3980               	andlw	128
  5696  03CE  00AE               	movwf	??___fldiv
  5697  03CF  082E               	movf	??___fldiv,w
  5698  03D0  06B7               	xorwf	___fldiv@sign,f
  5699  03D1                     i1l2605:	
  5700  03D1  0829               	movf	___fldiv@a+3,w
  5701  03D2  00AE               	movwf	??___fldiv
  5702  03D3  072E               	addwf	??___fldiv,w
  5703  03D4  00AF               	movwf	??___fldiv+1
  5704  03D5  082F               	movf	??___fldiv+1,w
  5705  03D6  00BF               	movwf	___fldiv@aexp
  5706  03D7                     i1l2607:	
  5707  03D7  1FA8               	btfss	___fldiv@a+2,7
  5708  03D8  2BDA               	goto	u217_21
  5709  03D9  2BDB               	goto	u217_20
  5710  03DA                     u217_21:	
  5711  03DA  2BDC               	goto	i1l2611
  5712  03DB                     u217_20:	
  5713  03DB                     i1l2609:	
  5714  03DB  143F               	bsf	___fldiv@aexp,0
  5715  03DC                     i1l2611:	
  5716  03DC  083F               	movf	___fldiv@aexp,w
  5717  03DD  1903               	btfsc	3,2
  5718  03DE  2BE0               	goto	u218_21
  5719  03DF  2BE1               	goto	u218_20
  5720  03E0                     u218_21:	
  5721  03E0  2BF1               	goto	i1l2621
  5722  03E1                     u218_20:	
  5723  03E1                     i1l2613:	
  5724  03E1  0A3F               	incf	___fldiv@aexp,w
  5725  03E2  1D03               	btfss	3,2
  5726  03E3  2BE5               	goto	u219_21
  5727  03E4  2BE6               	goto	u219_20
  5728  03E5                     u219_21:	
  5729  03E5  2BEE               	goto	i1l2617
  5730  03E6                     u219_20:	
  5731  03E6                     i1l2615:	
  5732  03E6  3000               	movlw	0
  5733  03E7  00A9               	movwf	___fldiv@a+3
  5734  03E8  3000               	movlw	0
  5735  03E9  00A8               	movwf	___fldiv@a+2
  5736  03EA  3000               	movlw	0
  5737  03EB  00A7               	movwf	___fldiv@a+1
  5738  03EC  3000               	movlw	0
  5739  03ED  00A6               	movwf	___fldiv@a
  5740  03EE                     i1l2617:	
  5741  03EE  17A8               	bsf	___fldiv@a+2,7
  5742  03EF                     i1l2619:	
  5743  03EF  01A9               	clrf	___fldiv@a+3
  5744  03F0  2BF9               	goto	i1l806
  5745  03F1                     i1l2621:	
  5746  03F1  3000               	movlw	0
  5747  03F2  00A9               	movwf	___fldiv@a+3
  5748  03F3  3000               	movlw	0
  5749  03F4  00A8               	movwf	___fldiv@a+2
  5750  03F5  3000               	movlw	0
  5751  03F6  00A7               	movwf	___fldiv@a+1
  5752  03F7  3000               	movlw	0
  5753  03F8  00A6               	movwf	___fldiv@a
  5754  03F9                     i1l806:	
  5755  03F9  0829               	movf	___fldiv@a+3,w
  5756  03FA  0428               	iorwf	___fldiv@a+2,w
  5757  03FB  0427               	iorwf	___fldiv@a+1,w
  5758  03FC  0426               	iorwf	___fldiv@a,w
  5759  03FD  1D03               	skipz
  5760  03FE  2C00               	goto	u220_21
  5761  03FF  2C01               	goto	u220_20
  5762  0400                     u220_21:	
  5763  0400  2C1A               	goto	i1l2631
  5764  0401                     u220_20:	
  5765  0401                     i1l2623:	
  5766  0401  3000               	movlw	0
  5767  0402  00AD               	movwf	___fldiv@b+3
  5768  0403  3000               	movlw	0
  5769  0404  00AC               	movwf	___fldiv@b+2
  5770  0405  3000               	movlw	0
  5771  0406  00AB               	movwf	___fldiv@b+1
  5772  0407  3000               	movlw	0
  5773  0408  00AA               	movwf	___fldiv@b
  5774  0409  3080               	movlw	128
  5775  040A  04AC               	iorwf	___fldiv@b+2,f
  5776  040B  307F               	movlw	127
  5777  040C  04AD               	iorwf	___fldiv@b+3,f
  5778  040D                     i1l2625:	
  5779  040D  0837               	movf	___fldiv@sign,w
  5780  040E  00AE               	movwf	??___fldiv
  5781  040F  082E               	movf	??___fldiv,w
  5782  0410  04AD               	iorwf	___fldiv@b+3,f
  5783  0411                     i1l2627:	
  5784  0411  082D               	movf	___fldiv@b+3,w
  5785  0412  00A9               	movwf	?___fldiv+3
  5786  0413  082C               	movf	___fldiv@b+2,w
  5787  0414  00A8               	movwf	?___fldiv+2
  5788  0415  082B               	movf	___fldiv@b+1,w
  5789  0416  00A7               	movwf	?___fldiv+1
  5790  0417  082A               	movf	___fldiv@b,w
  5791  0418  00A6               	movwf	?___fldiv
  5792  0419  2D79               	goto	i1l808
  5793  041A                     i1l2631:	
  5794  041A  083E               	movf	___fldiv@bexp,w
  5795  041B  1D03               	btfss	3,2
  5796  041C  2C1E               	goto	u221_21
  5797  041D  2C1F               	goto	u221_20
  5798  041E                     u221_21:	
  5799  041E  2C28               	goto	i1l2637
  5800  041F                     u221_20:	
  5801  041F                     i1l2633:	
  5802  041F  3000               	movlw	0
  5803  0420  00A9               	movwf	?___fldiv+3
  5804  0421  3000               	movlw	0
  5805  0422  00A8               	movwf	?___fldiv+2
  5806  0423  3000               	movlw	0
  5807  0424  00A7               	movwf	?___fldiv+1
  5808  0425  3000               	movlw	0
  5809  0426  00A6               	movwf	?___fldiv
  5810  0427  2D79               	goto	i1l808
  5811  0428                     i1l2637:	
  5812  0428  083E               	movf	___fldiv@bexp,w
  5813  0429  00AE               	movwf	??___fldiv
  5814  042A  01AF               	clrf	??___fldiv+1
  5815  042B  082F               	movf	??___fldiv+1,w
  5816  042C  00B1               	movwf	??___fldiv+3
  5817  042D  083F               	movf	___fldiv@aexp,w
  5818  042E  022E               	subwf	??___fldiv,w
  5819  042F  00B0               	movwf	??___fldiv+2
  5820  0430  1C03               	skipc
  5821  0431  03B1               	decf	??___fldiv+3,f
  5822  0432  0830               	movf	??___fldiv+2,w
  5823  0433  3E7F               	addlw	127
  5824  0434  00B8               	movwf	___fldiv@new_exp
  5825  0435  0831               	movf	??___fldiv+3,w
  5826  0436  1803               	skipnc
  5827  0437  3E01               	addlw	1
  5828  0438  3E00               	addlw	0
  5829  0439  00B9               	movwf	___fldiv@new_exp+1
  5830  043A                     i1l2639:	
  5831  043A  082D               	movf	___fldiv@b+3,w
  5832  043B  00B6               	movwf	___fldiv@rem+3
  5833  043C  082C               	movf	___fldiv@b+2,w
  5834  043D  00B5               	movwf	___fldiv@rem+2
  5835  043E  082B               	movf	___fldiv@b+1,w
  5836  043F  00B4               	movwf	___fldiv@rem+1
  5837  0440  082A               	movf	___fldiv@b,w
  5838  0441  00B3               	movwf	___fldiv@rem
  5839  0442                     i1l2641:	
  5840  0442  3000               	movlw	0
  5841  0443  00AD               	movwf	___fldiv@b+3
  5842  0444  3000               	movlw	0
  5843  0445  00AC               	movwf	___fldiv@b+2
  5844  0446  3000               	movlw	0
  5845  0447  00AB               	movwf	___fldiv@b+1
  5846  0448  3000               	movlw	0
  5847  0449  00AA               	movwf	___fldiv@b
  5848  044A                     i1l2643:	
  5849  044A  3000               	movlw	0
  5850  044B  00BD               	movwf	___fldiv@grs+3
  5851  044C  3000               	movlw	0
  5852  044D  00BC               	movwf	___fldiv@grs+2
  5853  044E  3000               	movlw	0
  5854  044F  00BB               	movwf	___fldiv@grs+1
  5855  0450  3000               	movlw	0
  5856  0451  00BA               	movwf	___fldiv@grs
  5857  0452                     i1l2645:	
  5858  0452  01BF               	clrf	___fldiv@aexp
  5859  0453  2C9E               	goto	i1l2665
  5860  0454                     i1l2647:	
  5861  0454  083F               	movf	___fldiv@aexp,w
  5862  0455  1903               	btfsc	3,2
  5863  0456  2C58               	goto	u222_21
  5864  0457  2C59               	goto	u222_20
  5865  0458                     u222_21:	
  5866  0458  2C79               	goto	i1l2657
  5867  0459                     u222_20:	
  5868  0459                     i1l2649:	
  5869  0459  3001               	movlw	1
  5870  045A  00AE               	movwf	??___fldiv
  5871  045B                     u223_25:	
  5872  045B  1003               	clrc
  5873  045C  0DB3               	rlf	___fldiv@rem,f
  5874  045D  0DB4               	rlf	___fldiv@rem+1,f
  5875  045E  0DB5               	rlf	___fldiv@rem+2,f
  5876  045F  0DB6               	rlf	___fldiv@rem+3,f
  5877  0460  0BAE               	decfsz	??___fldiv,f
  5878  0461  2C5B               	goto	u223_25
  5879  0462  3001               	movlw	1
  5880  0463  00AE               	movwf	??___fldiv
  5881  0464                     u224_25:	
  5882  0464  1003               	clrc
  5883  0465  0DAA               	rlf	___fldiv@b,f
  5884  0466  0DAB               	rlf	___fldiv@b+1,f
  5885  0467  0DAC               	rlf	___fldiv@b+2,f
  5886  0468  0DAD               	rlf	___fldiv@b+3,f
  5887  0469  0BAE               	decfsz	??___fldiv,f
  5888  046A  2C64               	goto	u224_25
  5889  046B                     i1l2651:	
  5890  046B  1FBD               	btfss	___fldiv@grs+3,7
  5891  046C  2C6E               	goto	u225_21
  5892  046D  2C6F               	goto	u225_20
  5893  046E                     u225_21:	
  5894  046E  2C70               	goto	i1l2655
  5895  046F                     u225_20:	
  5896  046F                     i1l2653:	
  5897  046F  142A               	bsf	___fldiv@b,0
  5898  0470                     i1l2655:	
  5899  0470  3001               	movlw	1
  5900  0471  00AE               	movwf	??___fldiv
  5901  0472                     u226_25:	
  5902  0472  1003               	clrc
  5903  0473  0DBA               	rlf	___fldiv@grs,f
  5904  0474  0DBB               	rlf	___fldiv@grs+1,f
  5905  0475  0DBC               	rlf	___fldiv@grs+2,f
  5906  0476  0DBD               	rlf	___fldiv@grs+3,f
  5907  0477  0BAE               	decfsz	??___fldiv,f
  5908  0478  2C72               	goto	u226_25
  5909  0479                     i1l2657:	
  5910  0479  0829               	movf	___fldiv@a+3,w
  5911  047A  0236               	subwf	___fldiv@rem+3,w
  5912  047B  1D03               	skipz
  5913  047C  2C87               	goto	u227_25
  5914  047D  0828               	movf	___fldiv@a+2,w
  5915  047E  0235               	subwf	___fldiv@rem+2,w
  5916  047F  1D03               	skipz
  5917  0480  2C87               	goto	u227_25
  5918  0481  0827               	movf	___fldiv@a+1,w
  5919  0482  0234               	subwf	___fldiv@rem+1,w
  5920  0483  1D03               	skipz
  5921  0484  2C87               	goto	u227_25
  5922  0485  0826               	movf	___fldiv@a,w
  5923  0486  0233               	subwf	___fldiv@rem,w
  5924  0487                     u227_25:	
  5925  0487  1C03               	skipc
  5926  0488  2C8A               	goto	u227_21
  5927  0489  2C8B               	goto	u227_20
  5928  048A                     u227_21:	
  5929  048A  2C9A               	goto	i1l2663
  5930  048B                     u227_20:	
  5931  048B                     i1l2659:	
  5932  048B  173D               	bsf	___fldiv@grs+3,6
  5933  048C                     i1l2661:	
  5934  048C  0826               	movf	___fldiv@a,w
  5935  048D  02B3               	subwf	___fldiv@rem,f
  5936  048E  0827               	movf	___fldiv@a+1,w
  5937  048F  1C03               	skipc
  5938  0490  0F27               	incfsz	___fldiv@a+1,w
  5939  0491  02B4               	subwf	___fldiv@rem+1,f
  5940  0492  0828               	movf	___fldiv@a+2,w
  5941  0493  1C03               	skipc
  5942  0494  0F28               	incfsz	___fldiv@a+2,w
  5943  0495  02B5               	subwf	___fldiv@rem+2,f
  5944  0496  0829               	movf	___fldiv@a+3,w
  5945  0497  1C03               	skipc
  5946  0498  0F29               	incfsz	___fldiv@a+3,w
  5947  0499  02B6               	subwf	___fldiv@rem+3,f
  5948  049A                     i1l2663:	
  5949  049A  3001               	movlw	1
  5950  049B  00AE               	movwf	??___fldiv
  5951  049C  082E               	movf	??___fldiv,w
  5952  049D  07BF               	addwf	___fldiv@aexp,f
  5953  049E                     i1l2665:	
  5954  049E  301A               	movlw	26
  5955  049F  023F               	subwf	___fldiv@aexp,w
  5956  04A0  1C03               	skipc
  5957  04A1  2CA3               	goto	u228_21
  5958  04A2  2CA4               	goto	u228_20
  5959  04A3                     u228_21:	
  5960  04A3  2C54               	goto	i1l2647
  5961  04A4                     u228_20:	
  5962  04A4                     i1l2667:	
  5963  04A4  0836               	movf	___fldiv@rem+3,w
  5964  04A5  0435               	iorwf	___fldiv@rem+2,w
  5965  04A6  0434               	iorwf	___fldiv@rem+1,w
  5966  04A7  0433               	iorwf	___fldiv@rem,w
  5967  04A8  1903               	skipnz
  5968  04A9  2CAB               	goto	u229_21
  5969  04AA  2CAC               	goto	u229_20
  5970  04AB                     u229_21:	
  5971  04AB  2CCB               	goto	i1l2681
  5972  04AC                     u229_20:	
  5973  04AC                     i1l2669:	
  5974  04AC  143A               	bsf	___fldiv@grs,0
  5975  04AD  2CCB               	goto	i1l2681
  5976  04AE                     i1l2671:	
  5977  04AE  3001               	movlw	1
  5978  04AF  00AE               	movwf	??___fldiv
  5979  04B0                     u230_25:	
  5980  04B0  1003               	clrc
  5981  04B1  0DAA               	rlf	___fldiv@b,f
  5982  04B2  0DAB               	rlf	___fldiv@b+1,f
  5983  04B3  0DAC               	rlf	___fldiv@b+2,f
  5984  04B4  0DAD               	rlf	___fldiv@b+3,f
  5985  04B5  0BAE               	decfsz	??___fldiv,f
  5986  04B6  2CB0               	goto	u230_25
  5987  04B7                     i1l2673:	
  5988  04B7  1FBD               	btfss	___fldiv@grs+3,7
  5989  04B8  2CBA               	goto	u231_21
  5990  04B9  2CBB               	goto	u231_20
  5991  04BA                     u231_21:	
  5992  04BA  2CBC               	goto	i1l2677
  5993  04BB                     u231_20:	
  5994  04BB                     i1l2675:	
  5995  04BB  142A               	bsf	___fldiv@b,0
  5996  04BC                     i1l2677:	
  5997  04BC  3001               	movlw	1
  5998  04BD  00AE               	movwf	??___fldiv
  5999  04BE                     u232_25:	
  6000  04BE  1003               	clrc
  6001  04BF  0DBA               	rlf	___fldiv@grs,f
  6002  04C0  0DBB               	rlf	___fldiv@grs+1,f
  6003  04C1  0DBC               	rlf	___fldiv@grs+2,f
  6004  04C2  0DBD               	rlf	___fldiv@grs+3,f
  6005  04C3  0BAE               	decfsz	??___fldiv,f
  6006  04C4  2CBE               	goto	u232_25
  6007  04C5                     i1l2679:	
  6008  04C5  30FF               	movlw	255
  6009  04C6  07B8               	addwf	___fldiv@new_exp,f
  6010  04C7  1803               	skipnc
  6011  04C8  0AB9               	incf	___fldiv@new_exp+1,f
  6012  04C9  30FF               	movlw	255
  6013  04CA  07B9               	addwf	___fldiv@new_exp+1,f
  6014  04CB                     i1l2681:	
  6015  04CB  1FAC               	btfss	___fldiv@b+2,7
  6016  04CC  2CCE               	goto	u233_21
  6017  04CD  2CCF               	goto	u233_20
  6018  04CE                     u233_21:	
  6019  04CE  2CAE               	goto	i1l2671
  6020  04CF                     u233_20:	
  6021  04CF                     i1l2683:	
  6022  04CF  01BF               	clrf	___fldiv@aexp
  6023  04D0                     i1l2685:	
  6024  04D0  1FBD               	btfss	___fldiv@grs+3,7
  6025  04D1  2CD3               	goto	u234_21
  6026  04D2  2CD4               	goto	u234_20
  6027  04D3                     u234_21:	
  6028  04D3  2CF0               	goto	i1l2693
  6029  04D4                     u234_20:	
  6030  04D4                     i1l2687:	
  6031  04D4  30FF               	movlw	255
  6032  04D5  053A               	andwf	___fldiv@grs,w
  6033  04D6  00AE               	movwf	??___fldiv
  6034  04D7  30FF               	movlw	255
  6035  04D8  053B               	andwf	___fldiv@grs+1,w
  6036  04D9  00AF               	movwf	??___fldiv+1
  6037  04DA  30FF               	movlw	255
  6038  04DB  053C               	andwf	___fldiv@grs+2,w
  6039  04DC  00B0               	movwf	??___fldiv+2
  6040  04DD  307F               	movlw	127
  6041  04DE  053D               	andwf	___fldiv@grs+3,w
  6042  04DF  00B1               	movwf	??___fldiv+3
  6043  04E0  0831               	movf	??___fldiv+3,w
  6044  04E1  0430               	iorwf	??___fldiv+2,w
  6045  04E2  042F               	iorwf	??___fldiv+1,w
  6046  04E3  042E               	iorwf	??___fldiv,w
  6047  04E4  1903               	skipnz
  6048  04E5  2CE7               	goto	u235_21
  6049  04E6  2CE8               	goto	u235_20
  6050  04E7                     u235_21:	
  6051  04E7  2CEB               	goto	i1l822
  6052  04E8                     u235_20:	
  6053  04E8                     i1l2689:	
  6054  04E8  01BF               	clrf	___fldiv@aexp
  6055  04E9  0ABF               	incf	___fldiv@aexp,f
  6056  04EA  2CF0               	goto	i1l2693
  6057  04EB                     i1l822:	
  6058  04EB  1C2A               	btfss	___fldiv@b,0
  6059  04EC  2CEE               	goto	u236_21
  6060  04ED  2CEF               	goto	u236_20
  6061  04EE                     u236_21:	
  6062  04EE  2CF0               	goto	i1l2693
  6063  04EF                     u236_20:	
  6064  04EF  2CE8               	goto	i1l2689
  6065  04F0                     i1l2693:	
  6066  04F0  083F               	movf	___fldiv@aexp,w
  6067  04F1  1903               	btfsc	3,2
  6068  04F2  2CF4               	goto	u237_21
  6069  04F3  2CF5               	goto	u237_20
  6070  04F4                     u237_21:	
  6071  04F4  2D26               	goto	i1l2703
  6072  04F5                     u237_20:	
  6073  04F5                     i1l2695:	
  6074  04F5  3001               	movlw	1
  6075  04F6  07AA               	addwf	___fldiv@b,f
  6076  04F7  3000               	movlw	0
  6077  04F8  1803               	skipnc
  6078  04F9  3001               	movlw	1
  6079  04FA  07AB               	addwf	___fldiv@b+1,f
  6080  04FB  3000               	movlw	0
  6081  04FC  1803               	skipnc
  6082  04FD  3001               	movlw	1
  6083  04FE  07AC               	addwf	___fldiv@b+2,f
  6084  04FF  3000               	movlw	0
  6085  0500  1803               	skipnc
  6086  0501  3001               	movlw	1
  6087  0502  07AD               	addwf	___fldiv@b+3,f
  6088  0503                     i1l2697:	
  6089  0503  1C2D               	btfss	___fldiv@b+3,0
  6090  0504  2D06               	goto	u238_21
  6091  0505  2D07               	goto	u238_20
  6092  0506                     u238_21:	
  6093  0506  2D26               	goto	i1l2703
  6094  0507                     u238_20:	
  6095  0507                     i1l2699:	
  6096  0507  082A               	movf	___fldiv@b,w
  6097  0508  00AE               	movwf	??___fldiv
  6098  0509  082B               	movf	___fldiv@b+1,w
  6099  050A  00AF               	movwf	??___fldiv+1
  6100  050B  082C               	movf	___fldiv@b+2,w
  6101  050C  00B0               	movwf	??___fldiv+2
  6102  050D  082D               	movf	___fldiv@b+3,w
  6103  050E  00B1               	movwf	??___fldiv+3
  6104  050F  3001               	movlw	1
  6105  0510  00B2               	movwf	??___fldiv+4
  6106  0511                     u239_25:	
  6107  0511  0D31               	rlf	??___fldiv+3,w
  6108  0512  0CB1               	rrf	??___fldiv+3,f
  6109  0513  0CB0               	rrf	??___fldiv+2,f
  6110  0514  0CAF               	rrf	??___fldiv+1,f
  6111  0515  0CAE               	rrf	??___fldiv,f
  6112  0516                     u239_20:	
  6113  0516  0BB2               	decfsz	??___fldiv+4,f
  6114  0517  2D11               	goto	u239_25
  6115  0518  0831               	movf	??___fldiv+3,w
  6116  0519  00AD               	movwf	___fldiv@b+3
  6117  051A  0830               	movf	??___fldiv+2,w
  6118  051B  00AC               	movwf	___fldiv@b+2
  6119  051C  082F               	movf	??___fldiv+1,w
  6120  051D  00AB               	movwf	___fldiv@b+1
  6121  051E  082E               	movf	??___fldiv,w
  6122  051F  00AA               	movwf	___fldiv@b
  6123  0520                     i1l2701:	
  6124  0520  3001               	movlw	1
  6125  0521  07B8               	addwf	___fldiv@new_exp,f
  6126  0522  1803               	skipnc
  6127  0523  0AB9               	incf	___fldiv@new_exp+1,f
  6128  0524  3000               	movlw	0
  6129  0525  07B9               	addwf	___fldiv@new_exp+1,f
  6130  0526                     i1l2703:	
  6131  0526  0839               	movf	___fldiv@new_exp+1,w
  6132  0527  3A80               	xorlw	128
  6133  0528  00FF               	movwf	btemp+1
  6134  0529  3080               	movlw	128
  6135  052A  027F               	subwf	btemp+1,w
  6136  052B  1D03               	skipz
  6137  052C  2D2F               	goto	u240_25
  6138  052D  30FF               	movlw	255
  6139  052E  0238               	subwf	___fldiv@new_exp,w
  6140  052F                     u240_25:	
  6141  052F  1C03               	skipc
  6142  0530  2D32               	goto	u240_21
  6143  0531  2D33               	goto	u240_20
  6144  0532                     u240_21:	
  6145  0532  2D41               	goto	i1l2707
  6146  0533                     u240_20:	
  6147  0533                     i1l2705:	
  6148  0533  30FF               	movlw	255
  6149  0534  1283               	bcf	3,5	;RP0=0, select bank0
  6150  0535  1303               	bcf	3,6	;RP1=0, select bank0
  6151  0536  00B8               	movwf	___fldiv@new_exp
  6152  0537  3000               	movlw	0
  6153  0538  00B9               	movwf	___fldiv@new_exp+1
  6154  0539  3000               	movlw	0
  6155  053A  00AD               	movwf	___fldiv@b+3
  6156  053B  3000               	movlw	0
  6157  053C  00AC               	movwf	___fldiv@b+2
  6158  053D  3000               	movlw	0
  6159  053E  00AB               	movwf	___fldiv@b+1
  6160  053F  3000               	movlw	0
  6161  0540  00AA               	movwf	___fldiv@b
  6162  0541                     i1l2707:	
  6163  0541  1283               	bcf	3,5	;RP0=0, select bank0
  6164  0542  1303               	bcf	3,6	;RP1=0, select bank0
  6165  0543  0839               	movf	___fldiv@new_exp+1,w
  6166  0544  3A80               	xorlw	128
  6167  0545  00FF               	movwf	btemp+1
  6168  0546  3080               	movlw	128
  6169  0547  027F               	subwf	btemp+1,w
  6170  0548  1D03               	skipz
  6171  0549  2D4C               	goto	u241_25
  6172  054A  3001               	movlw	1
  6173  054B  0238               	subwf	___fldiv@new_exp,w
  6174  054C                     u241_25:	
  6175  054C  1803               	skipnc
  6176  054D  2D4F               	goto	u241_21
  6177  054E  2D50               	goto	u241_20
  6178  054F                     u241_21:	
  6179  054F  2D5D               	goto	i1l828
  6180  0550                     u241_20:	
  6181  0550                     i1l2709:	
  6182  0550  1283               	bcf	3,5	;RP0=0, select bank0
  6183  0551  1303               	bcf	3,6	;RP1=0, select bank0
  6184  0552  01B8               	clrf	___fldiv@new_exp
  6185  0553  01B9               	clrf	___fldiv@new_exp+1
  6186  0554                     i1l2711:	
  6187  0554  3000               	movlw	0
  6188  0555  00AD               	movwf	___fldiv@b+3
  6189  0556  3000               	movlw	0
  6190  0557  00AC               	movwf	___fldiv@b+2
  6191  0558  3000               	movlw	0
  6192  0559  00AB               	movwf	___fldiv@b+1
  6193  055A  3000               	movlw	0
  6194  055B  00AA               	movwf	___fldiv@b
  6195  055C                     i1l2713:	
  6196  055C  01B7               	clrf	___fldiv@sign
  6197  055D                     i1l828:	
  6198  055D  1283               	bcf	3,5	;RP0=0, select bank0
  6199  055E  1303               	bcf	3,6	;RP1=0, select bank0
  6200  055F  0838               	movf	___fldiv@new_exp,w
  6201  0560  00AE               	movwf	??___fldiv
  6202  0561  082E               	movf	??___fldiv,w
  6203  0562  00BE               	movwf	___fldiv@bexp
  6204  0563                     i1l2715:	
  6205  0563  1C3E               	btfss	___fldiv@bexp,0
  6206  0564  2D66               	goto	u242_21
  6207  0565  2D67               	goto	u242_20
  6208  0566                     u242_21:	
  6209  0566  2D69               	goto	i1l2719
  6210  0567                     u242_20:	
  6211  0567                     i1l2717:	
  6212  0567  17AC               	bsf	___fldiv@b+2,7
  6213  0568  2D6D               	goto	i1l830
  6214  0569                     i1l2719:	
  6215  0569  307F               	movlw	127
  6216  056A  00AE               	movwf	??___fldiv
  6217  056B  082E               	movf	??___fldiv,w
  6218  056C  05AC               	andwf	___fldiv@b+2,f
  6219  056D                     i1l830:	
  6220  056D  083E               	movf	___fldiv@bexp,w
  6221  056E  00AE               	movwf	??___fldiv
  6222  056F  1003               	clrc
  6223  0570  0C2E               	rrf	??___fldiv,w
  6224  0571  00AF               	movwf	??___fldiv+1
  6225  0572  082F               	movf	??___fldiv+1,w
  6226  0573  00AD               	movwf	___fldiv@b+3
  6227  0574  0837               	movf	___fldiv@sign,w
  6228  0575  00AE               	movwf	??___fldiv
  6229  0576  082E               	movf	??___fldiv,w
  6230  0577  04AD               	iorwf	___fldiv@b+3,f
  6231  0578  2C11               	goto	i1l2627
  6232  0579                     i1l808:	
  6233  0579  0008               	return
  6234  057A                     __end_of___fldiv:	
  6235                           
  6236                           	psect	text32
  6237  0B65                     __ptext32:	
  6238 ;; *************** function _ADC_Read *****************
  6239 ;; Defined at:
  6240 ;;		line 29 in file "adc_drive.c"
  6241 ;; Parameters:    Size  Location     Type
  6242 ;;  channel         1    wreg     unsigned char 
  6243 ;; Auto vars:     Size  Location     Type
  6244 ;;  channel         1    4[COMMON] unsigned char 
  6245 ;; Return value:  Size  Location     Type
  6246 ;;                  2    0[COMMON] unsigned int 
  6247 ;; Registers used:
  6248 ;;		wreg, status,2, status,0
  6249 ;; Tracked objects:
  6250 ;;		On entry : 0/0
  6251 ;;		On exit  : 0/0
  6252 ;;		Unchanged: 0/0
  6253 ;; Data sizes:     COMMON   BANK0   BANK1   BANK3   BANK2
  6254 ;;      Params:         2       0       0       0       0
  6255 ;;      Locals:         1       0       0       0       0
  6256 ;;      Temps:          2       0       0       0       0
  6257 ;;      Totals:         5       0       0       0       0
  6258 ;;Total ram usage:        5 bytes
  6259 ;; Hardware stack levels used:    1
  6260 ;; This function calls:
  6261 ;;		Nothing
  6262 ;; This function is called by:
  6263 ;;		_temp_sensor_read
  6264 ;; This function uses a non-reentrant model
  6265 ;;
  6266                           
  6267                           
  6268                           ;psect for function _ADC_Read
  6269  0B65                     _ADC_Read:	
  6270                           
  6271                           ;incstack = 0
  6272                           ; Regs used in _ADC_Read: [wreg+status,2+status,0]
  6273                           ;ADC_Read@channel stored from wreg
  6274  0B65  00F4               	movwf	ADC_Read@channel
  6275  0B66                     i1l2493:	
  6276                           
  6277                           ;adc_drive.c: 30:     (ADCON0 &= ~(1 << 3));
  6278  0B66  30F7               	movlw	247
  6279  0B67  00F2               	movwf	??_ADC_Read
  6280  0B68  0872               	movf	??_ADC_Read,w
  6281  0B69  1283               	bcf	3,5	;RP0=0, select bank0
  6282  0B6A  1303               	bcf	3,6	;RP1=0, select bank0
  6283  0B6B  059F               	andwf	31,f	;volatile
  6284                           
  6285                           ;adc_drive.c: 31:     (ADCON0 &= ~(1 << 4));
  6286  0B6C  30EF               	movlw	239
  6287  0B6D  00F2               	movwf	??_ADC_Read
  6288  0B6E  0872               	movf	??_ADC_Read,w
  6289  0B6F  059F               	andwf	31,f	;volatile
  6290                           
  6291                           ;adc_drive.c: 32:     (ADCON0 &= ~(1 << 5));
  6292  0B70  30DF               	movlw	223
  6293  0B71  00F2               	movwf	??_ADC_Read
  6294  0B72  0872               	movf	??_ADC_Read,w
  6295  0B73  059F               	andwf	31,f	;volatile
  6296                           
  6297                           ;adc_drive.c: 33:     ADCON0 |= (channel << 3);
  6298  0B74  0874               	movf	ADC_Read@channel,w	;volatile
  6299  0B75  00F2               	movwf	??_ADC_Read
  6300  0B76  3002               	movlw	2
  6301  0B77                     u199_25:	
  6302  0B77  1003               	clrc
  6303  0B78  0DF2               	rlf	??_ADC_Read,f
  6304  0B79  3EFF               	addlw	-1
  6305  0B7A  1D03               	skipz
  6306  0B7B  2B77               	goto	u199_25
  6307  0B7C  1003               	clrc
  6308  0B7D  0D72               	rlf	??_ADC_Read,w
  6309  0B7E  00F3               	movwf	??_ADC_Read+1
  6310  0B7F  0873               	movf	??_ADC_Read+1,w
  6311  0B80  049F               	iorwf	31,f	;volatile
  6312  0B81                     i1l2495:	
  6313                           
  6314                           ;adc_drive.c: 34:     (ADCON0 |= (1 << 2));
  6315  0B81  151F               	bsf	31,2	;volatile
  6316  0B82                     i1l104:	
  6317                           ;adc_drive.c: 35:     while (ADCON0 & (1 << 2)){}
  6318                           
  6319  0B82  191F               	btfsc	31,2	;volatile
  6320  0B83  2B85               	goto	u200_21
  6321  0B84  2B86               	goto	u200_20
  6322  0B85                     u200_21:	
  6323  0B85  2B82               	goto	i1l104
  6324  0B86                     u200_20:	
  6325  0B86                     i1l2497:	
  6326                           
  6327                           ;adc_drive.c: 36:     return ( ADRESL + (ADRESH* 256) ) ;
  6328  0B86  081E               	movf	30,w	;volatile
  6329  0B87  00F1               	movwf	?_ADC_Read+1
  6330  0B88  1683               	bsf	3,5	;RP0=1, select bank1
  6331  0B89  1303               	bcf	3,6	;RP1=0, select bank1
  6332  0B8A  081E               	movf	30,w	;volatile
  6333  0B8B  00F0               	movwf	?_ADC_Read
  6334  0B8C                     i1l107:	
  6335  0B8C  0008               	return
  6336  0B8D                     __end_of_ADC_Read:	
  6337                           
  6338                           	psect	text33
  6339  0A69                     __ptext33:	
  6340 ;; *************** function _switch_scan *****************
  6341 ;; Defined at:
  6342 ;;		line 28 in file "switchs.c"
  6343 ;; Parameters:    Size  Location     Type
  6344 ;;		None
  6345 ;; Auto vars:     Size  Location     Type
  6346 ;;		None
  6347 ;; Return value:  Size  Location     Type
  6348 ;;                  1    wreg      void 
  6349 ;; Registers used:
  6350 ;;		wreg, status,2, status,0
  6351 ;; Tracked objects:
  6352 ;;		On entry : 0/0
  6353 ;;		On exit  : 0/0
  6354 ;;		Unchanged: 0/0
  6355 ;; Data sizes:     COMMON   BANK0   BANK1   BANK3   BANK2
  6356 ;;      Params:         0       0       0       0       0
  6357 ;;      Locals:         0       0       0       0       0
  6358 ;;      Temps:          1       0       0       0       0
  6359 ;;      Totals:         1       0       0       0       0
  6360 ;;Total ram usage:        1 bytes
  6361 ;; Hardware stack levels used:    1
  6362 ;; This function calls:
  6363 ;;		Nothing
  6364 ;; This function is called by:
  6365 ;;		_isr
  6366 ;; This function uses a non-reentrant model
  6367 ;;
  6368                           
  6369                           
  6370                           ;psect for function _switch_scan
  6371  0A69                     _switch_scan:	
  6372  0A69                     i1l2983:	
  6373                           ;incstack = 0
  6374                           ; Regs used in _switch_scan: [wreg+status,2+status,0]
  6375                           
  6376                           
  6377                           ;switchs.c: 29:     switch_delay += 1 ;
  6378  0A69  3001               	movlw	1
  6379  0A6A  00F0               	movwf	??_switch_scan
  6380  0A6B  0870               	movf	??_switch_scan,w
  6381  0A6C  1283               	bcf	3,5	;RP0=0, select bank0
  6382  0A6D  1303               	bcf	3,6	;RP1=0, select bank0
  6383  0A6E  07E6               	addwf	_switch_delay,f
  6384                           
  6385                           ;switchs.c: 31:     if (switch_delay == 200){
  6386  0A6F  30C8               	movlw	200
  6387  0A70  0666               	xorwf	_switch_delay,w
  6388  0A71  1D03               	btfss	3,2
  6389  0A72  2A74               	goto	u300_21
  6390  0A73  2A75               	goto	u300_20
  6391  0A74                     u300_21:	
  6392  0A74  2A81               	goto	i1l264
  6393  0A75                     u300_20:	
  6394  0A75                     i1l2985:	
  6395                           
  6396                           ;switchs.c: 32:        if ( !((PORTB & (1<<2)))){
  6397  0A75  1906               	btfsc	6,2	;volatile
  6398  0A76  2A78               	goto	u301_21
  6399  0A77  2A79               	goto	u301_20
  6400  0A78                     u301_21:	
  6401  0A78  2A7B               	goto	i1l260
  6402  0A79                     u301_20:	
  6403  0A79                     i1l2987:	
  6404                           
  6405                           ;switchs.c: 33:           up_sw = PRESSED ;
  6406  0A79  01EA               	clrf	_up_sw
  6407                           
  6408                           ;switchs.c: 34:        }
  6409  0A7A  2A80               	goto	i1l2991
  6410  0A7B                     i1l260:	
  6411                           ;switchs.c: 35:        else if ( !((PORTB & (1<<1)))){
  6412                           
  6413  0A7B  1886               	btfsc	6,1	;volatile
  6414  0A7C  2A7E               	goto	u302_21
  6415  0A7D  2A7F               	goto	u302_20
  6416  0A7E                     u302_21:	
  6417  0A7E  2A80               	goto	i1l2991
  6418  0A7F                     u302_20:	
  6419  0A7F                     i1l2989:	
  6420                           
  6421                           ;switchs.c: 36:           down_sw = PRESSED ;
  6422  0A7F  01E9               	clrf	_down_sw
  6423  0A80                     i1l2991:	
  6424                           ;switchs.c: 37:        }
  6425                           
  6426                           
  6427                           ;switchs.c: 41:        switch_delay = 0 ;
  6428  0A80  01E6               	clrf	_switch_delay
  6429  0A81                     i1l264:	
  6430  0A81  0008               	return
  6431  0A82                     __end_of_switch_scan:	
  6432                           
  6433                           	psect	text34
  6434  0F18                     __ptext34:	
  6435 ;; *************** function _sw_action *****************
  6436 ;; Defined at:
  6437 ;;		line 50 in file "switchs.c"
  6438 ;; Parameters:    Size  Location     Type
  6439 ;;		None
  6440 ;; Auto vars:     Size  Location     Type
  6441 ;;		None
  6442 ;; Return value:  Size  Location     Type
  6443 ;;                  1    wreg      void 
  6444 ;; Registers used:
  6445 ;;		wreg, fsr0l, fsr0h, status,2, status,0, pclath, cstack
  6446 ;; Tracked objects:
  6447 ;;		On entry : 0/0
  6448 ;;		On exit  : 0/0
  6449 ;;		Unchanged: 0/0
  6450 ;; Data sizes:     COMMON   BANK0   BANK1   BANK3   BANK2
  6451 ;;      Params:         0       0       0       0       0
  6452 ;;      Locals:         0       0       0       0       0
  6453 ;;      Temps:          2       0       0       0       0
  6454 ;;      Totals:         2       0       0       0       0
  6455 ;;Total ram usage:        2 bytes
  6456 ;; Hardware stack levels used:    1
  6457 ;; Hardware stack levels required when called:    3
  6458 ;; This function calls:
  6459 ;;		_EEPROM_write
  6460 ;; This function is called by:
  6461 ;;		_isr
  6462 ;; This function uses a non-reentrant model
  6463 ;;
  6464                           
  6465                           
  6466                           ;psect for function _sw_action
  6467  0F18                     _sw_action:	
  6468  0F18                     i1l2993:	
  6469                           ;incstack = 0
  6470                           ; Regs used in _sw_action: [wreg-fsr0h+status,2+status,0+pclath+cstack]
  6471                           
  6472                           
  6473                           ;switchs.c: 51:     switch (mode){
  6474  0F18  2F71               	goto	i1l3029
  6475  0F19                     i1l2995:	
  6476                           
  6477                           ;switchs.c: 54:             if ( (up_sw == PRESSED ) || (down_sw == PRESSED) ) {
  6478  0F19  086A               	movf	_up_sw,w
  6479  0F1A  1903               	btfsc	3,2
  6480  0F1B  2F1D               	goto	u303_21
  6481  0F1C  2F1E               	goto	u303_20
  6482  0F1D                     u303_21:	
  6483  0F1D  2F23               	goto	i1l271
  6484  0F1E                     u303_20:	
  6485  0F1E                     i1l2997:	
  6486  0F1E  0869               	movf	_down_sw,w
  6487  0F1F  1D03               	btfss	3,2
  6488  0F20  2F22               	goto	u304_21
  6489  0F21  2F23               	goto	u304_20
  6490  0F22                     u304_21:	
  6491  0F22  2F83               	goto	i1l282
  6492  0F23                     u304_20:	
  6493  0F23                     i1l271:	
  6494                           
  6495                           ;switchs.c: 55:                 mode = SETTING_MODE ;
  6496  0F23  01E3               	clrf	_mode
  6497  0F24  0AE3               	incf	_mode,f
  6498                           
  6499                           ;switchs.c: 56:                 up_sw = RELEASED ;
  6500  0F25  01EA               	clrf	_up_sw
  6501  0F26  0AEA               	incf	_up_sw,f
  6502                           
  6503                           ;switchs.c: 57:                 down_sw = RELEASED ;
  6504  0F27  01E9               	clrf	_down_sw
  6505  0F28  0AE9               	incf	_down_sw,f
  6506                           
  6507                           ;switchs.c: 58:             }
  6508  0F29  2F83               	goto	i1l282
  6509  0F2A                     i1l2999:	
  6510                           
  6511                           ;switchs.c: 66:             if (switch_wait < 5000){
  6512  0F2A  3013               	movlw	19
  6513  0F2B  025B               	subwf	_switch_wait+1,w
  6514  0F2C  3088               	movlw	136
  6515  0F2D  1903               	skipnz
  6516  0F2E  025A               	subwf	_switch_wait,w
  6517  0F2F  1803               	skipnc
  6518  0F30  2F32               	goto	u305_21
  6519  0F31  2F33               	goto	u305_20
  6520  0F32                     u305_21:	
  6521  0F32  2F60               	goto	i1l3023
  6522  0F33                     u305_20:	
  6523  0F33                     i1l3001:	
  6524                           
  6525                           ;switchs.c: 67:                 if ( (up_sw == PRESSED) && (set_temp < 75)){
  6526  0F33  086A               	movf	_up_sw,w
  6527  0F34  1D03               	btfss	3,2
  6528  0F35  2F37               	goto	u306_21
  6529  0F36  2F38               	goto	u306_20
  6530  0F37                     u306_21:	
  6531  0F37  2F47               	goto	i1l3011
  6532  0F38                     u306_20:	
  6533  0F38                     i1l3003:	
  6534  0F38  304B               	movlw	75
  6535  0F39  0265               	subwf	_set_temp,w
  6536  0F3A  1803               	skipnc
  6537  0F3B  2F3D               	goto	u307_21
  6538  0F3C  2F3E               	goto	u307_20
  6539  0F3D                     u307_21:	
  6540  0F3D  2F47               	goto	i1l3011
  6541  0F3E                     u307_20:	
  6542  0F3E                     i1l3005:	
  6543                           
  6544                           ;switchs.c: 68:                     set_temp += 5 ;
  6545  0F3E  3005               	movlw	5
  6546  0F3F  00F4               	movwf	??_sw_action
  6547  0F40  0874               	movf	??_sw_action,w
  6548  0F41  07E5               	addwf	_set_temp,f
  6549  0F42                     i1l3007:	
  6550                           
  6551                           ;switchs.c: 69:                     switch_wait = 0 ;
  6552  0F42  01DA               	clrf	_switch_wait
  6553  0F43  01DB               	clrf	_switch_wait+1
  6554  0F44                     i1l3009:	
  6555                           
  6556                           ;switchs.c: 70:                     up_sw = RELEASED ;
  6557  0F44  01EA               	clrf	_up_sw
  6558  0F45  0AEA               	incf	_up_sw,f
  6559                           
  6560                           ;switchs.c: 71:                 }
  6561  0F46  2F83               	goto	i1l282
  6562  0F47                     i1l3011:	
  6563  0F47  0869               	movf	_down_sw,w
  6564  0F48  1D03               	btfss	3,2
  6565  0F49  2F4B               	goto	u308_21
  6566  0F4A  2F4C               	goto	u308_20
  6567  0F4B                     u308_21:	
  6568  0F4B  2F59               	goto	i1l3021
  6569  0F4C                     u308_20:	
  6570  0F4C                     i1l3013:	
  6571  0F4C  3024               	movlw	36
  6572  0F4D  0265               	subwf	_set_temp,w
  6573  0F4E  1C03               	skipc
  6574  0F4F  2F51               	goto	u309_21
  6575  0F50  2F52               	goto	u309_20
  6576  0F51                     u309_21:	
  6577  0F51  2F59               	goto	i1l3021
  6578  0F52                     u309_20:	
  6579  0F52                     i1l3015:	
  6580                           
  6581                           ;switchs.c: 73:                     set_temp -= 5 ;
  6582  0F52  3005               	movlw	5
  6583  0F53  02E5               	subwf	_set_temp,f
  6584  0F54                     i1l3017:	
  6585                           
  6586                           ;switchs.c: 74:                     switch_wait = 0 ;
  6587  0F54  01DA               	clrf	_switch_wait
  6588  0F55  01DB               	clrf	_switch_wait+1
  6589  0F56                     i1l3019:	
  6590                           
  6591                           ;switchs.c: 75:                     down_sw = RELEASED ;
  6592  0F56  01E9               	clrf	_down_sw
  6593  0F57  0AE9               	incf	_down_sw,f
  6594                           
  6595                           ;switchs.c: 76:                 }
  6596  0F58  2F83               	goto	i1l282
  6597  0F59                     i1l3021:	
  6598                           
  6599                           ;switchs.c: 78:                     switch_wait += 1 ;
  6600  0F59  3001               	movlw	1
  6601  0F5A  07DA               	addwf	_switch_wait,f
  6602  0F5B  1803               	skipnc
  6603  0F5C  0ADB               	incf	_switch_wait+1,f
  6604  0F5D  3000               	movlw	0
  6605  0F5E  07DB               	addwf	_switch_wait+1,f
  6606  0F5F  2F83               	goto	i1l282
  6607  0F60                     i1l3023:	
  6608                           
  6609                           ;switchs.c: 82:                 mode = NORMAL_MODE ;
  6610  0F60  01E3               	clrf	_mode
  6611                           
  6612                           ;switchs.c: 83:                 switch_wait = 0 ;
  6613  0F61  01DA               	clrf	_switch_wait
  6614  0F62  01DB               	clrf	_switch_wait+1
  6615  0F63                     i1l3025:	
  6616                           
  6617                           ;switchs.c: 84:                 EEPROM_write(0xff , set_temp);
  6618  0F63  30FF               	movlw	255
  6619  0F64  00F1               	movwf	EEPROM_write@address
  6620  0F65  3000               	movlw	0
  6621  0F66  00F2               	movwf	EEPROM_write@address+1
  6622  0F67  0865               	movf	_set_temp,w
  6623  0F68  00F4               	movwf	??_sw_action
  6624  0F69  0874               	movf	??_sw_action,w
  6625  0F6A  00F3               	movwf	EEPROM_write@_x
  6626  0F6B  120A  158A  22B9  120A  158A  	fcall	_EEPROM_write
  6627  0F70  2F83               	goto	i1l282
  6628  0F71                     i1l3029:	
  6629  0F71  1283               	bcf	3,5	;RP0=0, select bank0
  6630  0F72  1303               	bcf	3,6	;RP1=0, select bank0
  6631  0F73  0863               	movf	_mode,w
  6632  0F74  00F4               	movwf	??_sw_action
  6633  0F75  01F5               	clrf	??_sw_action+1
  6634                           
  6635                           ; Switch on 2 bytes has been partitioned into a top level switch of size 1, and 1 sub-sw
      +                          itches
  6636                           ; Switch size 1, requested type "simple"
  6637                           ; Number of cases is 1, Range of values is 0 to 0
  6638                           ; switch strategies available:
  6639                           ; Name         Instructions Cycles
  6640                           ; simple_byte            4     3 (average)
  6641                           ; direct_byte           11     8 (fixed)
  6642                           ; jumptable            260     6 (fixed)
  6643                           ;	Chosen strategy is simple_byte
  6644  0F76  0875               	movf	??_sw_action+1,w
  6645  0F77  3A00               	xorlw	0	; case 0
  6646  0F78  1903               	skipnz
  6647  0F79  2F7B               	goto	i1l3347
  6648  0F7A  2F83               	goto	i1l282
  6649  0F7B                     i1l3347:	
  6650                           
  6651                           ; Switch size 1, requested type "simple"
  6652                           ; Number of cases is 2, Range of values is 0 to 1
  6653                           ; switch strategies available:
  6654                           ; Name         Instructions Cycles
  6655                           ; simple_byte            7     4 (average)
  6656                           ; direct_byte           14     8 (fixed)
  6657                           ; jumptable            260     6 (fixed)
  6658                           ;	Chosen strategy is simple_byte
  6659  0F7B  0874               	movf	??_sw_action,w
  6660  0F7C  3A00               	xorlw	0	; case 0
  6661  0F7D  1903               	skipnz
  6662  0F7E  2F19               	goto	i1l2995
  6663  0F7F  3A01               	xorlw	1	; case 1
  6664  0F80  1903               	skipnz
  6665  0F81  2F2A               	goto	i1l2999
  6666  0F82  2F83               	goto	i1l282
  6667  0F83                     i1l282:	
  6668  0F83  0008               	return
  6669  0F84                     __end_of_sw_action:	
  6670                           
  6671                           	psect	text35
  6672  0AB9                     __ptext35:	
  6673 ;; *************** function _EEPROM_write *****************
  6674 ;; Defined at:
  6675 ;;		line 18 in file "eeprom.c"
  6676 ;; Parameters:    Size  Location     Type
  6677 ;;  address         2    1[COMMON] unsigned int 
  6678 ;;  _x              1    3[COMMON] unsigned char 
  6679 ;; Auto vars:     Size  Location     Type
  6680 ;;		None
  6681 ;; Return value:  Size  Location     Type
  6682 ;;                  1    wreg      void 
  6683 ;; Registers used:
  6684 ;;		wreg, status,2, status,0, pclath, cstack
  6685 ;; Tracked objects:
  6686 ;;		On entry : 0/0
  6687 ;;		On exit  : 0/0
  6688 ;;		Unchanged: 0/0
  6689 ;; Data sizes:     COMMON   BANK0   BANK1   BANK3   BANK2
  6690 ;;      Params:         3       0       0       0       0
  6691 ;;      Locals:         0       0       0       0       0
  6692 ;;      Temps:          0       0       0       0       0
  6693 ;;      Totals:         3       0       0       0       0
  6694 ;;Total ram usage:        3 bytes
  6695 ;; Hardware stack levels used:    1
  6696 ;; Hardware stack levels required when called:    2
  6697 ;; This function calls:
  6698 ;;		i1_I2C1_Start
  6699 ;;		i1_I2C1_Stop
  6700 ;;		i1_I2C1_Wr
  6701 ;; This function is called by:
  6702 ;;		_sw_action
  6703 ;; This function uses a non-reentrant model
  6704 ;;
  6705                           
  6706                           
  6707                           ;psect for function _EEPROM_write
  6708  0AB9                     _EEPROM_write:	
  6709  0AB9                     i1l2529:	
  6710                           ;incstack = 0
  6711                           ; Regs used in _EEPROM_write: [wreg+status,2+status,0+pclath+cstack]
  6712                           
  6713                           
  6714                           ;eeprom.c: 19:     I2C1_Start();
  6715  0AB9  120A  158A  21AD  120A  158A  	fcall	i1_I2C1_Start
  6716                           
  6717                           ;eeprom.c: 20:     I2C1_Wr(0XA2);
  6718  0ABE  30A2               	movlw	162
  6719  0ABF  120A  158A  220F  120A  158A  	fcall	i1_I2C1_Wr
  6720                           
  6721                           ;eeprom.c: 21:     I2C1_Wr(address);
  6722  0AC4  0871               	movf	EEPROM_write@address,w
  6723  0AC5  120A  158A  220F  120A  158A  	fcall	i1_I2C1_Wr
  6724                           
  6725                           ;eeprom.c: 22:     I2C1_Wr(_x);
  6726  0ACA  0873               	movf	EEPROM_write@_x,w
  6727  0ACB  120A  158A  220F  120A  158A  	fcall	i1_I2C1_Wr
  6728                           
  6729                           ;eeprom.c: 23:     I2C1_Stop();
  6730  0AD0  120A  158A  21B6  120A  158A  	fcall	i1_I2C1_Stop
  6731  0AD5                     i1l161:	
  6732  0AD5  0008               	return
  6733  0AD6                     __end_of_EEPROM_write:	
  6734                           
  6735                           	psect	text36
  6736  0A0F                     __ptext36:	
  6737 ;; *************** function i1_I2C1_Wr *****************
  6738 ;; Defined at:
  6739 ;;		line 51 in file "I2C_drive.c"
  6740 ;; Parameters:    Size  Location     Type
  6741 ;;  _data           1    wreg     unsigned char 
  6742 ;; Auto vars:     Size  Location     Type
  6743 ;;  _data           1    0[COMMON] unsigned char 
  6744 ;; Return value:  Size  Location     Type
  6745 ;;                  1    wreg      void 
  6746 ;; Registers used:
  6747 ;;		wreg, status,2, status,0, pclath, cstack
  6748 ;; Tracked objects:
  6749 ;;		On entry : 0/0
  6750 ;;		On exit  : 0/0
  6751 ;;		Unchanged: 0/0
  6752 ;; Data sizes:     COMMON   BANK0   BANK1   BANK3   BANK2
  6753 ;;      Params:         0       0       0       0       0
  6754 ;;      Locals:         1       0       0       0       0
  6755 ;;      Temps:          0       0       0       0       0
  6756 ;;      Totals:         1       0       0       0       0
  6757 ;;Total ram usage:        1 bytes
  6758 ;; Hardware stack levels used:    1
  6759 ;; Hardware stack levels required when called:    1
  6760 ;; This function calls:
  6761 ;;		i1_I2C_Wait
  6762 ;; This function is called by:
  6763 ;;		_EEPROM_write
  6764 ;; This function uses a non-reentrant model
  6765 ;;
  6766                           
  6767                           
  6768                           ;psect for function i1_I2C1_Wr
  6769  0A0F                     i1_I2C1_Wr:	
  6770                           
  6771                           ;incstack = 0
  6772                           ; Regs used in i1_I2C1_Wr: [wreg+status,2+status,0+pclath+cstack]
  6773                           ;i1I2C1_Wr@_data stored from wreg
  6774  0A0F  00F0               	movwf	i1I2C1_Wr@_data
  6775  0A10                     i1l2445:	
  6776                           
  6777                           ;I2C_drive.c: 52:     I2C_Wait();
  6778  0A10  120A  158A  21E7  120A  158A  	fcall	i1_I2C_Wait
  6779  0A15                     i1l2447:	
  6780                           
  6781                           ;I2C_drive.c: 53:     SSPBUF = _data ;
  6782  0A15  0870               	movf	i1I2C1_Wr@_data,w
  6783  0A16  1283               	bcf	3,5	;RP0=0, select bank0
  6784  0A17  1303               	bcf	3,6	;RP1=0, select bank0
  6785  0A18  0093               	movwf	19	;volatile
  6786  0A19                     i1l2449:	
  6787                           
  6788                           ;I2C_drive.c: 54:     I2C_Wait();
  6789  0A19  120A  158A  21E7  120A  158A  	fcall	i1_I2C_Wait
  6790  0A1E                     i1l139:	
  6791  0A1E  0008               	return
  6792  0A1F                     __end_ofi1_I2C1_Wr:	
  6793                           
  6794                           	psect	text37
  6795  09B6                     __ptext37:	
  6796 ;; *************** function i1_I2C1_Stop *****************
  6797 ;; Defined at:
  6798 ;;		line 41 in file "I2C_drive.c"
  6799 ;; Parameters:    Size  Location     Type
  6800 ;;		None
  6801 ;; Auto vars:     Size  Location     Type
  6802 ;;		None
  6803 ;; Return value:  Size  Location     Type
  6804 ;;                  1    wreg      void 
  6805 ;; Registers used:
  6806 ;;		wreg, status,2, status,0, pclath, cstack
  6807 ;; Tracked objects:
  6808 ;;		On entry : 0/0
  6809 ;;		On exit  : 0/0
  6810 ;;		Unchanged: 0/0
  6811 ;; Data sizes:     COMMON   BANK0   BANK1   BANK3   BANK2
  6812 ;;      Params:         0       0       0       0       0
  6813 ;;      Locals:         0       0       0       0       0
  6814 ;;      Temps:          0       0       0       0       0
  6815 ;;      Totals:         0       0       0       0       0
  6816 ;;Total ram usage:        0 bytes
  6817 ;; Hardware stack levels used:    1
  6818 ;; Hardware stack levels required when called:    1
  6819 ;; This function calls:
  6820 ;;		i1_I2C_Wait
  6821 ;; This function is called by:
  6822 ;;		_EEPROM_write
  6823 ;; This function uses a non-reentrant model
  6824 ;;
  6825                           
  6826                           
  6827                           ;psect for function i1_I2C1_Stop
  6828  09B6                     i1_I2C1_Stop:	
  6829  09B6                     i1l2441:	
  6830                           ;incstack = 0
  6831                           ; Regs used in i1_I2C1_Stop: [wreg+status,2+status,0+pclath+cstack]
  6832                           
  6833                           
  6834                           ;I2C_drive.c: 42:     I2C_Wait();
  6835  09B6  120A  158A  21E7  120A  158A  	fcall	i1_I2C_Wait
  6836  09BB                     i1l2443:	
  6837                           
  6838                           ;I2C_drive.c: 43:     (SSPCON2 |= (1 << 2));
  6839  09BB  1683               	bsf	3,5	;RP0=1, select bank1
  6840  09BC  1303               	bcf	3,6	;RP1=0, select bank1
  6841  09BD  1511               	bsf	17,2	;volatile
  6842  09BE                     i1l136:	
  6843  09BE  0008               	return
  6844  09BF                     __end_ofi1_I2C1_Stop:	
  6845                           
  6846                           	psect	text38
  6847  09AD                     __ptext38:	
  6848 ;; *************** function i1_I2C1_Start *****************
  6849 ;; Defined at:
  6850 ;;		line 31 in file "I2C_drive.c"
  6851 ;; Parameters:    Size  Location     Type
  6852 ;;		None
  6853 ;; Auto vars:     Size  Location     Type
  6854 ;;		None
  6855 ;; Return value:  Size  Location     Type
  6856 ;;                  1    wreg      void 
  6857 ;; Registers used:
  6858 ;;		wreg, status,2, status,0, pclath, cstack
  6859 ;; Tracked objects:
  6860 ;;		On entry : 0/0
  6861 ;;		On exit  : 0/0
  6862 ;;		Unchanged: 0/0
  6863 ;; Data sizes:     COMMON   BANK0   BANK1   BANK3   BANK2
  6864 ;;      Params:         0       0       0       0       0
  6865 ;;      Locals:         0       0       0       0       0
  6866 ;;      Temps:          0       0       0       0       0
  6867 ;;      Totals:         0       0       0       0       0
  6868 ;;Total ram usage:        0 bytes
  6869 ;; Hardware stack levels used:    1
  6870 ;; Hardware stack levels required when called:    1
  6871 ;; This function calls:
  6872 ;;		i1_I2C_Wait
  6873 ;; This function is called by:
  6874 ;;		_EEPROM_write
  6875 ;; This function uses a non-reentrant model
  6876 ;;
  6877                           
  6878                           
  6879                           ;psect for function i1_I2C1_Start
  6880  09AD                     i1_I2C1_Start:	
  6881  09AD                     i1l2437:	
  6882                           ;incstack = 0
  6883                           ; Regs used in i1_I2C1_Start: [wreg+status,2+status,0+pclath+cstack]
  6884                           
  6885                           
  6886                           ;I2C_drive.c: 32:     I2C_Wait();
  6887  09AD  120A  158A  21E7  120A  158A  	fcall	i1_I2C_Wait
  6888  09B2                     i1l2439:	
  6889                           
  6890                           ;I2C_drive.c: 33:     (SSPCON2 |= (1 << 0));
  6891  09B2  1683               	bsf	3,5	;RP0=1, select bank1
  6892  09B3  1303               	bcf	3,6	;RP1=0, select bank1
  6893  09B4  1411               	bsf	17,0	;volatile
  6894  09B5                     i1l133:	
  6895  09B5  0008               	return
  6896  09B6                     __end_ofi1_I2C1_Start:	
  6897                           
  6898                           	psect	text39
  6899  09E7                     __ptext39:	
  6900 ;; *************** function i1_I2C_Wait *****************
  6901 ;; Defined at:
  6902 ;;		line 8 in file "I2C_drive.c"
  6903 ;; Parameters:    Size  Location     Type
  6904 ;;		None
  6905 ;; Auto vars:     Size  Location     Type
  6906 ;;		None
  6907 ;; Return value:  Size  Location     Type
  6908 ;;                  1    wreg      void 
  6909 ;; Registers used:
  6910 ;;		wreg, status,2
  6911 ;; Tracked objects:
  6912 ;;		On entry : 0/0
  6913 ;;		On exit  : 0/0
  6914 ;;		Unchanged: 0/0
  6915 ;; Data sizes:     COMMON   BANK0   BANK1   BANK3   BANK2
  6916 ;;      Params:         0       0       0       0       0
  6917 ;;      Locals:         0       0       0       0       0
  6918 ;;      Temps:          0       0       0       0       0
  6919 ;;      Totals:         0       0       0       0       0
  6920 ;;Total ram usage:        0 bytes
  6921 ;; Hardware stack levels used:    1
  6922 ;; This function calls:
  6923 ;;		Nothing
  6924 ;; This function is called by:
  6925 ;;		i1_I2C1_Start
  6926 ;;		i1_I2C1_Stop
  6927 ;;		i1_I2C1_Wr
  6928 ;; This function uses a non-reentrant model
  6929 ;;
  6930                           
  6931                           
  6932                           ;psect for function i1_I2C_Wait
  6933  09E7                     i1_I2C_Wait:	
  6934  09E7                     i1l2171:	
  6935                           ;incstack = 0
  6936                           ; Regs used in i1_I2C_Wait: [wreg+status,2]
  6937                           
  6938  09E7                     i1l124:	
  6939                           ;I2C_drive.c: 9:   while ((SSPSTAT & 0x04) || (SSPCON2 & 0x1F));
  6940                           
  6941  09E7  1683               	bsf	3,5	;RP0=1, select bank1
  6942  09E8  1303               	bcf	3,6	;RP1=0, select bank1
  6943  09E9  1914               	btfsc	20,2	;volatile
  6944  09EA  29EC               	goto	u158_21
  6945  09EB  29ED               	goto	u158_20
  6946  09EC                     u158_21:	
  6947  09EC  29E7               	goto	i1l124
  6948  09ED                     u158_20:	
  6949  09ED                     i1l2173:	
  6950  09ED  0811               	movf	17,w	;volatile
  6951  09EE  391F               	andlw	31
  6952  09EF  1D03               	btfss	3,2
  6953  09F0  29F2               	goto	u159_21
  6954  09F1  29F3               	goto	u159_20
  6955  09F2                     u159_21:	
  6956  09F2  29E7               	goto	i1l124
  6957  09F3                     u159_20:	
  6958  09F3                     i1l127:	
  6959  09F3  0008               	return
  6960  09F4                     __end_ofi1_I2C_Wait:	
  6961                           
  6962                           	psect	text40
  6963  0991                     __ptext40:	
  6964 ;; *************** function _start_timer *****************
  6965 ;; Defined at:
  6966 ;;		line 34 in file "timer2.c"
  6967 ;; Parameters:    Size  Location     Type
  6968 ;;		None
  6969 ;; Auto vars:     Size  Location     Type
  6970 ;;		None
  6971 ;; Return value:  Size  Location     Type
  6972 ;;                  1    wreg      void 
  6973 ;; Registers used:
  6974 ;;		wreg
  6975 ;; Tracked objects:
  6976 ;;		On entry : 0/0
  6977 ;;		On exit  : 0/0
  6978 ;;		Unchanged: 0/0
  6979 ;; Data sizes:     COMMON   BANK0   BANK1   BANK3   BANK2
  6980 ;;      Params:         0       0       0       0       0
  6981 ;;      Locals:         0       0       0       0       0
  6982 ;;      Temps:          0       0       0       0       0
  6983 ;;      Totals:         0       0       0       0       0
  6984 ;;Total ram usage:        0 bytes
  6985 ;; Hardware stack levels used:    1
  6986 ;; This function calls:
  6987 ;;		Nothing
  6988 ;; This function is called by:
  6989 ;;		_isr
  6990 ;; This function uses a non-reentrant model
  6991 ;;
  6992                           
  6993                           
  6994                           ;psect for function _start_timer
  6995  0991                     _start_timer:	
  6996  0991                     i1l3069:	
  6997                           ;incstack = 0
  6998                           ; Regs used in _start_timer: [wreg]
  6999                           
  7000                           
  7001                           ;timer2.c: 35:     (T2CON |= (1 << 2)) ;
  7002  0991  1283               	bcf	3,5	;RP0=0, select bank0
  7003  0992  1303               	bcf	3,6	;RP1=0, select bank0
  7004  0993  1512               	bsf	18,2	;volatile
  7005  0994                     i1l3071:	
  7006                           
  7007                           ;timer2.c: 36:     TMR2 = 131 ;
  7008  0994  3083               	movlw	131
  7009  0995  0091               	movwf	17	;volatile
  7010  0996                     i1l368:	
  7011  0996  0008               	return
  7012  0997                     __end_of_start_timer:	
  7013                           
  7014                           	psect	text41
  7015  0C56                     __ptext41:	
  7016 ;; *************** function _ssd_blink *****************
  7017 ;; Defined at:
  7018 ;;		line 140 in file "SSD.c"
  7019 ;; Parameters:    Size  Location     Type
  7020 ;;  e_temp          1    wreg     unsigned char 
  7021 ;; Auto vars:     Size  Location     Type
  7022 ;;  e_temp          1   13[COMMON] unsigned char 
  7023 ;; Return value:  Size  Location     Type
  7024 ;;                  1    wreg      void 
  7025 ;; Registers used:
  7026 ;;		wreg, fsr0l, fsr0h, status,2, status,0, pclath, cstack
  7027 ;; Tracked objects:
  7028 ;;		On entry : 0/0
  7029 ;;		On exit  : 0/0
  7030 ;;		Unchanged: 0/0
  7031 ;; Data sizes:     COMMON   BANK0   BANK1   BANK3   BANK2
  7032 ;;      Params:         0       0       0       0       0
  7033 ;;      Locals:         1       0       0       0       0
  7034 ;;      Temps:          0       2       0       0       0
  7035 ;;      Totals:         1       2       0       0       0
  7036 ;;Total ram usage:        3 bytes
  7037 ;; Hardware stack levels used:    1
  7038 ;; Hardware stack levels required when called:    2
  7039 ;; This function calls:
  7040 ;;		_ssd_update
  7041 ;;		i1_ssd_turn_off
  7042 ;; This function is called by:
  7043 ;;		_isr
  7044 ;; This function uses a non-reentrant model
  7045 ;;
  7046                           
  7047                           
  7048                           ;psect for function _ssd_blink
  7049  0C56                     _ssd_blink:	
  7050                           
  7051                           ;incstack = 0
  7052                           ; Regs used in _ssd_blink: [wreg-fsr0h+status,2+status,0+pclath+cstack]
  7053                           ;ssd_blink@e_temp stored from wreg
  7054  0C56  00FD               	movwf	ssd_blink@e_temp
  7055  0C57                     i1l3035:	
  7056                           
  7057                           ;SSD.c: 141:      ssd_timer += 1;
  7058  0C57  3001               	movlw	1
  7059  0C58  1283               	bcf	3,5	;RP0=0, select bank0
  7060  0C59  1303               	bcf	3,6	;RP1=0, select bank0
  7061  0C5A  07D8               	addwf	_ssd_timer,f
  7062  0C5B  1803               	skipnc
  7063  0C5C  0AD9               	incf	_ssd_timer+1,f
  7064  0C5D  3000               	movlw	0
  7065  0C5E  07D9               	addwf	_ssd_timer+1,f
  7066                           
  7067                           ;SSD.c: 143:      switch (blink){
  7068  0C5F  2C87               	goto	i1l3051
  7069  0C60                     i1l3037:	
  7070                           
  7071                           ;SSD.c: 146:             if (ssd_timer < 1000){
  7072  0C60  3003               	movlw	3
  7073  0C61  0259               	subwf	_ssd_timer+1,w
  7074  0C62  30E8               	movlw	232
  7075  0C63  1903               	skipnz
  7076  0C64  0258               	subwf	_ssd_timer,w
  7077  0C65  1803               	skipnc
  7078  0C66  2C68               	goto	u310_21
  7079  0C67  2C69               	goto	u310_20
  7080  0C68                     u310_21:	
  7081  0C68  2C70               	goto	i1l226
  7082  0C69                     u310_20:	
  7083  0C69                     i1l3039:	
  7084                           
  7085                           ;SSD.c: 147:                 ssd_update(e_temp);
  7086  0C69  087D               	movf	ssd_blink@e_temp,w
  7087  0C6A  120A  118A  2789  120A  158A  	fcall	_ssd_update
  7088                           
  7089                           ;SSD.c: 148:                 }
  7090  0C6F  2C97               	goto	i1l233
  7091  0C70                     i1l226:	
  7092                           ;SSD.c: 149:             else{
  7093                           
  7094                           
  7095                           ;SSD.c: 150:                 blink = SSD_OFF ;
  7096  0C70  01DF               	clrf	_blink
  7097  0C71  0ADF               	incf	_blink,f
  7098  0C72                     i1l3041:	
  7099                           
  7100                           ;SSD.c: 151:                 ssd_timer = 0 ;
  7101  0C72  01D8               	clrf	_ssd_timer
  7102  0C73  01D9               	clrf	_ssd_timer+1
  7103  0C74                     i1l3043:	
  7104                           
  7105                           ;SSD.c: 152:                 ssd_turn_off();
  7106  0C74  120A  158A  21DA  120A  158A  	fcall	i1_ssd_turn_off
  7107  0C79  2C97               	goto	i1l233
  7108  0C7A                     i1l3045:	
  7109                           
  7110                           ;SSD.c: 157:             if (ssd_timer == 1000){
  7111  0C7A  30E8               	movlw	232
  7112  0C7B  0658               	xorwf	_ssd_timer,w
  7113  0C7C  3003               	movlw	3
  7114  0C7D  1903               	skipnz
  7115  0C7E  0659               	xorwf	_ssd_timer+1,w
  7116  0C7F  1D03               	btfss	3,2
  7117  0C80  2C82               	goto	u311_21
  7118  0C81  2C83               	goto	u311_20
  7119  0C82                     u311_21:	
  7120  0C82  2C97               	goto	i1l233
  7121  0C83                     u311_20:	
  7122  0C83                     i1l3047:	
  7123                           
  7124                           ;SSD.c: 158:                 blink = SSD_ON ;
  7125  0C83  01DF               	clrf	_blink
  7126                           
  7127                           ;SSD.c: 159:                 ssd_timer = 0 ;
  7128  0C84  01D8               	clrf	_ssd_timer
  7129  0C85  01D9               	clrf	_ssd_timer+1
  7130                           
  7131                           ;SSD.c: 160:             }
  7132  0C86  2C97               	goto	i1l233
  7133  0C87                     i1l3051:	
  7134  0C87  085F               	movf	_blink,w
  7135  0C88  00A0               	movwf	??_ssd_blink
  7136  0C89  01A1               	clrf	??_ssd_blink+1
  7137                           
  7138                           ; Switch on 2 bytes has been partitioned into a top level switch of size 1, and 1 sub-sw
      +                          itches
  7139                           ; Switch size 1, requested type "simple"
  7140                           ; Number of cases is 1, Range of values is 0 to 0
  7141                           ; switch strategies available:
  7142                           ; Name         Instructions Cycles
  7143                           ; simple_byte            4     3 (average)
  7144                           ; direct_byte           11     8 (fixed)
  7145                           ; jumptable            260     6 (fixed)
  7146                           ;	Chosen strategy is simple_byte
  7147  0C8A  0821               	movf	??_ssd_blink+1,w
  7148  0C8B  3A00               	xorlw	0	; case 0
  7149  0C8C  1903               	skipnz
  7150  0C8D  2C8F               	goto	i1l3349
  7151  0C8E  2C97               	goto	i1l233
  7152  0C8F                     i1l3349:	
  7153                           
  7154                           ; Switch size 1, requested type "simple"
  7155                           ; Number of cases is 2, Range of values is 0 to 1
  7156                           ; switch strategies available:
  7157                           ; Name         Instructions Cycles
  7158                           ; simple_byte            7     4 (average)
  7159                           ; direct_byte           14     8 (fixed)
  7160                           ; jumptable            260     6 (fixed)
  7161                           ;	Chosen strategy is simple_byte
  7162  0C8F  0820               	movf	??_ssd_blink,w
  7163  0C90  3A00               	xorlw	0	; case 0
  7164  0C91  1903               	skipnz
  7165  0C92  2C60               	goto	i1l3037
  7166  0C93  3A01               	xorlw	1	; case 1
  7167  0C94  1903               	skipnz
  7168  0C95  2C7A               	goto	i1l3045
  7169  0C96  2C97               	goto	i1l233
  7170  0C97                     i1l233:	
  7171  0C97  0008               	return
  7172  0C98                     __end_of_ssd_blink:	
  7173                           
  7174                           	psect	text42
  7175  09DA                     __ptext42:	
  7176 ;; *************** function i1_ssd_turn_off *****************
  7177 ;; Defined at:
  7178 ;;		line 128 in file "SSD.c"
  7179 ;; Parameters:    Size  Location     Type
  7180 ;;		None
  7181 ;; Auto vars:     Size  Location     Type
  7182 ;;		None
  7183 ;; Return value:  Size  Location     Type
  7184 ;;                  1    wreg      void 
  7185 ;; Registers used:
  7186 ;;		wreg, status,2, status,0
  7187 ;; Tracked objects:
  7188 ;;		On entry : 0/0
  7189 ;;		On exit  : 0/0
  7190 ;;		Unchanged: 0/0
  7191 ;; Data sizes:     COMMON   BANK0   BANK1   BANK3   BANK2
  7192 ;;      Params:         0       0       0       0       0
  7193 ;;      Locals:         0       0       0       0       0
  7194 ;;      Temps:          1       0       0       0       0
  7195 ;;      Totals:         1       0       0       0       0
  7196 ;;Total ram usage:        1 bytes
  7197 ;; Hardware stack levels used:    1
  7198 ;; This function calls:
  7199 ;;		Nothing
  7200 ;; This function is called by:
  7201 ;;		_isr
  7202 ;;		_ssd_blink
  7203 ;; This function uses a non-reentrant model
  7204 ;;
  7205                           
  7206                           
  7207                           ;psect for function i1_ssd_turn_off
  7208  09DA                     i1_ssd_turn_off:	
  7209  09DA                     i1l2909:	
  7210                           ;incstack = 0
  7211                           ; Regs used in i1_ssd_turn_off: [wreg+status,2+status,0]
  7212                           
  7213                           
  7214                           ;SSD.c: 129:     (PORTD &= ~(255 << 0));
  7215  09DA  1283               	bcf	3,5	;RP0=0, select bank0
  7216  09DB  1303               	bcf	3,6	;RP1=0, select bank0
  7217  09DC  0188               	clrf	8	;volatile
  7218  09DD                     i1l2911:	
  7219                           
  7220                           ;SSD.c: 130:     (PORTA &= ~(1 << 4));
  7221  09DD  30EF               	movlw	239
  7222  09DE  00F0               	movwf	??i1_ssd_turn_off
  7223  09DF  0870               	movf	??i1_ssd_turn_off,w
  7224  09E0  0585               	andwf	5,f	;volatile
  7225  09E1                     i1l2913:	
  7226                           
  7227                           ;SSD.c: 131:     (PORTA &= ~(1 << 5));
  7228  09E1  30DF               	movlw	223
  7229  09E2  00F0               	movwf	??i1_ssd_turn_off
  7230  09E3  0870               	movf	??i1_ssd_turn_off,w
  7231  09E4  0585               	andwf	5,f	;volatile
  7232                           
  7233                           ;SSD.c: 132:     ssd_delay = 0 ;
  7234  09E5  01E7               	clrf	_ssd_delay
  7235  09E6                     i1l221:	
  7236  09E6  0008               	return
  7237  09E7                     __end_ofi1_ssd_turn_off:	
  7238                           
  7239                           	psect	text43
  7240  0789                     __ptext43:	
  7241 ;; *************** function _ssd_update *****************
  7242 ;; Defined at:
  7243 ;;		line 95 in file "SSD.c"
  7244 ;; Parameters:    Size  Location     Type
  7245 ;;  temp            1    wreg     unsigned char 
  7246 ;; Auto vars:     Size  Location     Type
  7247 ;;  temp            1   12[COMMON] unsigned char 
  7248 ;; Return value:  Size  Location     Type
  7249 ;;                  1    wreg      void 
  7250 ;; Registers used:
  7251 ;;		wreg, fsr0l, fsr0h, status,2, status,0, pclath, cstack
  7252 ;; Tracked objects:
  7253 ;;		On entry : 0/0
  7254 ;;		On exit  : 0/0
  7255 ;;		Unchanged: 0/0
  7256 ;; Data sizes:     COMMON   BANK0   BANK1   BANK3   BANK2
  7257 ;;      Params:         0       0       0       0       0
  7258 ;;      Locals:         1       0       0       0       0
  7259 ;;      Temps:          3       0       0       0       0
  7260 ;;      Totals:         4       0       0       0       0
  7261 ;;Total ram usage:        4 bytes
  7262 ;; Hardware stack levels used:    1
  7263 ;; Hardware stack levels required when called:    1
  7264 ;; This function calls:
  7265 ;;		___awdiv
  7266 ;;		___awmod
  7267 ;;		_display7s
  7268 ;; This function is called by:
  7269 ;;		_isr
  7270 ;;		_ssd_blink
  7271 ;; This function uses a non-reentrant model
  7272 ;;
  7273                           
  7274                           
  7275                           ;psect for function _ssd_update
  7276  0789                     _ssd_update:	
  7277                           
  7278                           ;incstack = 0
  7279                           ; Regs used in _ssd_update: [wreg-fsr0h+status,2+status,0+pclath+cstack]
  7280                           ;ssd_update@temp stored from wreg
  7281  0789  00FC               	movwf	ssd_update@temp
  7282  078A                     i1l2451:	
  7283                           
  7284                           ;SSD.c: 96:     ssd_delay += 1;
  7285  078A  3001               	movlw	1
  7286  078B  00F9               	movwf	??_ssd_update
  7287  078C  0879               	movf	??_ssd_update,w
  7288  078D  1283               	bcf	3,5	;RP0=0, select bank0
  7289  078E  1303               	bcf	3,6	;RP1=0, select bank0
  7290  078F  07E7               	addwf	_ssd_delay,f
  7291                           
  7292                           ;SSD.c: 98:     if (ssd_delay == 50){
  7293  0790  3032               	movlw	50
  7294  0791  0667               	xorwf	_ssd_delay,w
  7295  0792  1D03               	btfss	3,2
  7296  0793  2F95               	goto	u198_21
  7297  0794  2F96               	goto	u198_20
  7298  0795                     u198_21:	
  7299  0795  2FF6               	goto	i1l218
  7300  0796                     u198_20:	
  7301  0796  2FE6               	goto	i1l2481
  7302  0797                     i1l2455:	
  7303                           
  7304                           ;SSD.c: 102:                 tens = temp / 10 ;
  7305  0797  300A               	movlw	10
  7306  0798  00F0               	movwf	___awdiv@divisor
  7307  0799  3000               	movlw	0
  7308  079A  00F1               	movwf	___awdiv@divisor+1
  7309  079B  087C               	movf	ssd_update@temp,w
  7310  079C  00F9               	movwf	??_ssd_update
  7311  079D  01FA               	clrf	??_ssd_update+1
  7312  079E  0879               	movf	??_ssd_update,w
  7313  079F  00F2               	movwf	___awdiv@dividend
  7314  07A0  087A               	movf	??_ssd_update+1,w
  7315  07A1  00F3               	movwf	___awdiv@dividend+1
  7316  07A2  120A  158A  2649  120A  118A  	fcall	___awdiv
  7317  07A7  0870               	movf	?___awdiv,w
  7318  07A8  00FB               	movwf	??_ssd_update+2
  7319  07A9  087B               	movf	??_ssd_update+2,w
  7320  07AA  1283               	bcf	3,5	;RP0=0, select bank0
  7321  07AB  1303               	bcf	3,6	;RP1=0, select bank0
  7322  07AC  00E2               	movwf	_tens
  7323  07AD                     i1l2457:	
  7324                           
  7325                           ;SSD.c: 103:                 (PORTA |= (1 << 4));
  7326  07AD  1605               	bsf	5,4	;volatile
  7327  07AE                     i1l2459:	
  7328                           
  7329                           ;SSD.c: 104:                 (PORTA &= ~(1 << 5));
  7330  07AE  30DF               	movlw	223
  7331  07AF  00F9               	movwf	??_ssd_update
  7332  07B0  0879               	movf	??_ssd_update,w
  7333  07B1  0585               	andwf	5,f	;volatile
  7334  07B2                     i1l2461:	
  7335                           
  7336                           ;SSD.c: 105:                 PORTD = display7s(tens);
  7337  07B2  0862               	movf	_tens,w
  7338  07B3  120A  158A  2589  120A  118A  	fcall	_display7s
  7339  07B8  1283               	bcf	3,5	;RP0=0, select bank0
  7340  07B9  1303               	bcf	3,6	;RP1=0, select bank0
  7341  07BA  0088               	movwf	8	;volatile
  7342  07BB                     i1l2463:	
  7343                           
  7344                           ;SSD.c: 106:                 ssd_delay = 0 ;
  7345  07BB  01E7               	clrf	_ssd_delay
  7346  07BC                     i1l2465:	
  7347                           
  7348                           ;SSD.c: 107:                 ssd_select = SSD_RIGHT ;
  7349  07BC  01E0               	clrf	_ssd_select
  7350  07BD  0AE0               	incf	_ssd_select,f
  7351                           
  7352                           ;SSD.c: 108:                 break ;
  7353  07BE  2FF6               	goto	i1l218
  7354  07BF                     i1l2467:	
  7355                           
  7356                           ;SSD.c: 110:                  ones = temp % 10 ;
  7357  07BF  300A               	movlw	10
  7358  07C0  00F0               	movwf	___awmod@divisor
  7359  07C1  3000               	movlw	0
  7360  07C2  00F1               	movwf	___awmod@divisor+1
  7361  07C3  087C               	movf	ssd_update@temp,w
  7362  07C4  00F9               	movwf	??_ssd_update
  7363  07C5  01FA               	clrf	??_ssd_update+1
  7364  07C6  0879               	movf	??_ssd_update,w
  7365  07C7  00F2               	movwf	___awmod@dividend
  7366  07C8  087A               	movf	??_ssd_update+1,w
  7367  07C9  00F3               	movwf	___awmod@dividend+1
  7368  07CA  120A  158A  2530  120A  118A  	fcall	___awmod
  7369  07CF  0870               	movf	?___awmod,w
  7370  07D0  00FB               	movwf	??_ssd_update+2
  7371  07D1  087B               	movf	??_ssd_update+2,w
  7372  07D2  1283               	bcf	3,5	;RP0=0, select bank0
  7373  07D3  1303               	bcf	3,6	;RP1=0, select bank0
  7374  07D4  00E1               	movwf	_ones
  7375  07D5                     i1l2469:	
  7376                           
  7377                           ;SSD.c: 111:                  (PORTA |= (1 << 5));
  7378  07D5  1685               	bsf	5,5	;volatile
  7379  07D6                     i1l2471:	
  7380                           
  7381                           ;SSD.c: 112:                  (PORTA &= ~(1 << 4));
  7382  07D6  30EF               	movlw	239
  7383  07D7  00F9               	movwf	??_ssd_update
  7384  07D8  0879               	movf	??_ssd_update,w
  7385  07D9  0585               	andwf	5,f	;volatile
  7386  07DA                     i1l2473:	
  7387                           
  7388                           ;SSD.c: 113:                  PORTD = display7s(ones);
  7389  07DA  0861               	movf	_ones,w
  7390  07DB  120A  158A  2589  120A  118A  	fcall	_display7s
  7391  07E0  1283               	bcf	3,5	;RP0=0, select bank0
  7392  07E1  1303               	bcf	3,6	;RP1=0, select bank0
  7393  07E2  0088               	movwf	8	;volatile
  7394  07E3                     i1l2475:	
  7395                           
  7396                           ;SSD.c: 114:                  ssd_delay = 0 ;
  7397  07E3  01E7               	clrf	_ssd_delay
  7398  07E4                     i1l2477:	
  7399                           
  7400                           ;SSD.c: 115:                  ssd_select = SSD_LEFT ;
  7401  07E4  01E0               	clrf	_ssd_select
  7402                           
  7403                           ;SSD.c: 116:                  break;
  7404  07E5  2FF6               	goto	i1l218
  7405  07E6                     i1l2481:	
  7406  07E6  0860               	movf	_ssd_select,w
  7407  07E7  00F9               	movwf	??_ssd_update
  7408  07E8  01FA               	clrf	??_ssd_update+1
  7409                           
  7410                           ; Switch on 2 bytes has been partitioned into a top level switch of size 1, and 1 sub-sw
      +                          itches
  7411                           ; Switch size 1, requested type "simple"
  7412                           ; Number of cases is 1, Range of values is 0 to 0
  7413                           ; switch strategies available:
  7414                           ; Name         Instructions Cycles
  7415                           ; simple_byte            4     3 (average)
  7416                           ; direct_byte           11     8 (fixed)
  7417                           ; jumptable            260     6 (fixed)
  7418                           ;	Chosen strategy is simple_byte
  7419  07E9  087A               	movf	??_ssd_update+1,w
  7420  07EA  3A00               	xorlw	0	; case 0
  7421  07EB  1903               	skipnz
  7422  07EC  2FEE               	goto	i1l3351
  7423  07ED  2FF6               	goto	i1l218
  7424  07EE                     i1l3351:	
  7425                           
  7426                           ; Switch size 1, requested type "simple"
  7427                           ; Number of cases is 2, Range of values is 0 to 1
  7428                           ; switch strategies available:
  7429                           ; Name         Instructions Cycles
  7430                           ; simple_byte            7     4 (average)
  7431                           ; direct_byte           14     8 (fixed)
  7432                           ; jumptable            260     6 (fixed)
  7433                           ;	Chosen strategy is simple_byte
  7434  07EE  0879               	movf	??_ssd_update,w
  7435  07EF  3A00               	xorlw	0	; case 0
  7436  07F0  1903               	skipnz
  7437  07F1  2F97               	goto	i1l2455
  7438  07F2  3A01               	xorlw	1	; case 1
  7439  07F3  1903               	skipnz
  7440  07F4  2FBF               	goto	i1l2467
  7441  07F5  2FF6               	goto	i1l218
  7442  07F6                     i1l218:	
  7443  07F6  0008               	return
  7444  07F7                     __end_of_ssd_update:	
  7445                           
  7446                           	psect	text44
  7447  0D89                     __ptext44:	
  7448 ;; *************** function _display7s *****************
  7449 ;; Defined at:
  7450 ;;		line 31 in file "SSD.c"
  7451 ;; Parameters:    Size  Location     Type
  7452 ;;  v               1    wreg     unsigned char 
  7453 ;; Auto vars:     Size  Location     Type
  7454 ;;  v               1    2[COMMON] unsigned char 
  7455 ;; Return value:  Size  Location     Type
  7456 ;;                  1    wreg      unsigned char 
  7457 ;; Registers used:
  7458 ;;		wreg, fsr0l, fsr0h, status,2, status,0
  7459 ;; Tracked objects:
  7460 ;;		On entry : 0/0
  7461 ;;		On exit  : 0/0
  7462 ;;		Unchanged: 0/0
  7463 ;; Data sizes:     COMMON   BANK0   BANK1   BANK3   BANK2
  7464 ;;      Params:         0       0       0       0       0
  7465 ;;      Locals:         1       0       0       0       0
  7466 ;;      Temps:          2       0       0       0       0
  7467 ;;      Totals:         3       0       0       0       0
  7468 ;;Total ram usage:        3 bytes
  7469 ;; Hardware stack levels used:    1
  7470 ;; This function calls:
  7471 ;;		Nothing
  7472 ;; This function is called by:
  7473 ;;		_ssd_update
  7474 ;; This function uses a non-reentrant model
  7475 ;;
  7476                           
  7477                           
  7478                           ;psect for function _display7s
  7479  0D89                     _display7s:	
  7480                           
  7481                           ;incstack = 0
  7482                           ; Regs used in _display7s: [wreg-fsr0h+status,2+status,0]
  7483                           ;display7s@v stored from wreg
  7484  0D89  00F2               	movwf	display7s@v
  7485  0D8A                     i1l2179:	
  7486                           
  7487                           ;SSD.c: 31: uint8_t display7s(uint8_t v);SSD.c: 32: {;SSD.c: 33:   switch(v)
  7488  0D8A  2DAD               	goto	i1l2285
  7489  0D8B                     i1l2181:	
  7490                           
  7491                           ;SSD.c: 36:       return 0x3F;
  7492  0D8B  303F               	movlw	63
  7493  0D8C  2DE7               	goto	i1l192
  7494  0D8D                     i1l2187:	
  7495                           
  7496                           ;SSD.c: 39:       return 0x06;
  7497  0D8D  3006               	movlw	6
  7498  0D8E  2DE7               	goto	i1l192
  7499  0D8F                     i1l2193:	
  7500                           
  7501                           ;SSD.c: 42:       return 0x5B;
  7502  0D8F  305B               	movlw	91
  7503  0D90  2DE7               	goto	i1l192
  7504  0D91                     i1l2199:	
  7505                           
  7506                           ;SSD.c: 45:       return 0x4F;
  7507  0D91  304F               	movlw	79
  7508  0D92  2DE7               	goto	i1l192
  7509  0D93                     i1l2205:	
  7510                           
  7511                           ;SSD.c: 48:       return 0x66;
  7512  0D93  3066               	movlw	102
  7513  0D94  2DE7               	goto	i1l192
  7514  0D95                     i1l2211:	
  7515                           
  7516                           ;SSD.c: 51:       return 0x6D;
  7517  0D95  306D               	movlw	109
  7518  0D96  2DE7               	goto	i1l192
  7519  0D97                     i1l2217:	
  7520                           
  7521                           ;SSD.c: 54:       return 0x7D;
  7522  0D97  307D               	movlw	125
  7523  0D98  2DE7               	goto	i1l192
  7524  0D99                     i1l2223:	
  7525                           
  7526                           ;SSD.c: 57:       return 0x07;
  7527  0D99  3007               	movlw	7
  7528  0D9A  2DE7               	goto	i1l192
  7529  0D9B                     i1l2229:	
  7530                           
  7531                           ;SSD.c: 60:       return 0x7F;
  7532  0D9B  307F               	movlw	127
  7533  0D9C  2DE7               	goto	i1l192
  7534  0D9D                     i1l2235:	
  7535                           
  7536                           ;SSD.c: 63:       return 0x6F;
  7537  0D9D  306F               	movlw	111
  7538  0D9E  2DE7               	goto	i1l192
  7539  0D9F                     i1l2241:	
  7540                           
  7541                           ;SSD.c: 66:       return 0x77;
  7542  0D9F  3077               	movlw	119
  7543  0DA0  2DE7               	goto	i1l192
  7544  0DA1                     i1l2247:	
  7545                           
  7546                           ;SSD.c: 69:       return 0x7c;
  7547  0DA1  307C               	movlw	124
  7548  0DA2  2DE7               	goto	i1l192
  7549  0DA3                     i1l2253:	
  7550                           
  7551                           ;SSD.c: 72:       return 0x58;
  7552  0DA3  3058               	movlw	88
  7553  0DA4  2DE7               	goto	i1l192
  7554  0DA5                     i1l2259:	
  7555                           
  7556                           ;SSD.c: 75:       return 0x5E;
  7557  0DA5  305E               	movlw	94
  7558  0DA6  2DE7               	goto	i1l192
  7559  0DA7                     i1l2265:	
  7560                           
  7561                           ;SSD.c: 78:       return 0x79;
  7562  0DA7  3079               	movlw	121
  7563  0DA8  2DE7               	goto	i1l192
  7564  0DA9                     i1l2271:	
  7565                           
  7566                           ;SSD.c: 81:       return 0x71;
  7567  0DA9  3071               	movlw	113
  7568  0DAA  2DE7               	goto	i1l192
  7569  0DAB                     i1l2277:	
  7570                           
  7571                           ;SSD.c: 84:       return 0;
  7572  0DAB  3000               	movlw	0
  7573  0DAC  2DE7               	goto	i1l192
  7574  0DAD                     i1l2285:	
  7575  0DAD  0872               	movf	display7s@v,w
  7576  0DAE  00F0               	movwf	??_display7s
  7577  0DAF  01F1               	clrf	??_display7s+1
  7578                           
  7579                           ; Switch on 2 bytes has been partitioned into a top level switch of size 1, and 1 sub-sw
      +                          itches
  7580                           ; Switch size 1, requested type "simple"
  7581                           ; Number of cases is 1, Range of values is 0 to 0
  7582                           ; switch strategies available:
  7583                           ; Name         Instructions Cycles
  7584                           ; simple_byte            4     3 (average)
  7585                           ; direct_byte           11     8 (fixed)
  7586                           ; jumptable            260     6 (fixed)
  7587                           ;	Chosen strategy is simple_byte
  7588  0DB0  0871               	movf	??_display7s+1,w
  7589  0DB1  3A00               	xorlw	0	; case 0
  7590  0DB2  1903               	skipnz
  7591  0DB3  2DB5               	goto	i1l3353
  7592  0DB4  2DAB               	goto	i1l2277
  7593  0DB5                     i1l3353:	
  7594                           
  7595                           ; Switch size 1, requested type "simple"
  7596                           ; Number of cases is 16, Range of values is 0 to 15
  7597                           ; switch strategies available:
  7598                           ; Name         Instructions Cycles
  7599                           ; simple_byte           49    25 (average)
  7600                           ; direct_byte           56     8 (fixed)
  7601                           ; jumptable            260     6 (fixed)
  7602                           ;	Chosen strategy is simple_byte
  7603  0DB5  0870               	movf	??_display7s,w
  7604  0DB6  3A00               	xorlw	0	; case 0
  7605  0DB7  1903               	skipnz
  7606  0DB8  2D8B               	goto	i1l2181
  7607  0DB9  3A01               	xorlw	1	; case 1
  7608  0DBA  1903               	skipnz
  7609  0DBB  2D8D               	goto	i1l2187
  7610  0DBC  3A03               	xorlw	3	; case 2
  7611  0DBD  1903               	skipnz
  7612  0DBE  2D8F               	goto	i1l2193
  7613  0DBF  3A01               	xorlw	1	; case 3
  7614  0DC0  1903               	skipnz
  7615  0DC1  2D91               	goto	i1l2199
  7616  0DC2  3A07               	xorlw	7	; case 4
  7617  0DC3  1903               	skipnz
  7618  0DC4  2D93               	goto	i1l2205
  7619  0DC5  3A01               	xorlw	1	; case 5
  7620  0DC6  1903               	skipnz
  7621  0DC7  2D95               	goto	i1l2211
  7622  0DC8  3A03               	xorlw	3	; case 6
  7623  0DC9  1903               	skipnz
  7624  0DCA  2D97               	goto	i1l2217
  7625  0DCB  3A01               	xorlw	1	; case 7
  7626  0DCC  1903               	skipnz
  7627  0DCD  2D99               	goto	i1l2223
  7628  0DCE  3A0F               	xorlw	15	; case 8
  7629  0DCF  1903               	skipnz
  7630  0DD0  2D9B               	goto	i1l2229
  7631  0DD1  3A01               	xorlw	1	; case 9
  7632  0DD2  1903               	skipnz
  7633  0DD3  2D9D               	goto	i1l2235
  7634  0DD4  3A03               	xorlw	3	; case 10
  7635  0DD5  1903               	skipnz
  7636  0DD6  2D9F               	goto	i1l2241
  7637  0DD7  3A01               	xorlw	1	; case 11
  7638  0DD8  1903               	skipnz
  7639  0DD9  2DA1               	goto	i1l2247
  7640  0DDA  3A07               	xorlw	7	; case 12
  7641  0DDB  1903               	skipnz
  7642  0DDC  2DA3               	goto	i1l2253
  7643  0DDD  3A01               	xorlw	1	; case 13
  7644  0DDE  1903               	skipnz
  7645  0DDF  2DA5               	goto	i1l2259
  7646  0DE0  3A03               	xorlw	3	; case 14
  7647  0DE1  1903               	skipnz
  7648  0DE2  2DA7               	goto	i1l2265
  7649  0DE3  3A01               	xorlw	1	; case 15
  7650  0DE4  1903               	skipnz
  7651  0DE5  2DA9               	goto	i1l2271
  7652  0DE6  2DAB               	goto	i1l2277
  7653  0DE7                     i1l192:	
  7654  0DE7  0008               	return
  7655  0DE8                     __end_of_display7s:	
  7656                           
  7657                           	psect	text45
  7658  0D30                     __ptext45:	
  7659 ;; *************** function ___awmod *****************
  7660 ;; Defined at:
  7661 ;;		line 5 in file "C:\Program Files (x86)\Microchip\xc8\v2.10\pic\sources\c90\common\awmod.c"
  7662 ;; Parameters:    Size  Location     Type
  7663 ;;  divisor         2    0[COMMON] int 
  7664 ;;  dividend        2    2[COMMON] int 
  7665 ;; Auto vars:     Size  Location     Type
  7666 ;;  sign            1    6[COMMON] unsigned char 
  7667 ;;  counter         1    5[COMMON] unsigned char 
  7668 ;; Return value:  Size  Location     Type
  7669 ;;                  2    0[COMMON] int 
  7670 ;; Registers used:
  7671 ;;		wreg, status,2, status,0
  7672 ;; Tracked objects:
  7673 ;;		On entry : 0/0
  7674 ;;		On exit  : 0/0
  7675 ;;		Unchanged: 0/0
  7676 ;; Data sizes:     COMMON   BANK0   BANK1   BANK3   BANK2
  7677 ;;      Params:         4       0       0       0       0
  7678 ;;      Locals:         2       0       0       0       0
  7679 ;;      Temps:          1       0       0       0       0
  7680 ;;      Totals:         7       0       0       0       0
  7681 ;;Total ram usage:        7 bytes
  7682 ;; Hardware stack levels used:    1
  7683 ;; This function calls:
  7684 ;;		Nothing
  7685 ;; This function is called by:
  7686 ;;		_ssd_update
  7687 ;; This function uses a non-reentrant model
  7688 ;;
  7689                           
  7690                           
  7691                           ;psect for function ___awmod
  7692  0D30                     ___awmod:	
  7693  0D30                     i1l2359:	
  7694                           ;incstack = 0
  7695                           ; Regs used in ___awmod: [wreg+status,2+status,0]
  7696                           
  7697  0D30  01F6               	clrf	___awmod@sign
  7698  0D31                     i1l2361:	
  7699  0D31  1FF3               	btfss	___awmod@dividend+1,7
  7700  0D32  2D34               	goto	u179_21
  7701  0D33  2D35               	goto	u179_20
  7702  0D34                     u179_21:	
  7703  0D34  2D3C               	goto	i1l2367
  7704  0D35                     u179_20:	
  7705  0D35                     i1l2363:	
  7706  0D35  09F2               	comf	___awmod@dividend,f
  7707  0D36  09F3               	comf	___awmod@dividend+1,f
  7708  0D37  0AF2               	incf	___awmod@dividend,f
  7709  0D38  1903               	skipnz
  7710  0D39  0AF3               	incf	___awmod@dividend+1,f
  7711  0D3A                     i1l2365:	
  7712  0D3A  01F6               	clrf	___awmod@sign
  7713  0D3B  0AF6               	incf	___awmod@sign,f
  7714  0D3C                     i1l2367:	
  7715  0D3C  1FF1               	btfss	___awmod@divisor+1,7
  7716  0D3D  2D3F               	goto	u180_21
  7717  0D3E  2D40               	goto	u180_20
  7718  0D3F                     u180_21:	
  7719  0D3F  2D45               	goto	i1l2371
  7720  0D40                     u180_20:	
  7721  0D40                     i1l2369:	
  7722  0D40  09F0               	comf	___awmod@divisor,f
  7723  0D41  09F1               	comf	___awmod@divisor+1,f
  7724  0D42  0AF0               	incf	___awmod@divisor,f
  7725  0D43  1903               	skipnz
  7726  0D44  0AF1               	incf	___awmod@divisor+1,f
  7727  0D45                     i1l2371:	
  7728  0D45  0870               	movf	___awmod@divisor,w
  7729  0D46  0471               	iorwf	___awmod@divisor+1,w
  7730  0D47  1903               	btfsc	3,2
  7731  0D48  2D4A               	goto	u181_21
  7732  0D49  2D4B               	goto	u181_20
  7733  0D4A                     u181_21:	
  7734  0D4A  2D7A               	goto	i1l2389
  7735  0D4B                     u181_20:	
  7736  0D4B                     i1l2373:	
  7737  0D4B  01F5               	clrf	___awmod@counter
  7738  0D4C  0AF5               	incf	___awmod@counter,f
  7739  0D4D  2D59               	goto	i1l2379
  7740  0D4E                     i1l2375:	
  7741  0D4E  3001               	movlw	1
  7742  0D4F                     u182_25:	
  7743  0D4F  1003               	clrc
  7744  0D50  0DF0               	rlf	___awmod@divisor,f
  7745  0D51  0DF1               	rlf	___awmod@divisor+1,f
  7746  0D52  3EFF               	addlw	-1
  7747  0D53  1D03               	skipz
  7748  0D54  2D4F               	goto	u182_25
  7749  0D55                     i1l2377:	
  7750  0D55  3001               	movlw	1
  7751  0D56  00F4               	movwf	??___awmod
  7752  0D57  0874               	movf	??___awmod,w
  7753  0D58  07F5               	addwf	___awmod@counter,f
  7754  0D59                     i1l2379:	
  7755  0D59  1FF1               	btfss	___awmod@divisor+1,7
  7756  0D5A  2D5C               	goto	u183_21
  7757  0D5B  2D5D               	goto	u183_20
  7758  0D5C                     u183_21:	
  7759  0D5C  2D4E               	goto	i1l2375
  7760  0D5D                     u183_20:	
  7761  0D5D                     i1l2381:	
  7762  0D5D  0871               	movf	___awmod@divisor+1,w
  7763  0D5E  0273               	subwf	___awmod@dividend+1,w
  7764  0D5F  1D03               	skipz
  7765  0D60  2D63               	goto	u184_25
  7766  0D61  0870               	movf	___awmod@divisor,w
  7767  0D62  0272               	subwf	___awmod@dividend,w
  7768  0D63                     u184_25:	
  7769  0D63  1C03               	skipc
  7770  0D64  2D66               	goto	u184_21
  7771  0D65  2D67               	goto	u184_20
  7772  0D66                     u184_21:	
  7773  0D66  2D6D               	goto	i1l2385
  7774  0D67                     u184_20:	
  7775  0D67                     i1l2383:	
  7776  0D67  0870               	movf	___awmod@divisor,w
  7777  0D68  02F2               	subwf	___awmod@dividend,f
  7778  0D69  0871               	movf	___awmod@divisor+1,w
  7779  0D6A  1C03               	skipc
  7780  0D6B  03F3               	decf	___awmod@dividend+1,f
  7781  0D6C  02F3               	subwf	___awmod@dividend+1,f
  7782  0D6D                     i1l2385:	
  7783  0D6D  3001               	movlw	1
  7784  0D6E                     u185_25:	
  7785  0D6E  1003               	clrc
  7786  0D6F  0CF1               	rrf	___awmod@divisor+1,f
  7787  0D70  0CF0               	rrf	___awmod@divisor,f
  7788  0D71  3EFF               	addlw	-1
  7789  0D72  1D03               	skipz
  7790  0D73  2D6E               	goto	u185_25
  7791  0D74                     i1l2387:	
  7792  0D74  3001               	movlw	1
  7793  0D75  02F5               	subwf	___awmod@counter,f
  7794  0D76  1D03               	btfss	3,2
  7795  0D77  2D79               	goto	u186_21
  7796  0D78  2D7A               	goto	u186_20
  7797  0D79                     u186_21:	
  7798  0D79  2D5D               	goto	i1l2381
  7799  0D7A                     u186_20:	
  7800  0D7A                     i1l2389:	
  7801  0D7A  0876               	movf	___awmod@sign,w
  7802  0D7B  1903               	btfsc	3,2
  7803  0D7C  2D7E               	goto	u187_21
  7804  0D7D  2D7F               	goto	u187_20
  7805  0D7E                     u187_21:	
  7806  0D7E  2D84               	goto	i1l2393
  7807  0D7F                     u187_20:	
  7808  0D7F                     i1l2391:	
  7809  0D7F  09F2               	comf	___awmod@dividend,f
  7810  0D80  09F3               	comf	___awmod@dividend+1,f
  7811  0D81  0AF2               	incf	___awmod@dividend,f
  7812  0D82  1903               	skipnz
  7813  0D83  0AF3               	incf	___awmod@dividend+1,f
  7814  0D84                     i1l2393:	
  7815  0D84  0873               	movf	___awmod@dividend+1,w
  7816  0D85  00F1               	movwf	?___awmod+1
  7817  0D86  0872               	movf	___awmod@dividend,w
  7818  0D87  00F0               	movwf	?___awmod
  7819  0D88                     i1l623:	
  7820  0D88  0008               	return
  7821  0D89                     __end_of___awmod:	
  7822                           
  7823                           	psect	text46
  7824  0E49                     __ptext46:	
  7825 ;; *************** function ___awdiv *****************
  7826 ;; Defined at:
  7827 ;;		line 5 in file "C:\Program Files (x86)\Microchip\xc8\v2.10\pic\sources\c90\common\awdiv.c"
  7828 ;; Parameters:    Size  Location     Type
  7829 ;;  divisor         2    0[COMMON] int 
  7830 ;;  dividend        2    2[COMMON] int 
  7831 ;; Auto vars:     Size  Location     Type
  7832 ;;  quotient        2    7[COMMON] int 
  7833 ;;  sign            1    6[COMMON] unsigned char 
  7834 ;;  counter         1    5[COMMON] unsigned char 
  7835 ;; Return value:  Size  Location     Type
  7836 ;;                  2    0[COMMON] int 
  7837 ;; Registers used:
  7838 ;;		wreg, status,2, status,0
  7839 ;; Tracked objects:
  7840 ;;		On entry : 0/0
  7841 ;;		On exit  : 0/0
  7842 ;;		Unchanged: 0/0
  7843 ;; Data sizes:     COMMON   BANK0   BANK1   BANK3   BANK2
  7844 ;;      Params:         4       0       0       0       0
  7845 ;;      Locals:         4       0       0       0       0
  7846 ;;      Temps:          1       0       0       0       0
  7847 ;;      Totals:         9       0       0       0       0
  7848 ;;Total ram usage:        9 bytes
  7849 ;; Hardware stack levels used:    1
  7850 ;; This function calls:
  7851 ;;		Nothing
  7852 ;; This function is called by:
  7853 ;;		_ssd_update
  7854 ;; This function uses a non-reentrant model
  7855 ;;
  7856                           
  7857                           
  7858                           ;psect for function ___awdiv
  7859  0E49                     ___awdiv:	
  7860  0E49                     i1l2315:	
  7861                           ;incstack = 0
  7862                           ; Regs used in ___awdiv: [wreg+status,2+status,0]
  7863                           
  7864  0E49  01F6               	clrf	___awdiv@sign
  7865  0E4A                     i1l2317:	
  7866  0E4A  1FF1               	btfss	___awdiv@divisor+1,7
  7867  0E4B  2E4D               	goto	u169_21
  7868  0E4C  2E4E               	goto	u169_20
  7869  0E4D                     u169_21:	
  7870  0E4D  2E55               	goto	i1l2323
  7871  0E4E                     u169_20:	
  7872  0E4E                     i1l2319:	
  7873  0E4E  09F0               	comf	___awdiv@divisor,f
  7874  0E4F  09F1               	comf	___awdiv@divisor+1,f
  7875  0E50  0AF0               	incf	___awdiv@divisor,f
  7876  0E51  1903               	skipnz
  7877  0E52  0AF1               	incf	___awdiv@divisor+1,f
  7878  0E53                     i1l2321:	
  7879  0E53  01F6               	clrf	___awdiv@sign
  7880  0E54  0AF6               	incf	___awdiv@sign,f
  7881  0E55                     i1l2323:	
  7882  0E55  1FF3               	btfss	___awdiv@dividend+1,7
  7883  0E56  2E58               	goto	u170_21
  7884  0E57  2E59               	goto	u170_20
  7885  0E58                     u170_21:	
  7886  0E58  2E62               	goto	i1l2329
  7887  0E59                     u170_20:	
  7888  0E59                     i1l2325:	
  7889  0E59  09F2               	comf	___awdiv@dividend,f
  7890  0E5A  09F3               	comf	___awdiv@dividend+1,f
  7891  0E5B  0AF2               	incf	___awdiv@dividend,f
  7892  0E5C  1903               	skipnz
  7893  0E5D  0AF3               	incf	___awdiv@dividend+1,f
  7894  0E5E                     i1l2327:	
  7895  0E5E  3001               	movlw	1
  7896  0E5F  00F4               	movwf	??___awdiv
  7897  0E60  0874               	movf	??___awdiv,w
  7898  0E61  06F6               	xorwf	___awdiv@sign,f
  7899  0E62                     i1l2329:	
  7900  0E62  01F7               	clrf	___awdiv@quotient
  7901  0E63  01F8               	clrf	___awdiv@quotient+1
  7902  0E64                     i1l2331:	
  7903  0E64  0870               	movf	___awdiv@divisor,w
  7904  0E65  0471               	iorwf	___awdiv@divisor+1,w
  7905  0E66  1903               	btfsc	3,2
  7906  0E67  2E69               	goto	u171_21
  7907  0E68  2E6A               	goto	u171_20
  7908  0E69                     u171_21:	
  7909  0E69  2EA1               	goto	i1l2351
  7910  0E6A                     u171_20:	
  7911  0E6A                     i1l2333:	
  7912  0E6A  01F5               	clrf	___awdiv@counter
  7913  0E6B  0AF5               	incf	___awdiv@counter,f
  7914  0E6C  2E78               	goto	i1l2339
  7915  0E6D                     i1l2335:	
  7916  0E6D  3001               	movlw	1
  7917  0E6E                     u172_25:	
  7918  0E6E  1003               	clrc
  7919  0E6F  0DF0               	rlf	___awdiv@divisor,f
  7920  0E70  0DF1               	rlf	___awdiv@divisor+1,f
  7921  0E71  3EFF               	addlw	-1
  7922  0E72  1D03               	skipz
  7923  0E73  2E6E               	goto	u172_25
  7924  0E74                     i1l2337:	
  7925  0E74  3001               	movlw	1
  7926  0E75  00F4               	movwf	??___awdiv
  7927  0E76  0874               	movf	??___awdiv,w
  7928  0E77  07F5               	addwf	___awdiv@counter,f
  7929  0E78                     i1l2339:	
  7930  0E78  1FF1               	btfss	___awdiv@divisor+1,7
  7931  0E79  2E7B               	goto	u173_21
  7932  0E7A  2E7C               	goto	u173_20
  7933  0E7B                     u173_21:	
  7934  0E7B  2E6D               	goto	i1l2335
  7935  0E7C                     u173_20:	
  7936  0E7C                     i1l2341:	
  7937  0E7C  3001               	movlw	1
  7938  0E7D                     u174_25:	
  7939  0E7D  1003               	clrc
  7940  0E7E  0DF7               	rlf	___awdiv@quotient,f
  7941  0E7F  0DF8               	rlf	___awdiv@quotient+1,f
  7942  0E80  3EFF               	addlw	-1
  7943  0E81  1D03               	skipz
  7944  0E82  2E7D               	goto	u174_25
  7945  0E83  0871               	movf	___awdiv@divisor+1,w
  7946  0E84  0273               	subwf	___awdiv@dividend+1,w
  7947  0E85  1D03               	skipz
  7948  0E86  2E89               	goto	u175_25
  7949  0E87  0870               	movf	___awdiv@divisor,w
  7950  0E88  0272               	subwf	___awdiv@dividend,w
  7951  0E89                     u175_25:	
  7952  0E89  1C03               	skipc
  7953  0E8A  2E8C               	goto	u175_21
  7954  0E8B  2E8D               	goto	u175_20
  7955  0E8C                     u175_21:	
  7956  0E8C  2E94               	goto	i1l2347
  7957  0E8D                     u175_20:	
  7958  0E8D                     i1l2343:	
  7959  0E8D  0870               	movf	___awdiv@divisor,w
  7960  0E8E  02F2               	subwf	___awdiv@dividend,f
  7961  0E8F  0871               	movf	___awdiv@divisor+1,w
  7962  0E90  1C03               	skipc
  7963  0E91  03F3               	decf	___awdiv@dividend+1,f
  7964  0E92  02F3               	subwf	___awdiv@dividend+1,f
  7965  0E93                     i1l2345:	
  7966  0E93  1477               	bsf	___awdiv@quotient,0
  7967  0E94                     i1l2347:	
  7968  0E94  3001               	movlw	1
  7969  0E95                     u176_25:	
  7970  0E95  1003               	clrc
  7971  0E96  0CF1               	rrf	___awdiv@divisor+1,f
  7972  0E97  0CF0               	rrf	___awdiv@divisor,f
  7973  0E98  3EFF               	addlw	-1
  7974  0E99  1D03               	skipz
  7975  0E9A  2E95               	goto	u176_25
  7976  0E9B                     i1l2349:	
  7977  0E9B  3001               	movlw	1
  7978  0E9C  02F5               	subwf	___awdiv@counter,f
  7979  0E9D  1D03               	btfss	3,2
  7980  0E9E  2EA0               	goto	u177_21
  7981  0E9F  2EA1               	goto	u177_20
  7982  0EA0                     u177_21:	
  7983  0EA0  2E7C               	goto	i1l2341
  7984  0EA1                     u177_20:	
  7985  0EA1                     i1l2351:	
  7986  0EA1  0876               	movf	___awdiv@sign,w
  7987  0EA2  1903               	btfsc	3,2
  7988  0EA3  2EA5               	goto	u178_21
  7989  0EA4  2EA6               	goto	u178_20
  7990  0EA5                     u178_21:	
  7991  0EA5  2EAB               	goto	i1l2355
  7992  0EA6                     u178_20:	
  7993  0EA6                     i1l2353:	
  7994  0EA6  09F7               	comf	___awdiv@quotient,f
  7995  0EA7  09F8               	comf	___awdiv@quotient+1,f
  7996  0EA8  0AF7               	incf	___awdiv@quotient,f
  7997  0EA9  1903               	skipnz
  7998  0EAA  0AF8               	incf	___awdiv@quotient+1,f
  7999  0EAB                     i1l2355:	
  8000  0EAB  0878               	movf	___awdiv@quotient+1,w
  8001  0EAC  00F1               	movwf	?___awdiv+1
  8002  0EAD  0877               	movf	___awdiv@quotient,w
  8003  0EAE  00F0               	movwf	?___awdiv
  8004  0EAF                     i1l610:	
  8005  0EAF  0008               	return
  8006  0EB0                     __end_of___awdiv:	
  8007                           
  8008                           	psect	text47
  8009  0BEE                     __ptext47:	
  8010 ;; *************** function _led *****************
  8011 ;; Defined at:
  8012 ;;		line 58 in file "temp_control.c"
  8013 ;; Parameters:    Size  Location     Type
  8014 ;;		None
  8015 ;; Auto vars:     Size  Location     Type
  8016 ;;		None
  8017 ;; Return value:  Size  Location     Type
  8018 ;;                  1    wreg      void 
  8019 ;; Registers used:
  8020 ;;		wreg, fsr0l, fsr0h, status,2, status,0
  8021 ;; Tracked objects:
  8022 ;;		On entry : 0/0
  8023 ;;		On exit  : 0/0
  8024 ;;		Unchanged: 0/0
  8025 ;; Data sizes:     COMMON   BANK0   BANK1   BANK3   BANK2
  8026 ;;      Params:         0       0       0       0       0
  8027 ;;      Locals:         0       0       0       0       0
  8028 ;;      Temps:          2       0       0       0       0
  8029 ;;      Totals:         2       0       0       0       0
  8030 ;;Total ram usage:        2 bytes
  8031 ;; Hardware stack levels used:    1
  8032 ;; This function calls:
  8033 ;;		Nothing
  8034 ;; This function is called by:
  8035 ;;		_isr
  8036 ;; This function uses a non-reentrant model
  8037 ;;
  8038                           
  8039                           
  8040                           ;psect for function _led
  8041  0BEE                     _led:	
  8042  0BEE                     i1l2961:	
  8043                           ;incstack = 0
  8044                           ; Regs used in _led: [wreg-fsr0h+status,2+status,0]
  8045                           
  8046                           
  8047                           ;temp_control.c: 59:     switch (state){
  8048  0BEE  2C0C               	goto	i1l2977
  8049  0BEF                     i1l2963:	
  8050                           
  8051                           ;temp_control.c: 62:             led_timer += 1;
  8052  0BEF  3001               	movlw	1
  8053  0BF0  07D6               	addwf	_led_timer,f
  8054  0BF1  1803               	skipnc
  8055  0BF2  0AD7               	incf	_led_timer+1,f
  8056  0BF3  3000               	movlw	0
  8057  0BF4  07D7               	addwf	_led_timer+1,f
  8058  0BF5                     i1l2965:	
  8059                           
  8060                           ;temp_control.c: 63:                 if (led_timer == 1000){
  8061  0BF5  30E8               	movlw	232
  8062  0BF6  0656               	xorwf	_led_timer,w
  8063  0BF7  3003               	movlw	3
  8064  0BF8  1903               	skipnz
  8065  0BF9  0657               	xorwf	_led_timer+1,w
  8066  0BFA  1D03               	btfss	3,2
  8067  0BFB  2BFD               	goto	u299_21
  8068  0BFC  2BFE               	goto	u299_20
  8069  0BFD                     u299_21:	
  8070  0BFD  2C21               	goto	i1l318
  8071  0BFE                     u299_20:	
  8072  0BFE                     i1l2967:	
  8073                           
  8074                           ;temp_control.c: 64:                     (PORTB ^= ( 1 << 4));
  8075  0BFE  3010               	movlw	16
  8076  0BFF  00F0               	movwf	??_led
  8077  0C00  0870               	movf	??_led,w
  8078  0C01  0686               	xorwf	6,f	;volatile
  8079  0C02                     i1l2969:	
  8080                           
  8081                           ;temp_control.c: 65:                     led_timer = 0 ; }
  8082  0C02  01D6               	clrf	_led_timer
  8083  0C03  01D7               	clrf	_led_timer+1
  8084  0C04  2C21               	goto	i1l318
  8085  0C05                     i1l315:	
  8086                           ;temp_control.c: 68:         case COOLER_ON :
  8087                           
  8088                           
  8089                           ;temp_control.c: 69:                 (PORTB |= (1 << 4));
  8090  0C05  1606               	bsf	6,4	;volatile
  8091  0C06  2C02               	goto	i1l2969
  8092  0C07                     i1l2973:	
  8093                           
  8094                           ;temp_control.c: 74:             (PORTB &= ~(1 << 4));
  8095  0C07  30EF               	movlw	239
  8096  0C08  00F0               	movwf	??_led
  8097  0C09  0870               	movf	??_led,w
  8098  0C0A  0586               	andwf	6,f	;volatile
  8099                           
  8100                           ;temp_control.c: 75:             break;
  8101  0C0B  2C21               	goto	i1l318
  8102  0C0C                     i1l2977:	
  8103  0C0C  1283               	bcf	3,5	;RP0=0, select bank0
  8104  0C0D  1303               	bcf	3,6	;RP1=0, select bank0
  8105  0C0E  085E               	movf	_state,w
  8106  0C0F  00F0               	movwf	??_led
  8107  0C10  01F1               	clrf	??_led+1
  8108                           
  8109                           ; Switch on 2 bytes has been partitioned into a top level switch of size 1, and 1 sub-sw
      +                          itches
  8110                           ; Switch size 1, requested type "simple"
  8111                           ; Number of cases is 1, Range of values is 0 to 0
  8112                           ; switch strategies available:
  8113                           ; Name         Instructions Cycles
  8114                           ; simple_byte            4     3 (average)
  8115                           ; direct_byte           11     8 (fixed)
  8116                           ; jumptable            260     6 (fixed)
  8117                           ;	Chosen strategy is simple_byte
  8118  0C11  0871               	movf	??_led+1,w
  8119  0C12  3A00               	xorlw	0	; case 0
  8120  0C13  1903               	skipnz
  8121  0C14  2C16               	goto	i1l3355
  8122  0C15  2C21               	goto	i1l318
  8123  0C16                     i1l3355:	
  8124                           
  8125                           ; Switch size 1, requested type "simple"
  8126                           ; Number of cases is 3, Range of values is 0 to 2
  8127                           ; switch strategies available:
  8128                           ; Name         Instructions Cycles
  8129                           ; simple_byte           10     6 (average)
  8130                           ; direct_byte           17     8 (fixed)
  8131                           ; jumptable            260     6 (fixed)
  8132                           ;	Chosen strategy is simple_byte
  8133  0C16  0870               	movf	??_led,w
  8134  0C17  3A00               	xorlw	0	; case 0
  8135  0C18  1903               	skipnz
  8136  0C19  2BEF               	goto	i1l2963
  8137  0C1A  3A01               	xorlw	1	; case 1
  8138  0C1B  1903               	skipnz
  8139  0C1C  2C05               	goto	i1l315
  8140  0C1D  3A03               	xorlw	3	; case 2
  8141  0C1E  1903               	skipnz
  8142  0C1F  2C07               	goto	i1l2973
  8143  0C20  2C21               	goto	i1l318
  8144  0C21                     i1l318:	
  8145  0C21  0008               	return
  8146  0C22                     __end_of_led:	
  8147  007E                     btemp	set	126	;btemp
  8148  007E                     wtemp0	set	126


Data Sizes:
    Strings     0
    Constant    0
    Data        3
    BSS         39
    Persistent  0
    Stack       0

Auto Spaces:
    Space          Size  Autos    Used
    COMMON           14     14      14
    BANK0            80     54      76
    BANK1            80     23      43
    BANK3            96      0       0
    BANK2            96      0       0

Pointer List with Targets:

    None.

Critical Paths under _main in COMMON

    None.

Critical Paths under _isr in COMMON

    _isr->_ssd_blink
    _temp_sensor_read->_average
    _average->___lwdiv
    ___xxtofl->_ADC_Read
    ___fltol->___xxtofl
    ___flmul->___xxtofl
    ___fldiv->___xxtofl
    _sw_action->_EEPROM_write
    _EEPROM_write->i1_I2C1_Wr
    _ssd_blink->_ssd_update
    _ssd_update->___awdiv

Critical Paths under _main in BANK0

    None.

Critical Paths under _isr in BANK0

    _isr->_temp_sensor_read
    _temp_sensor_read->___fltol
    ___fltol->___fldiv
    ___fltol->___flmul
    ___flmul->___xxtofl
    ___fldiv->___xxtofl

Critical Paths under _main in BANK1

    _temp_sensor_init->_ADC_Init
    _EEPROM_read->_I2C1_Wr
    _EEPROM_init->_I2C1_Init
    _I2C1_Init->___lldiv

Critical Paths under _isr in BANK1

    None.

Critical Paths under _main in BANK3

    None.

Critical Paths under _isr in BANK3

    None.

Critical Paths under _main in BANK2

    None.

Critical Paths under _isr in BANK2

    None.

Call Graph Tables:

 ---------------------------------------------------------------------------------
 (Depth) Function   	        Calls       Base Space   Used Autos Params    Refs
 ---------------------------------------------------------------------------------
 (0) _main                                                 1     1      0     632
                                             22 BANK1      1     1      0
                        _EEPROM_init
                        _EEPROM_read
                           _ssd_init
                       _ssd_turn_off
                         _stop_timer
                        _switch_init
                       _system_sleep
                  _temp_control_init
                   _temp_control_off
                   _temp_sensor_init
                        _timer2_init
 ---------------------------------------------------------------------------------
 (1) _timer2_init                                          1     1      0       0
                                              0 BANK1      1     1      0
 ---------------------------------------------------------------------------------
 (1) _temp_sensor_init                                     0     0      0       0
                           _ADC_Init
 ---------------------------------------------------------------------------------
 (2) _ADC_Init                                             1     1      0       0
                                              0 BANK1      1     1      0
 ---------------------------------------------------------------------------------
 (1) _temp_control_off                                     1     1      0       0
                                              0 BANK1      1     1      0
 ---------------------------------------------------------------------------------
 (1) _temp_control_init                                    1     1      0       0
                                              0 BANK1      1     1      0
 ---------------------------------------------------------------------------------
 (1) _system_sleep                                         0     0      0       0
 ---------------------------------------------------------------------------------
 (1) _switch_init                                          0     0      0       0
 ---------------------------------------------------------------------------------
 (1) _stop_timer                                           1     1      0       0
                                              0 BANK1      1     1      0
 ---------------------------------------------------------------------------------
 (1) _ssd_turn_off                                         1     1      0       0
                                              0 BANK1      1     1      0
 ---------------------------------------------------------------------------------
 (1) _ssd_init                                             1     1      0       0
                                              0 BANK1      1     1      0
 ---------------------------------------------------------------------------------
 (1) _EEPROM_read                                          4     2      2     220
                                              1 BANK1      4     2      2
                            _I2C1_Rd
                         _I2C1_Start
                          _I2C1_Stop
                            _I2C1_Wr
 ---------------------------------------------------------------------------------
 (2) _I2C1_Wr                                              1     1      0      22
                                              0 BANK1      1     1      0
                           _I2C_Wait
 ---------------------------------------------------------------------------------
 (2) _I2C1_Stop                                            0     0      0       0
                           _I2C_Wait
 ---------------------------------------------------------------------------------
 (2) _I2C1_Start                                           0     0      0       0
                           _I2C_Wait
 ---------------------------------------------------------------------------------
 (3) _I2C_Wait                                             0     0      0       0
 ---------------------------------------------------------------------------------
 (2) _I2C1_Rd                                              0     0      0       0
 ---------------------------------------------------------------------------------
 (1) _EEPROM_init                                          0     0      0     412
                          _I2C1_Init
 ---------------------------------------------------------------------------------
 (2) _I2C1_Init                                            8     4      4     412
                                             14 BANK1      8     4      4
                            ___lldiv
 ---------------------------------------------------------------------------------
 (3) ___lldiv                                             14     6      8     314
                                              0 BANK1     14     6      8
 ---------------------------------------------------------------------------------
 Estimated maximum stack depth 3
 ---------------------------------------------------------------------------------
 (Depth) Function   	        Calls       Base Space   Used Autos Params    Refs
 ---------------------------------------------------------------------------------
 (4) _isr                                                  6     6      0    7234
                                             48 BANK0      6     6      0
                                _led
                          _ssd_blink
                         _ssd_update
                        _start_timer
                          _sw_action
                        _switch_scan
                   _temp_sensor_read
                           _temp_set
                     i1_ssd_turn_off
                       i1_stop_timer
                 i1_temp_control_off
 ---------------------------------------------------------------------------------
 (5) i1_temp_control_off                                   1     1      0       0
                                              0 COMMON     1     1      0
 ---------------------------------------------------------------------------------
 (5) i1_stop_timer                                         1     1      0       0
                                              0 COMMON     1     1      0
 ---------------------------------------------------------------------------------
 (5) _temp_set                                             4     4      0      66
                                              0 COMMON     4     4      0
 ---------------------------------------------------------------------------------
 (5) _temp_sensor_read                                     5     5      0    4996
                                             43 BANK0      5     5      0
                           _ADC_Read
                            ___fldiv
                            ___flmul
                            ___fltol
                           ___xxtofl
                            _average
 ---------------------------------------------------------------------------------
 (6) _average                                              6     6      0     429
                                              8 COMMON     6     6      0
                            ___lwdiv
 ---------------------------------------------------------------------------------
 (7) ___lwdiv                                              8     4      4     314
                                              0 COMMON     8     4      4
 ---------------------------------------------------------------------------------
 (6) ___xxtofl                                            14    10      4     474
                                              5 COMMON     8     4      4
                                              0 BANK0      6     6      0
                           _ADC_Read (ARG)
 ---------------------------------------------------------------------------------
 (6) ___fltol                                             11     7      4     381
                                             32 BANK0     11     7      4
                           _ADC_Read (ARG)
                            ___fldiv (ARG)
                            ___flmul (ARG)
                           ___xxtofl (ARG)
 ---------------------------------------------------------------------------------
 (6) ___flmul                                             26    18      8    2417
                                              6 BANK0     26    18      8
                           _ADC_Read (ARG)
                          __Umul8_16
                           ___xxtofl (ARG)
 ---------------------------------------------------------------------------------
 (7) __Umul8_16                                            9     7      2     799
                                              0 COMMON     9     7      2
 ---------------------------------------------------------------------------------
 (6) ___fldiv                                             26    18      8    1273
                                              6 BANK0     26    18      8
                           ___xxtofl (ARG)
 ---------------------------------------------------------------------------------
 (6) _ADC_Read                                             5     3      2      22
                                              0 COMMON     5     3      2
 ---------------------------------------------------------------------------------
 (5) _switch_scan                                          1     1      0       0
                                              0 COMMON     1     1      0
 ---------------------------------------------------------------------------------
 (5) _sw_action                                            2     2      0     218
                                              4 COMMON     2     2      0
                       _EEPROM_write
 ---------------------------------------------------------------------------------
 (6) _EEPROM_write                                         3     0      3     218
                                              1 COMMON     3     0      3
                       i1_I2C1_Start
                        i1_I2C1_Stop
                          i1_I2C1_Wr
 ---------------------------------------------------------------------------------
 (7) i1_I2C1_Wr                                            1     1      0      22
                                              0 COMMON     1     1      0
                         i1_I2C_Wait
 ---------------------------------------------------------------------------------
 (7) i1_I2C1_Stop                                          0     0      0       0
                         i1_I2C_Wait
 ---------------------------------------------------------------------------------
 (7) i1_I2C1_Start                                         0     0      0       0
                         i1_I2C_Wait
 ---------------------------------------------------------------------------------
 (8) i1_I2C_Wait                                           0     0      0       0
 ---------------------------------------------------------------------------------
 (5) _start_timer                                          0     0      0       0
 ---------------------------------------------------------------------------------
 (5) _ssd_blink                                            3     3      0     988
                                             13 COMMON     1     1      0
                                              0 BANK0      2     2      0
                         _ssd_update
                     i1_ssd_turn_off
 ---------------------------------------------------------------------------------
 (5) i1_ssd_turn_off                                       1     1      0       0
                                              0 COMMON     1     1      0
 ---------------------------------------------------------------------------------
 (5) _ssd_update                                           4     4      0     966
                                              9 COMMON     4     4      0
                            ___awdiv
                            ___awmod
                          _display7s
 ---------------------------------------------------------------------------------
 (6) _display7s                                            3     3      0      22
                                              0 COMMON     3     3      0
 ---------------------------------------------------------------------------------
 (6) ___awmod                                              7     3      4     448
                                              0 COMMON     7     3      4
 ---------------------------------------------------------------------------------
 (6) ___awdiv                                              9     5      4     452
                                              0 COMMON     9     5      4
 ---------------------------------------------------------------------------------
 (5) _led                                                  2     2      0       0
                                              0 COMMON     2     2      0
 ---------------------------------------------------------------------------------
 Estimated maximum stack depth 8
 ---------------------------------------------------------------------------------

 Call Graph Graphs:

 _main (ROOT)
   _EEPROM_init
     _I2C1_Init
       ___lldiv
   _EEPROM_read
     _I2C1_Rd
     _I2C1_Start
       _I2C_Wait
     _I2C1_Stop
       _I2C_Wait
     _I2C1_Wr
       _I2C_Wait
   _ssd_init
   _ssd_turn_off
   _stop_timer
   _switch_init
   _system_sleep
   _temp_control_init
   _temp_control_off
   _temp_sensor_init
     _ADC_Init
   _timer2_init

 _isr (ROOT)
   _led
   _ssd_blink
     _ssd_update
       ___awdiv
       ___awmod
       _display7s
     i1_ssd_turn_off
   _ssd_update
     ___awdiv
     ___awmod
     _display7s
   _start_timer
   _sw_action
     _EEPROM_write
       i1_I2C1_Start
         i1_I2C_Wait
       i1_I2C1_Stop
         i1_I2C_Wait
       i1_I2C1_Wr
         i1_I2C_Wait
   _switch_scan
   _temp_sensor_read
     _ADC_Read
     ___fldiv
       ___xxtofl (ARG)
         _ADC_Read (ARG)
     ___flmul
       _ADC_Read (ARG)
       __Umul8_16 (ARG)
       ___xxtofl (ARG)
         _ADC_Read (ARG)
     ___fltol
       _ADC_Read (ARG)
       ___fldiv (ARG)
         ___xxtofl (ARG)
           _ADC_Read (ARG)
       ___flmul (ARG)
         _ADC_Read (ARG)
         __Umul8_16 (ARG)
         ___xxtofl (ARG)
           _ADC_Read (ARG)
       ___xxtofl (ARG)
         _ADC_Read (ARG)
     ___xxtofl
       _ADC_Read (ARG)
     _average
       ___lwdiv
   _temp_set
   i1_ssd_turn_off
   i1_stop_timer
   i1_temp_control_off

 Address spaces:
Name               Size   Autos  Total    Cost      Usage
BANK3               60      0       0       9        0.0%
BITBANK3            60      0       0       8        0.0%
SFR3                 0      0       0       4        0.0%
BITSFR3              0      0       0       4        0.0%
BANK2               60      0       0      11        0.0%
BITBANK2            60      0       0      10        0.0%
SFR2                 0      0       0       5        0.0%
BITSFR2              0      0       0       5        0.0%
BANK1               50     17      2B       7       53.8%
BITBANK1            50      0       0       6        0.0%
SFR1                 0      0       0       2        0.0%
BITSFR1              0      0       0       2        0.0%
BANK0               50     36      4C       5       95.0%
BITBANK0            50      0       0       4        0.0%
SFR0                 0      0       0       1        0.0%
BITSFR0              0      0       0       1        0.0%
COMMON               E      E       E       1      100.0%
BITCOMMON            E      0       0       0        0.0%
CODE                 0      0       0       0        0.0%
DATA                 0      0      85      12        0.0%
ABS                  0      0      85       3        0.0%
NULL                 0      0       0       0        0.0%
STACK                0      0       0       2        0.0%
EEDATA             100      0       0       0        0.0%


Microchip Technology PIC Macro Assembler V2.10 build 88905656 
Symbol Table                                                                                   Sat Jul 11 04:21:22 2020

               _ssd_turn_off 0A54                 ___fldiv@aexp 003F                 ___fldiv@bexp 003E  
                          _i 005D                 ___fldiv@sign 0037                  __CFG_CP$OFF 0000  
                         l86 0E31                 ___awdiv@sign 0076                           fsr 0004  
         EEPROM_read@address 00A1                 ?i1_I2C1_Stop 0070          __Umul8_16@word_mpld 0076  
                __CFG_LVP$ON 0000                  ?i1_I2C_Wait 0070              __end_of_I2C1_Rd 0A0F  
                        l101 0AB8                          l130 0C55                          l124 09F4  
                        l133 09C7                          l221 0A68                          l142 0A07  
                        l127 0A00              __end_of_I2C1_Wr 0A54                          l144 0A0C  
                        l136 09D0                          l145 0A0E                          l321 0A9C  
                        l139 0A53                          l164 0BED                          l158 0A2E  
                        l256 09A4                          l338 07FF                          l362 0B18  
                        l187 0AF4                          l371 098D                          l365 09D9  
                        l299 0B3D                          l493 0F17                 __CFG_CPD$OFF 0000  
                        _led 0BEE                          _isr 06F2                          fsr0 0004  
                        indf 0000                  _start_timer 0991                 ___awmod@sign 0076  
  __size_of_temp_control_off 001B                ?i1_I2C1_Start 0070                 ___flmul@aexp 0038  
               ___flmul@bexp 0039                 ___flmul@sign 0033                 ___flmul@temp 003E  
               ___flmul@prod 003A         __end_of_system_sleep 098E                 ___fltol@exp1 004A  
                       l2301 0EDF                         l3101 0B09                         l2303 0EF1  
                       l2311 0F0F                         l3111 0BBD                         l3103 0B0A  
                       l2305 0EFF                         l3121 0BDB                         l3113 0BC2  
                       l3105 0B12                         l3201 0E40                         l2307 0F00  
                       l3123 0BE5                         l3115 0BC8                         l3107 0B15  
                       l2309 0F09                         l2501 0C22                         l3125 0BEA  
                       l3117 0BD0                         l3109 0BBD                         l3061 0A57  
                       l2503 0C26                         l2175 09F4                         l2511 09C4  
                       l3119 0BD5                         l3063 0A5F                         l2505 0C53  
                       l2177 09FA                         l2513 09C8                         l2521 0A4E  
                       l3081 0AD6                         l3057 09D1                         l3129 098C  
                       l3065 0A82                         l3073 07F7                         l2291 0EB0  
                       l2507 0C54                         l3091 0A1F                         l2523 0A01  
                       l2515 09CD                         l3083 0ADC                         l3059 0A54  
                       l3067 0A9A                         l3075 07FC                         l2293 0EC2  
                       l2525 0A0D                         l2509 09BF                         l2517 0A43  
                       l3085 0AE2                         l3077 0B19                         l3093 0AF5  
                       l2295 0EC5                         l2519 0A48                         l3087 0AE8  
                       l3079 099E                         l3095 0AFD                         l3191 0DFC  
                       l2297 0ED2                         l3089 0AEE                         l3097 0B06  
                       l3193 0E01                         l3185 0DE8                         l2299 0ED6  
                       l2491 0AB5                         l3099 0B08                         l3195 0E06  
                       l3187 0DF2                         l3197 0E1A                         l3189 0DF7  
                       ?_led 0070                         l2487 0A9D                         l3199 0E21  
                       l2489 0AA5                         ?_isr 0070                         u2010 0C36  
                       u2020 0A0C                         u2021 0A0B                         u2015 0C31  
                       u1600 09FA                         u1601 09F9                         u1610 0A00  
                       u1611 09FF                         u1620 0EC2                         u3140 0E1A  
                       u1621 0EC1                         u3141 0E19                         u1640 0ED6  
                       u1641 0ED5                         u1635 0EC7                         u1660 0EF1  
                       u1661 0EF0                         u1655 0ED8                         _PIE1 008C  
                       u1680 0F0F                         u1681 0F0E                         u1665 0EED  
                       u1675 0F01                         i1l80 077C                         _PIR1 000C  
                       i1l77 0753                         i1l69 0748                         _TMR2 0011  
               __CFG_WRT$OFF 0000               i1I2C1_Wr@_data 0070                         _main 0DE8  
                       _mode 0063                         _ones 0061                         _temp 005C  
                       _tens 0062                         btemp 007E             __end_of_I2C_Wait 0A01  
           __end_of_ADC_Init 0AB9             __end_of_ADC_Read 0B8D           __size_ofi1_I2C1_Wr 0010  
                       start 0012              ___fldiv@new_exp 0038         __end_ofi1_stop_timer 099E  
                _switch_init 099E                  _switch_scan 0A69                  _switch_wait 005A  
                      ??_led 0070                        ??_isr 0050               i1_ssd_turn_off 09DA  
       __end_of_EEPROM_write 0AD6            __end_of_I2C1_Init 0C56                ___fltol@sign1 0049  
                      ?_main 0070              __end_of___fldiv 057A              __end_of___awdiv 0EB0  
          __end_of_I2C1_Stop 09D1                __CFG_WDTE$OFF 0000              __end_of___awmod 0D89  
            __end_of___flmul 039D              __end_of___fltol 1000              __end_of___lldiv 0F18  
            ___awdiv@divisor 0070                        _T2CON 0012              __end_of___lwdiv 0CDC  
                      i1l104 0B82                        i1l107 0B8C                        i1l124 09E7  
                      i1l221 09E6                        i1l133 09B5                        i1l127 09F3  
                      i1l136 09BE                        i1l233 0C97                        i1l161 0AD5  
                      i1l305 0D2F                        i1l321 0A3F                        i1l218 07F6  
                      i1l226 0C70                        i1l315 0C05                        i1l139 0A1E  
                      i1l260 0A7B                        i1l308 0D2F                        i1l318 0C21  
                      i1l271 0F23                        i1l343 0BBC                        i1l192 0DE7  
                      i1l264 0A81                        i1l610 0EAF                        i1l282 0F83  
                      i1l348 0635                        i1l365 099D                        i1l623 0D88  
                      i1l368 0996                        i1l650 0FEA                        i1l643 0FFF  
                      i1l653 0FFF                        i1l830 056D                        i1l822 04EB  
                      i1l806 03F9                        i1l903 0B52                        i1l808 0579  
                      i1l905 0B64                        i1l729 0CDB                        i1l828 055D  
                      i1l852 0308                        i1l846 039C                        i1l858 0390  
                      i1l890 069F                        i1l884 065A                        i1l886 06F1  
                      i1l897 06BB                        i1l898 06C7              ___awdiv@counter 0075  
                      _PORTA 0005                        _PORTB 0006                        _PORTC 0007  
                      _PORTD 0008                        _TRISA 0085                        _TRISB 0086  
                      _TRISC 0087                        _TRISD 0088                        _SSPIF 0063  
             ??i1_I2C1_Start 0070               EEPROM_write@_x 0073              __end_of_average 0BBD  
                      _blink 005F                        _state 005E                        _up_sw 006A  
             __CFG_BOREN$OFF 0000                        pclath 000A                        status 0003  
                      wtemp0 007E   __end_ofi1_temp_control_off 0A40          __size_ofi1_I2C_Wait 000D  
            _temp_hold_array 00B7                 ??_I2C1_Start 00A0         __size_of_EEPROM_init 0010  
       __size_of_EEPROM_read 0031              __initialization 0015                 __end_of_main 0E49  
     __end_ofi1_ssd_turn_off 09E7                    ??_I2C1_Rd 00A0                    ??_I2C1_Wr 00A0  
               _switch_delay 0066                       ??_main 00B6            __end_ofi1_I2C1_Wr 0A1F  
        EEPROM_write@address 0071                       _ADCON0 001F                       _ADCON1 009F  
         __end_of_I2C1_Start 09C8                       _ADRESH 001E                       _ADRESL 009E  
           ___awdiv@dividend 0072                       i1l3001 0F33                       i1l2211 0D95  
                     i1l3003 0F38                       i1l3011 0F47                       i1l2205 0D93  
                     i1l3013 0F4C                       i1l3021 0F59                       i1l3005 0F3E  
                     i1l2223 0D99                       i1l3015 0F52                       i1l3007 0F42  
                     i1l3023 0F60                       u200_20 0B86                       i1l2321 0E53  
                     i1l2241 0D9F                       i1l2217 0D97                       i1l3041 0C72  
                     i1l3025 0F63                       i1l3017 0F54                       i1l3009 0F44  
                     u200_21 0B85                       i1l2401 0CA0                       i1l2331 0E64  
                     i1l2323 0E55                       i1l2315 0E49                       i1l2235 0D9D  
                     i1l3043 0C74                       i1l3051 0C87                       i1l3035 0C57  
                     i1l2171 09E7                       i1l3019 0F56                       i1l2411 0CC3  
                     i1l2403 0CA3                       i1l3131 0A2F                       i1l2341 0E7C  
                     i1l2333 0E6A                       i1l2325 0E59                       i1l2317 0E4A  
                     i1l2253 0DA3                       i1l2229 0D9B                       i1l2181 0D8B  
                     i1l3045 0C7A                       i1l3037 0C60                       i1l2173 09ED  
                     i1l3029 0F71                       i1l2413 0CC9                       i1l2405 0CAA  
                     i1l3133 0A3D                       i1l3141 06F8                       i1l2343 0E8D  
                     i1l2335 0E6D                       i1l2351 0EA1                       i1l2327 0E5E  
                     i1l2319 0E4E                       i1l2271 0DA9                       i1l2247 0DA1  
                     i1l3047 0C83                       i1l3039 0C69                       i1l3071 0994  
                     i1l2431 0B5B                       i1l2423 0B3F                       i1l2415 0CCA  
                     i1l2407 0CAE                       i1l3135 0997                       i1l3151 071A  
                     i1l3143 06FD                       i1l2353 0EA6                       i1l2345 0E93  
                     i1l2337 0E74                       i1l2329 0E62                       i1l2361 0D31  
                     i1l2265 0DA7                       i1l2193 0D8F                       i1l2441 09B6  
                     i1l2601 03C4                       i1l2433 0B60                       i1l2425 0B41  
                     i1l2417 0CD1                       i1l2409 0CB2                       i1l3153 071F  
                     i1l3145 0707                       i1l3137 06F2                       i1l2355 0EAB  
                     i1l2347 0E94                       i1l2339 0E78                       i1l2371 0D45  
                     i1l2363 0D35                       i1l2259 0DA5                       i1l2187 0D8D  
                     i1l2179 0D8A                       i1l2451 078A                       i1l2443 09BB  
                     i1l2611 03DC                       i1l2603 03CC                       i1l2427 0B48  
                     i1l2419 0CD7                       i1l2531 0B8D                       i1l3171 0766  
                     i1l3155 0725                       i1l3147 070D                       i1l3163 0738  
                     i1l3139 06F4                       i1l2349 0E9B                       i1l2381 0D5D  
                     i1l2373 0D4B                       i1l2365 0D3A                       i1l2277 0DAB  
                     i1l2285 0DAD                       i1l2461 07B2                       i1l3069 0991  
                     i1l2437 09AD                       i1l2445 0A10                       i1l2701 0520  
                     i1l2613 03E1                       i1l2621 03F1                       i1l2605 03D1  
                     i1l2429 0B4C                       i1l2541 0BA8                       i1l3165 074C  
                     i1l3157 072A                       i1l3149 0715                       i1l2391 0D7F  
                     i1l2383 0D67                       i1l2375 0D4E                       i1l2367 0D3C  
                     i1l2359 0D30                       i1l2199 0D91                       i1l3351 07EE  
                     i1l2471 07D6                       i1l2463 07BB                       i1l2455 0797  
                     i1l2439 09B2                       i1l2447 0A15                       i1l2711 0554  
                     i1l2703 0526                       i1l2623 0401                       i1l2631 041A  
                     i1l2615 03E6                       i1l2607 03D7                       i1l2543 0BAE  
                     i1l3167 0755                       i1l3175 076C                       i1l3343 0740  
                     i1l3159 072F                       u210_20 0FDE                       i1l2393 0D84  
                     i1l2385 0D6D                       i1l2377 0D55                       i1l2369 0D40  
                     i1l3353 0DB5                       i1l2473 07DA                       i1l2465 07BC  
                     i1l2457 07AD                       i1l2481 07E6                       i1l2449 0A19  
                     i1l2529 0AB9                       i1l2713 055C                       i1l2705 0533  
                     i1l2641 0442                       i1l2633 041F                       i1l2625 040D  
                     i1l2617 03EE                       i1l2609 03DB                       i1l2801 0239  
                     u210_21 0FDD                       i1l2561 0FBA                       i1l2553 0F9A  
                     i1l2537 0B91                       i1l3345 0774                       i1l3169 0765  
                     i1l3355 0C16                       i1l2387 0D74                       i1l2379 0D59  
                     i1l2475 07E3                       i1l2467 07BF                       i1l2459 07AE  
                     i1l3347 0F7B                       i1l2715 0563                       i1l2707 0541  
                     i1l2651 046B                       i1l2643 044A                       i1l2627 0411  
                     i1l2619 03EF                       i1l2811 02CB                       i1l2803 0266  
                     i1l2731 004D                       i1l2563 0FBE                       i1l2571 0FD8  
                     i1l2555 0FAF                       i1l2547 0F84                       i1l2539 0BA4  
                     i1l2389 0D7A                       i1l2477 07E4                       i1l2469 07D5  
                     i1l3349 0C8F                       i1l2493 0B66                       i1l2717 0567  
                     i1l2709 0550                       i1l2661 048C                       i1l2653 046F  
                     i1l2645 0452                       i1l2637 0428                       i1l2813 02D4  
                     i1l2821 02E8                       i1l2805 028C                       i1l2741 0062  
                     i1l2733 004E                       i1l2725 003C                       i1l2581 0FF4  
                     i1l2557 0FB0                       i1l2549 0F91                       i1l2901 06E4  
                     i1l2397 0C98                       i1l2911 09DD                       i1l2495 0B81  
                     i1l2719 0569                       i1l2671 04AE                       i1l2663 049A  
                     i1l2655 0470                       i1l2647 0454                       i1l2639 043A  
                     i1l2591 03AF                       i1l2583 039D                       i1l2823 02EC  
                     i1l2815 02D8                       i1l2807 02B4                       i1l2751 007A  
                     i1l2743 006A                       i1l2735 0053                       i1l2727 0043  
                     i1l2559 0FB8                       i1l2903 06E8                       i1l2399 0C9A  
                     u203_20 0BAE                       i1l2913 09E1                       i1l2497 0B86  
                     i1l2673 04B7                       i1l2681 04CB                       i1l2649 0459  
                     i1l2657 0479                       i1l2665 049E                       i1l2593 03B4  
                     i1l2585 03A4                       i1l2841 033D                       i1l2833 030D  
                     i1l2825 02ED                       i1l2817 02D9                       i1l2809 02BD  
                     i1l2761 0096                       i1l2753 007F                       i1l2745 006F  
                     i1l2737 0058                       i1l2729 0049                       i1l2577 0FDF  
                     i1l2569 0FC6                       i1l2905 06E9                       u203_21 0BAD  
                     i1l2921 0622                       i1l2683 04CF                       i1l2675 04BB  
                     i1l2667 04A4                       i1l2659 048B                       i1l2595 03B9  
                     i1l2587 03AA                       i1l2851 0374                       i1l2835 0312  
                     i1l2843 0343                       i1l2827 02F1                       i1l2819 02E2  
                     i1l2771 00B9                       i1l2763 009B                       i1l2755 0084  
                     i1l2747 0075                       i1l2739 0060                       i1l2579 0FEF  
                     i1l2923 0623                       i1l2915 057A                       i1l2909 09DA  
                     i1l2693 04F0                       i1l2685 04D0                       i1l2677 04BC  
                     i1l2669 04AC                       i1l2597 03C1                       i1l2589 03AE  
                     i1l2861 0394                       i1l2853 0376                       i1l2845 0350  
                     i1l2837 0320                       i1l2829 0305                       i1l2781 0147  
                     i1l2773 00C6                       i1l2765 00A0                       i1l2757 008C  
                     i1l2749 0079                       u211_25 0FE1                       i1l2925 0629  
                     i1l2917 0586                       i1l2941 0CF1                       i1l2695 04F5  
                     i1l2687 04D4                       i1l2679 04C5                       i1l2599 03C2  
                     i1l2855 0384                       i1l2847 035B                       i1l2839 0324  
                     i1l2791 01A9                       i1l2783 0163                       i1l2775 00E3  
                     i1l2759 008E                       i1l2871 0652                       i1l2927 062A  
                     i1l2919 061E                       i1l2951 0D13                       i1l2943 0CF4  
                     u300_20 0A75                       u220_20 0401                       u212_20 0FEF  
                     u204_20 0F91                       i1l2961 0BEE                       u300_21 0A74  
                     i1l2697 0503                       i1l2689 04E8                       u220_21 0400  
                     i1l2857 0388                       i1l2849 036A                       i1l2793 01C6  
                     i1l2785 016C                       i1l2777 00FF                       i1l2769 00A9  
                     u212_21 0FEE                       u204_21 0F90                       i1l2881 067D  
                     i1l2873 0662                       i1l2865 0639                       i1l2929 0634  
                     i1l2953 0D17                       i1l2945 0CF8                       i1l2963 0BEF  
                     i1l2699 0507                       i1l2859 0389                       i1l2795 01DF  
                     i1l2787 017C                       i1l2779 012B                       i1l2891 06B1  
                     i1l2883 0684                       i1l2867 063E                       i1l2955 0D1A  
                     i1l2947 0CFA                       i1l2939 0CDD                       i1l2973 0C07  
                     i1l2965 0BF5                       i1l2797 01FC                       i1l2789 0199  
                     i1l2893 06B5                       i1l2885 0688                       i1l2877 066B  
                     i1l2869 0642                       i1l2957 0D22                       i1l2949 0D10  
                     i1l2967 0BFE                       i1l2991 0A80                       i1l2983 0A69  
                     i1l2799 0229                       i1l2895 06BF                       i1l2887 0696  
                     i1l2879 0670                       i1l2959 0D2A                       u301_20 0A79  
                     u221_20 041F                       u213_20 0FF4                       u205_20 0FA8  
                     i1l2969 0C02                       i1l2977 0C0C                       i1l2993 0F18  
                     u301_21 0A78                       i1l2985 0A75                       u221_21 041E  
                     u213_21 0FF3                       i1l2897 06C9                       i1l2889 06A6  
                     i1l2995 0F19                       i1l2987 0A79                       i1l2899 06DF  
                     i1l2997 0F1E                       i1l2989 0A7F                       u205_25 0FA3  
                     i1l2999 0F2A                       u310_20 0C69                       u302_20 0A7F  
                     u222_20 0459                       u214_20 03AE                       u206_20 0FBE  
                     u310_21 0C68                       u302_21 0A7E                       u222_21 0458  
                     u214_21 03AD                       u206_21 0FBD                       u230_25 04B0  
                     u311_20 0C83                       u303_20 0F1E                       u231_20 04BB  
                     u215_20 03B4                       u207_20 0FC5                       u311_21 0C82  
                     u303_21 0F1D                       u231_21 04BA                       u215_21 03B3  
                     u207_21 0FC4                       u223_25 045B                       u304_20 0F23  
                     u240_20 0533                       u216_20 03B9                       u312_20 06F8  
                     u304_21 0F22                       u240_21 0532                       u216_21 03B8  
                     u312_21 06F7                       u240_25 052F                       u232_25 04BE  
                     u224_25 0464                       u208_25 0FC7                       u305_20 0F33  
                     u241_20 0550                       u233_20 04CF                       u225_20 046F  
                     u217_20 03DB                       u209_20 0FD7                       u313_20 074C  
                     _INTCON 000B                       u305_21 0F32                       u241_21 054F  
                     u233_21 04CE                       u225_21 046E                       u217_21 03DA  
                     u209_21 0FD6                       u313_21 074B                       u241_25 054C  
                     u170_20 0E59                       u306_20 0F38                       u242_20 0567  
                     u234_20 04D4                       u218_20 03E1                       u250_20 00A0  
                     u170_21 0E58                       u306_21 0F37                       u242_21 0566  
                     u234_21 04D3                       u218_21 03E0                       u250_21 009F  
                     u226_25 0472                       u171_20 0E6A                       u307_20 0F3E  
                     u235_20 04E8                       u227_20 048B                       u219_20 03E6  
                     u243_20 004D                       u171_21 0E69                       u307_21 0F3D  
                     u235_21 04E7                       u227_21 048A                       u219_21 03E5  
                     u251_21 00F1                       u243_21 004C                       u251_22 00F8  
                     u251_23 00FF                       u227_25 0487                       u180_20 0D40  
                     u308_20 0F4C                       u236_20 04EF                       u228_20 04A4  
                     u244_20 0053                       u180_21 0D3F                       u308_21 0F4B  
                     u236_21 04EE                       u228_21 04A3                       u260_21 021B  
                     u252_21 010D                       u244_21 0052                       u260_22 0222  
                     u252_22 0114                       u260_23 0229                       u252_23 011B  
                     u172_25 0E6E                       u173_20 0E7C                       u181_20 0D4B  
                     u309_20 0F52                       u237_20 04F5                       u229_20 04AC  
                     u245_20 0058                       u173_21 0E7B                       u181_21 0D4A  
                     u309_21 0F51                       u237_21 04F4                       u229_21 04AB  
                     u261_21 0248                       u253_21 0139                       u245_21 0057  
                     u261_22 024F                       u253_22 0140                       u261_23 0256  
                     u253_23 0147                       u158_20 09ED                       u238_20 0507  
                     u270_20 02EC                       u262_20 0272                       u246_20 0079  
                     u190_20 0CB2                       u158_21 09EC                       u238_21 0506  
                     u270_21 02EB                       u254_21 0155                       u246_21 0078  
                     u190_21 0CB1                       u254_22 015C                       u254_23 0163  
                     u174_25 0E7D                       u182_25 0D4F                       u262_25 026D  
                     u175_20 0E8D                       u183_20 0D5D                       u159_20 09F3  
                     u239_20 0516                       u271_20 02F1                       u247_20 007F  
                     u175_21 0E8C                       u183_21 0D5C                       u159_21 09F2  
                     u271_21 02F0                       u263_21 027E                       u247_21 007E  
                     u263_22 0285                       u263_23 028C                       u175_25 0E89  
                     u239_25 0511                       u255_25 0165                       u191_25 0CB3  
                     u184_20 0D67                       u272_20 0305                       u264_20 029A  
                     u248_20 0084                       u280_20 063E                       u192_20 0CC3  
                     u184_21 0D66                       u272_21 0304                       u256_21 018B  
                     u248_21 0083                       u280_21 063D                       u192_21 0CC2  
                     u256_22 0192                       u256_23 0199                       u176_25 0E95  
                     u184_25 0D63                       u264_25 0295                       u192_25 0CBF  
                     u177_20 0EA1                       u169_20 0E4E                       u273_20 030C  
                     u249_20 009B                       u281_20 0642                       u177_21 0EA0  
                     u169_21 0E4D                       u273_21 030B                       u265_21 02A6  
                     u257_21 01B8                       u249_21 009A                       u281_21 0641  
                     u265_22 02AD                       u257_22 01BF                       u265_23 02B4  
                     u257_23 01C6                       u185_25 0D6E                       u193_25 0CCB  
                     u178_20 0EA6                       u186_20 0D7A                       u274_20 0312  
                     u290_20 06BF                       u282_20 0662                       u194_20 0CD7  
                     u178_21 0EA5                       u186_21 0D79                       u274_21 0311  
                     u290_21 06BE                       u282_21 0661                       u194_21 0CD6  
                     u266_25 02B6                       u258_25 01C8                       u187_20 0D7F  
                     u179_20 0D35                       u195_20 0B4C                       u275_20 0324  
                     u291_20 06D4                       u187_21 0D7E                       u179_21 0D34  
                     u195_21 0B4B                       u275_21 0323                       u259_21 01EE  
                     u259_22 01F5                       u259_23 01FC                       u267_25 02CD  
                     u291_25 06CF                       u283_25 0675                       u276_20 0333  
                     u268_20 02D8                       u292_20 06E4                       u284_20 0683  
                     u188_20 0CA0                       u268_21 02D7                       u292_21 06E3  
                     u284_21 0682                       u188_21 0C9F                       u196_25 0B53  
                     u276_25 032E                       u197_20 0B60                       u277_20 0350  
                     u293_20 06E8                       u197_21 0B5F                       u277_21 034F  
                     u293_21 06E7                       u277_25 034C                       u269_25 02DB  
                     u285_25 0697                       u189_25 0CA4                       u198_20 0796  
                     u278_20 036A                       u286_20 06A5                       u294_20 0586  
                     u198_21 0795                       u278_21 0369                       u286_21 06A4  
                     u294_21 0585                       u278_25 0366                       u279_20 0388  
                     u295_20 0629                       u279_21 0387                       u295_21 0628  
                     u199_25 0B77                       u287_25 06AA                       u288_20 06B5  
                     u296_20 0CF1                       u288_21 06B4                       u296_21 0CF0  
                     u296_25 0CED                       u289_20 06BB                       u297_20 0D10  
                     u289_21 06BA                       u297_21 0D0F                       u297_25 0D0C  
                     u298_20 0D22                       u298_21 0D21                       u299_20 0BFE  
                     u299_21 0BFD                       _SSPADD 0093                       _SSPCON 0014  
                     _SSPBUF 0013             __end_of___xxtofl 06F2               __CFG_PWRTE$OFF 0000  
            ?i1_ssd_turn_off 0070                    ??___fldiv 002E                    ??___awdiv 0074  
                  ??___awmod 0074                    ??___flmul 002E                    ??___fltol 0044  
                  ??___lldiv 00A8                    ??___lwdiv 0074                 ?_timer2_init 0070  
            ADC_Read@channel 0074    __size_of_temp_sensor_init 0009    __size_of_temp_sensor_read 00BC  
           ___awdiv@quotient 0077              ___awmod@divisor 0070              ___awmod@counter 0075  
                  ??_average 0078         __size_ofi1_I2C1_Stop 0009        __size_of_system_sleep 0002  
                  ?_I2C_Wait 0070           __size_of__Umul8_16 0027             __end_of_temp_set 0D30  
                  ?_ADC_Init 0070                    ?_ADC_Read 0070                       saved_w 007E  
           _temp_control_off 0A82             __end_of_ssd_init 0AF5                 ___xxtofl@arg 0022  
            __CFG_FOSC$EXTRC 0000                 ___xxtofl@exp 0021                 ___xxtofl@val 0075  
    __end_of__initialization 0038        __size_ofi1_stop_timer 0007                   ___fltol@f1 0040  
       __end_ofi1_I2C1_Start 09B6               __pcstackCOMMON 0070        __size_of_EEPROM_write 001D  
               __pidataBANK0 098E                 _system_sleep 098C                 ??i1_I2C_Wait 0070  
               ?_start_timer 0070                   ??_I2C_Wait 00A0                   ??_ADC_Init 00A0  
                 ??_ADC_Read 0072                 i1_stop_timer 0997           __size_of_display7s 005F  
                 __pbssBANK0 0056                   __pbssBANK1 00B7              ssd_blink@e_temp 007D  
               _EEPROM_write 0AB9           __end_ofi1_I2C_Wait 09F4            __end_of__Umul8_16 0B65  
                 __pmaintext 0DE8                 ?_switch_init 0070                 ?_switch_scan 0070  
                    _I2C1_Rd 0A01                      _I2C1_Wr 0A40                   __pintentry 0004  
                  ?___xxtofl 0075           __size_of_ssd_blink 0042                    _I2C1_Init 0C22  
                  _I2C1_Stop 09C8           __size_of_sw_action 006C                      _SSPCON2 0091  
                    _SSPSTAT 0094                    ?_temp_set 0070            __end_of_display7s 0DE8  
                  ?_ssd_init 0070                      ___fldiv 039D                      ___awdiv 0E49  
                    ___awmod 0D30                      ___flmul 003C                      ___fltol 0F84  
                    ___lldiv 0EB0                      ___lwdiv 0C98             _temp_sensor_init 07F7  
           _temp_sensor_read 057A           i1_temp_control_off 0A2F                      __ptext1 0AF5  
                    __ptext2 07F7                      __ptext3 0A9D                      __ptext4 0A82  
                    __ptext5 0B19                      __ptext6 098C                      __ptext7 099E  
                    __ptext8 09D1                      __ptext9 0A54         __size_of_timer2_init 0024  
                    _average 0B8D                      _down_sw 0069                 __size_of_led 0034  
               __size_of_isr 0097                   ??___xxtofl 0079             ___awmod@dividend 0072  
        ?i1_temp_control_off 0070                   ?_I2C1_Init 00AE                   ?_I2C1_Stop 0070  
                  i1_I2C1_Wr 0A0F                      clrloop0 09A6         end_of_initialization 0038  
      __size_ofi1_I2C1_Start 0009                ??_EEPROM_init 00B6                ??_EEPROM_read 00A3  
           ??i1_ssd_turn_off 0070              ___lldiv@divisor 00A0         ??i1_temp_control_off 0070  
          _temp_control_init 0B19              ___lldiv@counter 00AD            __end_of_ssd_blink 0C98  
   __end_of_temp_control_off 0A9D                   ??_temp_set 0070            __end_of_sw_action 0F84  
         ?_temp_control_init 0070                   ??_ssd_init 00A0                   _temp_timer 0068  
             ssd_update@temp 007C          ??_temp_control_init 00A0                   _ssd_select 0060  
              ___xxtofl@sign 0020                   _power_mode 006B                   _ssd_update 0789  
               i1_I2C1_Start 09AD         __size_of_start_timer 0006                  ___fldiv@grs 003A  
                ___fldiv@rem 0033                   ?i1_I2C1_Wr 0070            __size_of_I2C_Wait 000D  
          __size_of_ADC_Init 001C            __size_of_ADC_Read 0028                   average@sum 007B  
                ___flmul@grs 0034    __end_of_temp_control_init 0B3E                   display7s@v 0072  
              EEPROM_read@_x 00A4                   _stop_timer 09D1                ?_ssd_turn_off 0070  
        __end_of_EEPROM_init 0A2F          __end_of_EEPROM_read 0BEE                ??i1_I2C1_Stop 0070  
       __size_of_switch_init 0007         __size_of_switch_scan 0019          start_initialization 0015  
                ??_I2C1_Init 00B2                  ??_I2C1_Stop 00A0                  __end_of_led 0C22  
                __end_of_isr 0789               ??_ssd_turn_off 00A0                     ?_I2C1_Rd 0070  
                   ?_I2C1_Wr 0070                    __Umul8_16 0B3E                  __pdataBANK0 0069  
                  ___fldiv@a 0026                    ___fldiv@b 002A                    ___flmul@a 002A  
                  ___flmul@b 0026                    ___latbits 0002                  ?_ssd_update 0070  
              __pcstackBANK0 0020                __pcstackBANK1 00A0          __end_ofi1_I2C1_Stop 09BF  
                ??i1_I2C1_Wr 0070            __size_of___xxtofl 00BC     __end_of_temp_sensor_init 0800  
   __end_of_temp_sensor_read 0636   __size_of_temp_control_init 0025                  _EEPROM_init 0A1F  
                _EEPROM_read 0BBD             ___lwdiv@dividend 0072                  ?_stop_timer 0070  
                   ?___fldiv 0026                     ?___awdiv 0070                     ?___awmod 0070  
                   ?___flmul 0026                     ?___fltol 0040                     ?___lldiv 00A0  
                 ?__Umul8_16 0070                     ?___lwdiv 0070            __size_of_temp_set 0054  
          __size_of_ssd_init 001F                    _display7s 0D89                     ?_average 0070  
                  _led_timer 0056                     _I2C_Wait 09F4                     _ADC_Init 0A9D  
                   _ADC_Read 0B65                    _hold_temp 0064             ___lwdiv@quotient 0075  
          interrupt_function 0004                    clear_ram0 09A5                   _I2C1_Start 09BF  
          ?_temp_control_off 0070          __size_of_ssd_update 006E                ??_timer2_init 00A0  
         ??_temp_control_off 00A0                    _ssd_delay 0067                    _ssd_blink 0C56  
           __size_of_I2C1_Rd 000E             __size_of_I2C1_Wr 0014                    _ssd_timer 0058  
                  _sw_action 0F18                  i1_I2C1_Stop 09B6                   ?_display7s 0070  
       __end_of_ssd_turn_off 0A69          __size_of_stop_timer 0009  __size_ofi1_temp_control_off 0011  
              ?_system_sleep 0070                  ??__Umul8_16 0072                   ?_ssd_blink 0070  
           __size_of___fldiv 01DD             __size_of___awdiv 0067             __size_of___awmod 0059  
           __size_of___flmul 0361             __size_of___fltol 007C             __size_of___lldiv 0068  
           __size_of___lwdiv 0044                   ?_sw_action 0070                ??_start_timer 0070  
           __size_of_average 0030          __end_of_timer2_init 0B19                     ___xxtofl 0636  
            ___lwdiv@divisor 0070                ?i1_stop_timer 0070              ___lwdiv@counter 0077  
                   __ptext10 0AD6                     __ptext11 0BBD                     __ptext20 06F2  
                   __ptext12 0A40                     __ptext21 0A2F                     __ptext13 09C8  
                   __ptext30 0B3E                     __ptext22 0997                     __ptext14 09BF  
                   __ptext31 039D                     __ptext23 0CDC                     __ptext15 09F4  
                   __ptext40 0991                     __ptext32 0B65                     __ptext24 057A  
                   __ptext16 0A01                     __ptext41 0C56                     __ptext33 0A69  
                   __ptext25 0B8D                     __ptext17 0A1F                     __ptext42 09DA  
                   __ptext34 0F18                     __ptext26 0C98                     __ptext18 0C22  
                   __ptext43 0789                     __ptext35 0AB9                     __ptext27 0636  
                   __ptext19 0EB0                     __ptext44 0D89                     __ptext36 0A0F  
                   __ptext28 0F84                     __ptext45 0D30                     __ptext37 09B6  
                   __ptext29 003C                     __ptext46 0E49                     __ptext38 09AD  
                   __ptext47 0BEE                     __ptext39 09E7                ?_EEPROM_write 0071  
              __size_of_main 0061                  ?_I2C1_Start 0070                     _set_temp 0065  
                   _temp_set 0CDC                ??_switch_init 00A0               ??_system_sleep 00A0  
              ??_switch_scan 0070                     _ssd_init 0AD6                     average@i 007D  
    __size_ofi1_ssd_turn_off 000D                  ??_display7s 0070                   i1_I2C_Wait 09E7  
               ??_ssd_update 0079               ??i1_stop_timer 0070          __end_of_start_timer 0997  
                   intlevel1 0000               ??_EEPROM_write 0074            ?_temp_sensor_init 0070  
          ?_temp_sensor_read 0070             ___lldiv@dividend 00A4                 ?_EEPROM_init 0070  
               ?_EEPROM_read 00A1           ??_temp_sensor_init 00A1           ??_temp_sensor_read 004B  
               temp_set@temp 0073                I2C1_Init@freq 00AE                 ??_stop_timer 00A0  
         __end_of_ssd_update 07F7                  ??_ssd_blink 0020                  _timer2_init 0AF5  
                ??_sw_action 0074       __Umul8_16@multiplicand 0070          __end_of_switch_init 09A5  
        __end_of_switch_scan 0A82        __size_of_ssd_turn_off 0015             ___lldiv@quotient 00A9  
        __size_of_I2C1_Start 0009           __end_of_stop_timer 09DA                 I2C1_Wr@_data 00A0  
         __size_of_I2C1_Init 0034           __size_of_I2C1_Stop 0009         __Umul8_16@multiplier 0078  
          __Umul8_16@product 0074  
