

Microchip MPLAB XC8 Assembler V2.10 build 88905656 
                                                                                               Tue Jul 07 17:31:20 2020

Microchip MPLAB XC8 C Compiler v2.10 (Free license) build 20190730164152 Og1 
     1                           	processor	16F877A
     2                           	opt	pw 120
     3                           	opt	flic
     4                           	psect	idataBANK0,global,class=CODE,delta=2
     5                           	psect	cinit,global,class=CODE,merge=1,delta=2
     6                           	psect	bssBANK0,global,class=BANK0,space=1,delta=1
     7                           	psect	dataBANK0,global,class=BANK0,space=1,delta=1
     8                           	psect	bssBANK1,global,class=BANK1,space=1,delta=1
     9                           	psect	clrtext,global,class=CODE,delta=2
    10                           	psect	cstackBANK1,global,class=BANK1,space=1,delta=1
    11                           	psect	cstackCOMMON,global,class=COMMON,space=1,delta=1
    12                           	psect	cstackBANK0,global,class=BANK0,space=1,delta=1
    13                           	psect	maintext,global,class=CODE,split=1,delta=2
    14                           	psect	text1,local,class=CODE,merge=1,delta=2
    15                           	psect	text2,local,class=CODE,merge=1,delta=2
    16                           	psect	text3,local,class=CODE,merge=1,delta=2
    17                           	psect	text4,local,class=CODE,merge=1,delta=2
    18                           	psect	text5,local,class=CODE,merge=1,delta=2
    19                           	psect	text6,local,class=CODE,merge=1,delta=2
    20                           	psect	text7,local,class=CODE,merge=1,delta=2
    21                           	psect	text8,local,class=CODE,merge=1,delta=2
    22                           	psect	text9,local,class=CODE,merge=1,delta=2
    23                           	psect	text10,local,class=CODE,merge=1,delta=2
    24                           	psect	text11,local,class=CODE,merge=1,delta=2
    25                           	psect	text12,local,class=CODE,merge=1,delta=2
    26                           	psect	text13,local,class=CODE,merge=1,delta=2
    27                           	psect	text14,local,class=CODE,merge=1,delta=2
    28                           	psect	text15,local,class=CODE,merge=1,delta=2,group=1
    29                           	psect	text16,local,class=CODE,merge=1,delta=2
    30                           	psect	intentry,global,class=CODE,delta=2
    31                           	psect	text17,local,class=CODE,merge=1,delta=2
    32                           	psect	text18,local,class=CODE,merge=1,delta=2
    33                           	psect	text19,local,class=CODE,merge=1,delta=2
    34                           	psect	text20,local,class=CODE,merge=1,delta=2,group=1
    35                           	psect	text21,local,class=CODE,merge=1,delta=2,group=1
    36                           	psect	text22,local,class=CODE,merge=1,delta=2,group=1
    37                           	psect	text23,local,class=CODE,merge=1,delta=2,group=1
    38                           	psect	text24,local,class=CODE,merge=1,delta=2,group=1
    39                           	psect	text25,local,class=CODE,merge=1,delta=2,group=1
    40                           	psect	text26,local,class=CODE,merge=1,delta=2
    41                           	psect	text27,local,class=CODE,merge=1,delta=2
    42                           	psect	text28,local,class=CODE,merge=1,delta=2
    43                           	psect	text29,local,class=CODE,merge=1,delta=2
    44                           	psect	text30,local,class=CODE,merge=1,delta=2
    45                           	psect	text31,local,class=CODE,merge=1,delta=2
    46                           	psect	text32,local,class=CODE,merge=1,delta=2
    47                           	psect	text33,local,class=CODE,merge=1,delta=2
    48                           	psect	text34,local,class=CODE,merge=1,delta=2
    49                           	psect	text35,local,class=CODE,merge=1,delta=2
    50                           	psect	text36,local,class=CODE,merge=1,delta=2
    51                           	psect	text37,local,class=CODE,merge=1,delta=2
    52                           	psect	text38,local,class=CODE,merge=1,delta=2
    53                           	psect	text39,local,class=CODE,merge=1,delta=2
    54                           	psect	text40,local,class=CODE,merge=1,delta=2,group=1
    55                           	psect	text41,local,class=CODE,merge=1,delta=2,group=1
    56                           	psect	text42,local,class=CODE,merge=1,delta=2
    57                           	psect	text43,local,class=CODE,merge=1,delta=2
    58                           	dabs	1,0x7E,2
    59  0000                     
    60                           ; Version 2.10
    61                           ; Generated 31/07/2019 GMT
    62                           ; 
    63                           ; Copyright © 2019, Microchip Technology Inc. and its subsidiaries ("Microchip")
    64                           ; All rights reserved.
    65                           ; 
    66                           ; This software is developed by Microchip Technology Inc. and its subsidiaries ("Microch
      +                          ip").
    67                           ; 
    68                           ; Redistribution and use in source and binary forms, with or without modification, are
    69                           ; permitted provided that the following conditions are met:
    70                           ; 
    71                           ;     1. Redistributions of source code must retain the above copyright notice, this lis
      +                          t of
    72                           ;        conditions and the following disclaimer.
    73                           ; 
    74                           ;     2. Redistributions in binary form must reproduce the above copyright notice, this 
      +                          list
    75                           ;        of conditions and the following disclaimer in the documentation and/or other
    76                           ;        materials provided with the distribution.
    77                           ; 
    78                           ;     3. Microchip's name may not be used to endorse or promote products derived from th
      +                          is
    79                           ;        software without specific prior written permission.
    80                           ; 
    81                           ; THIS SOFTWARE IS PROVIDED BY MICROCHIP "AS IS" AND ANY EXPRESS OR IMPLIED WARRANTIES,
    82                           ; INCLUDING, BUT NOT LIMITED TO, THE IMPLIED WARRANTIES OF MERCHANTABILITY AND FITNESS F
      +                          OR
    83                           ; PURPOSE ARE DISCLAIMED.  IN NO EVENT SHALL MICROCHIP BE LIABLE FOR ANY DIRECT, INDIREC
      +                          T,
    84                           ; INCIDENTAL, SPECIAL, EXEMPLARY, OR CONSEQUENTIAL DAMAGES (INCLUDING BUT NOT LIMITED TO
    85                           ; PROCUREMENT OF SUBSTITUTE GOODS OR SERVICES; LOSS OF USE, DATA OR PROFITS; OR BUSINESS
    86                           ; INTERRUPTION) HOWSOEVER CAUSED AND ON ANY THEORY OF LIABILITY, WHETHER IN CONTRACT, ST
      +                          RICT
    87                           ; LIABILITY, OR TORT (INCLUDING NEGLIGENCE OR OTHERWISE) ARISING IN ANY WAY OUT OF THE U
      +                          SE OF
    88                           ; THIS SOFTWARE, EVEN IF ADVISED OF THE POSSIBILITY OF SUCH DAMAGE.
    89                           ; 
    90                           ; 
    91                           ; Code-generator required, PIC16F877A Definitions
    92                           ; 
    93                           ; SFR Addresses
    94  0000                     	;# 
    95  0001                     	;# 
    96  0002                     	;# 
    97  0003                     	;# 
    98  0004                     	;# 
    99  0005                     	;# 
   100  0006                     	;# 
   101  0007                     	;# 
   102  0008                     	;# 
   103  0009                     	;# 
   104  000A                     	;# 
   105  000B                     	;# 
   106  000C                     	;# 
   107  000D                     	;# 
   108  000E                     	;# 
   109  000E                     	;# 
   110  000F                     	;# 
   111  0010                     	;# 
   112  0011                     	;# 
   113  0012                     	;# 
   114  0013                     	;# 
   115  0014                     	;# 
   116  0015                     	;# 
   117  0015                     	;# 
   118  0016                     	;# 
   119  0017                     	;# 
   120  0018                     	;# 
   121  0019                     	;# 
   122  001A                     	;# 
   123  001B                     	;# 
   124  001B                     	;# 
   125  001C                     	;# 
   126  001D                     	;# 
   127  001E                     	;# 
   128  001F                     	;# 
   129  0081                     	;# 
   130  0085                     	;# 
   131  0086                     	;# 
   132  0087                     	;# 
   133  0088                     	;# 
   134  0089                     	;# 
   135  008C                     	;# 
   136  008D                     	;# 
   137  008E                     	;# 
   138  0091                     	;# 
   139  0092                     	;# 
   140  0093                     	;# 
   141  0094                     	;# 
   142  0098                     	;# 
   143  0099                     	;# 
   144  009C                     	;# 
   145  009D                     	;# 
   146  009E                     	;# 
   147  009F                     	;# 
   148  010C                     	;# 
   149  010D                     	;# 
   150  010E                     	;# 
   151  010F                     	;# 
   152  018C                     	;# 
   153  018D                     	;# 
   154  0000                     	;# 
   155  0001                     	;# 
   156  0002                     	;# 
   157  0003                     	;# 
   158  0004                     	;# 
   159  0005                     	;# 
   160  0006                     	;# 
   161  0007                     	;# 
   162  0008                     	;# 
   163  0009                     	;# 
   164  000A                     	;# 
   165  000B                     	;# 
   166  000C                     	;# 
   167  000D                     	;# 
   168  000E                     	;# 
   169  000E                     	;# 
   170  000F                     	;# 
   171  0010                     	;# 
   172  0011                     	;# 
   173  0012                     	;# 
   174  0013                     	;# 
   175  0014                     	;# 
   176  0015                     	;# 
   177  0015                     	;# 
   178  0016                     	;# 
   179  0017                     	;# 
   180  0018                     	;# 
   181  0019                     	;# 
   182  001A                     	;# 
   183  001B                     	;# 
   184  001B                     	;# 
   185  001C                     	;# 
   186  001D                     	;# 
   187  001E                     	;# 
   188  001F                     	;# 
   189  0081                     	;# 
   190  0085                     	;# 
   191  0086                     	;# 
   192  0087                     	;# 
   193  0088                     	;# 
   194  0089                     	;# 
   195  008C                     	;# 
   196  008D                     	;# 
   197  008E                     	;# 
   198  0091                     	;# 
   199  0092                     	;# 
   200  0093                     	;# 
   201  0094                     	;# 
   202  0098                     	;# 
   203  0099                     	;# 
   204  009C                     	;# 
   205  009D                     	;# 
   206  009E                     	;# 
   207  009F                     	;# 
   208  010C                     	;# 
   209  010D                     	;# 
   210  010E                     	;# 
   211  010F                     	;# 
   212  018C                     	;# 
   213  018D                     	;# 
   214  0000                     	;# 
   215  0001                     	;# 
   216  0002                     	;# 
   217  0003                     	;# 
   218  0004                     	;# 
   219  0005                     	;# 
   220  0006                     	;# 
   221  0007                     	;# 
   222  0008                     	;# 
   223  0009                     	;# 
   224  000A                     	;# 
   225  000B                     	;# 
   226  000C                     	;# 
   227  000D                     	;# 
   228  000E                     	;# 
   229  000E                     	;# 
   230  000F                     	;# 
   231  0010                     	;# 
   232  0011                     	;# 
   233  0012                     	;# 
   234  0013                     	;# 
   235  0014                     	;# 
   236  0015                     	;# 
   237  0015                     	;# 
   238  0016                     	;# 
   239  0017                     	;# 
   240  0018                     	;# 
   241  0019                     	;# 
   242  001A                     	;# 
   243  001B                     	;# 
   244  001B                     	;# 
   245  001C                     	;# 
   246  001D                     	;# 
   247  001E                     	;# 
   248  001F                     	;# 
   249  0081                     	;# 
   250  0085                     	;# 
   251  0086                     	;# 
   252  0087                     	;# 
   253  0088                     	;# 
   254  0089                     	;# 
   255  008C                     	;# 
   256  008D                     	;# 
   257  008E                     	;# 
   258  0091                     	;# 
   259  0092                     	;# 
   260  0093                     	;# 
   261  0094                     	;# 
   262  0098                     	;# 
   263  0099                     	;# 
   264  009C                     	;# 
   265  009D                     	;# 
   266  009E                     	;# 
   267  009F                     	;# 
   268  010C                     	;# 
   269  010D                     	;# 
   270  010E                     	;# 
   271  010F                     	;# 
   272  018C                     	;# 
   273  018D                     	;# 
   274  0000                     	;# 
   275  0001                     	;# 
   276  0002                     	;# 
   277  0003                     	;# 
   278  0004                     	;# 
   279  0005                     	;# 
   280  0006                     	;# 
   281  0007                     	;# 
   282  0008                     	;# 
   283  0009                     	;# 
   284  000A                     	;# 
   285  000B                     	;# 
   286  000C                     	;# 
   287  000D                     	;# 
   288  000E                     	;# 
   289  000E                     	;# 
   290  000F                     	;# 
   291  0010                     	;# 
   292  0011                     	;# 
   293  0012                     	;# 
   294  0013                     	;# 
   295  0014                     	;# 
   296  0015                     	;# 
   297  0015                     	;# 
   298  0016                     	;# 
   299  0017                     	;# 
   300  0018                     	;# 
   301  0019                     	;# 
   302  001A                     	;# 
   303  001B                     	;# 
   304  001B                     	;# 
   305  001C                     	;# 
   306  001D                     	;# 
   307  001E                     	;# 
   308  001F                     	;# 
   309  0081                     	;# 
   310  0085                     	;# 
   311  0086                     	;# 
   312  0087                     	;# 
   313  0088                     	;# 
   314  0089                     	;# 
   315  008C                     	;# 
   316  008D                     	;# 
   317  008E                     	;# 
   318  0091                     	;# 
   319  0092                     	;# 
   320  0093                     	;# 
   321  0094                     	;# 
   322  0098                     	;# 
   323  0099                     	;# 
   324  009C                     	;# 
   325  009D                     	;# 
   326  009E                     	;# 
   327  009F                     	;# 
   328  010C                     	;# 
   329  010D                     	;# 
   330  010E                     	;# 
   331  010F                     	;# 
   332  018C                     	;# 
   333  018D                     	;# 
   334  0000                     	;# 
   335  0001                     	;# 
   336  0002                     	;# 
   337  0003                     	;# 
   338  0004                     	;# 
   339  0005                     	;# 
   340  0006                     	;# 
   341  0007                     	;# 
   342  0008                     	;# 
   343  0009                     	;# 
   344  000A                     	;# 
   345  000B                     	;# 
   346  000C                     	;# 
   347  000D                     	;# 
   348  000E                     	;# 
   349  000E                     	;# 
   350  000F                     	;# 
   351  0010                     	;# 
   352  0011                     	;# 
   353  0012                     	;# 
   354  0013                     	;# 
   355  0014                     	;# 
   356  0015                     	;# 
   357  0015                     	;# 
   358  0016                     	;# 
   359  0017                     	;# 
   360  0018                     	;# 
   361  0019                     	;# 
   362  001A                     	;# 
   363  001B                     	;# 
   364  001B                     	;# 
   365  001C                     	;# 
   366  001D                     	;# 
   367  001E                     	;# 
   368  001F                     	;# 
   369  0081                     	;# 
   370  0085                     	;# 
   371  0086                     	;# 
   372  0087                     	;# 
   373  0088                     	;# 
   374  0089                     	;# 
   375  008C                     	;# 
   376  008D                     	;# 
   377  008E                     	;# 
   378  0091                     	;# 
   379  0092                     	;# 
   380  0093                     	;# 
   381  0094                     	;# 
   382  0098                     	;# 
   383  0099                     	;# 
   384  009C                     	;# 
   385  009D                     	;# 
   386  009E                     	;# 
   387  009F                     	;# 
   388  010C                     	;# 
   389  010D                     	;# 
   390  010E                     	;# 
   391  010F                     	;# 
   392  018C                     	;# 
   393  018D                     	;# 
   394  0000                     	;# 
   395  0001                     	;# 
   396  0002                     	;# 
   397  0003                     	;# 
   398  0004                     	;# 
   399  0005                     	;# 
   400  0006                     	;# 
   401  0007                     	;# 
   402  0008                     	;# 
   403  0009                     	;# 
   404  000A                     	;# 
   405  000B                     	;# 
   406  000C                     	;# 
   407  000D                     	;# 
   408  000E                     	;# 
   409  000E                     	;# 
   410  000F                     	;# 
   411  0010                     	;# 
   412  0011                     	;# 
   413  0012                     	;# 
   414  0013                     	;# 
   415  0014                     	;# 
   416  0015                     	;# 
   417  0015                     	;# 
   418  0016                     	;# 
   419  0017                     	;# 
   420  0018                     	;# 
   421  0019                     	;# 
   422  001A                     	;# 
   423  001B                     	;# 
   424  001B                     	;# 
   425  001C                     	;# 
   426  001D                     	;# 
   427  001E                     	;# 
   428  001F                     	;# 
   429  0081                     	;# 
   430  0085                     	;# 
   431  0086                     	;# 
   432  0087                     	;# 
   433  0088                     	;# 
   434  0089                     	;# 
   435  008C                     	;# 
   436  008D                     	;# 
   437  008E                     	;# 
   438  0091                     	;# 
   439  0092                     	;# 
   440  0093                     	;# 
   441  0094                     	;# 
   442  0098                     	;# 
   443  0099                     	;# 
   444  009C                     	;# 
   445  009D                     	;# 
   446  009E                     	;# 
   447  009F                     	;# 
   448  010C                     	;# 
   449  010D                     	;# 
   450  010E                     	;# 
   451  010F                     	;# 
   452  018C                     	;# 
   453  018D                     	;# 
   454  0000                     	;# 
   455  0001                     	;# 
   456  0002                     	;# 
   457  0003                     	;# 
   458  0004                     	;# 
   459  0005                     	;# 
   460  0006                     	;# 
   461  0007                     	;# 
   462  0008                     	;# 
   463  0009                     	;# 
   464  000A                     	;# 
   465  000B                     	;# 
   466  000C                     	;# 
   467  000D                     	;# 
   468  000E                     	;# 
   469  000E                     	;# 
   470  000F                     	;# 
   471  0010                     	;# 
   472  0011                     	;# 
   473  0012                     	;# 
   474  0013                     	;# 
   475  0014                     	;# 
   476  0015                     	;# 
   477  0015                     	;# 
   478  0016                     	;# 
   479  0017                     	;# 
   480  0018                     	;# 
   481  0019                     	;# 
   482  001A                     	;# 
   483  001B                     	;# 
   484  001B                     	;# 
   485  001C                     	;# 
   486  001D                     	;# 
   487  001E                     	;# 
   488  001F                     	;# 
   489  0081                     	;# 
   490  0085                     	;# 
   491  0086                     	;# 
   492  0087                     	;# 
   493  0088                     	;# 
   494  0089                     	;# 
   495  008C                     	;# 
   496  008D                     	;# 
   497  008E                     	;# 
   498  0091                     	;# 
   499  0092                     	;# 
   500  0093                     	;# 
   501  0094                     	;# 
   502  0098                     	;# 
   503  0099                     	;# 
   504  009C                     	;# 
   505  009D                     	;# 
   506  009E                     	;# 
   507  009F                     	;# 
   508  010C                     	;# 
   509  010D                     	;# 
   510  010E                     	;# 
   511  010F                     	;# 
   512  018C                     	;# 
   513  018D                     	;# 
   514  0000                     	;# 
   515  0001                     	;# 
   516  0002                     	;# 
   517  0003                     	;# 
   518  0004                     	;# 
   519  0005                     	;# 
   520  0006                     	;# 
   521  0007                     	;# 
   522  0008                     	;# 
   523  0009                     	;# 
   524  000A                     	;# 
   525  000B                     	;# 
   526  000C                     	;# 
   527  000D                     	;# 
   528  000E                     	;# 
   529  000E                     	;# 
   530  000F                     	;# 
   531  0010                     	;# 
   532  0011                     	;# 
   533  0012                     	;# 
   534  0013                     	;# 
   535  0014                     	;# 
   536  0015                     	;# 
   537  0015                     	;# 
   538  0016                     	;# 
   539  0017                     	;# 
   540  0018                     	;# 
   541  0019                     	;# 
   542  001A                     	;# 
   543  001B                     	;# 
   544  001B                     	;# 
   545  001C                     	;# 
   546  001D                     	;# 
   547  001E                     	;# 
   548  001F                     	;# 
   549  0081                     	;# 
   550  0085                     	;# 
   551  0086                     	;# 
   552  0087                     	;# 
   553  0088                     	;# 
   554  0089                     	;# 
   555  008C                     	;# 
   556  008D                     	;# 
   557  008E                     	;# 
   558  0091                     	;# 
   559  0092                     	;# 
   560  0093                     	;# 
   561  0094                     	;# 
   562  0098                     	;# 
   563  0099                     	;# 
   564  009C                     	;# 
   565  009D                     	;# 
   566  009E                     	;# 
   567  009F                     	;# 
   568  010C                     	;# 
   569  010D                     	;# 
   570  010E                     	;# 
   571  010F                     	;# 
   572  018C                     	;# 
   573  018D                     	;# 
   574  0000                     	;# 
   575  0001                     	;# 
   576  0002                     	;# 
   577  0003                     	;# 
   578  0004                     	;# 
   579  0005                     	;# 
   580  0006                     	;# 
   581  0007                     	;# 
   582  0008                     	;# 
   583  0009                     	;# 
   584  000A                     	;# 
   585  000B                     	;# 
   586  000C                     	;# 
   587  000D                     	;# 
   588  000E                     	;# 
   589  000E                     	;# 
   590  000F                     	;# 
   591  0010                     	;# 
   592  0011                     	;# 
   593  0012                     	;# 
   594  0013                     	;# 
   595  0014                     	;# 
   596  0015                     	;# 
   597  0015                     	;# 
   598  0016                     	;# 
   599  0017                     	;# 
   600  0018                     	;# 
   601  0019                     	;# 
   602  001A                     	;# 
   603  001B                     	;# 
   604  001B                     	;# 
   605  001C                     	;# 
   606  001D                     	;# 
   607  001E                     	;# 
   608  001F                     	;# 
   609  0081                     	;# 
   610  0085                     	;# 
   611  0086                     	;# 
   612  0087                     	;# 
   613  0088                     	;# 
   614  0089                     	;# 
   615  008C                     	;# 
   616  008D                     	;# 
   617  008E                     	;# 
   618  0091                     	;# 
   619  0092                     	;# 
   620  0093                     	;# 
   621  0094                     	;# 
   622  0098                     	;# 
   623  0099                     	;# 
   624  009C                     	;# 
   625  009D                     	;# 
   626  009E                     	;# 
   627  009F                     	;# 
   628  010C                     	;# 
   629  010D                     	;# 
   630  010E                     	;# 
   631  010F                     	;# 
   632  018C                     	;# 
   633  018D                     	;# 
   634  0000                     	;# 
   635  0001                     	;# 
   636  0002                     	;# 
   637  0003                     	;# 
   638  0004                     	;# 
   639  0005                     	;# 
   640  0006                     	;# 
   641  0007                     	;# 
   642  0008                     	;# 
   643  0009                     	;# 
   644  000A                     	;# 
   645  000B                     	;# 
   646  000C                     	;# 
   647  000D                     	;# 
   648  000E                     	;# 
   649  000E                     	;# 
   650  000F                     	;# 
   651  0010                     	;# 
   652  0011                     	;# 
   653  0012                     	;# 
   654  0013                     	;# 
   655  0014                     	;# 
   656  0015                     	;# 
   657  0015                     	;# 
   658  0016                     	;# 
   659  0017                     	;# 
   660  0018                     	;# 
   661  0019                     	;# 
   662  001A                     	;# 
   663  001B                     	;# 
   664  001B                     	;# 
   665  001C                     	;# 
   666  001D                     	;# 
   667  001E                     	;# 
   668  001F                     	;# 
   669  0081                     	;# 
   670  0085                     	;# 
   671  0086                     	;# 
   672  0087                     	;# 
   673  0088                     	;# 
   674  0089                     	;# 
   675  008C                     	;# 
   676  008D                     	;# 
   677  008E                     	;# 
   678  0091                     	;# 
   679  0092                     	;# 
   680  0093                     	;# 
   681  0094                     	;# 
   682  0098                     	;# 
   683  0099                     	;# 
   684  009C                     	;# 
   685  009D                     	;# 
   686  009E                     	;# 
   687  009F                     	;# 
   688  010C                     	;# 
   689  010D                     	;# 
   690  010E                     	;# 
   691  010F                     	;# 
   692  018C                     	;# 
   693  018D                     	;# 
   694                           
   695                           	psect	idataBANK0
   696  07FD                     __pidataBANK0:	
   697                           
   698                           ;initializer for _power_sw
   699  07FD  3401               	retlw	1
   700                           
   701                           ;initializer for _down_sw
   702  07FE  3401               	retlw	1
   703                           
   704                           ;initializer for _up_sw
   705  07FF  3401               	retlw	1
   706  0012                     _T2CON	set	18
   707  0007                     _PORTC	set	7
   708  0006                     _PORTB	set	6
   709  0005                     _PORTA	set	5
   710  0008                     _PORTD	set	8
   711  0013                     _SSPBUF	set	19
   712  0014                     _SSPCON	set	20
   713  001E                     _ADRESH	set	30
   714  001F                     _ADCON0	set	31
   715  000B                     _INTCON	set	11
   716  000C                     _PIR1	set	12
   717  0011                     _TMR2	set	17
   718  0063                     _SSPIF	set	99
   719  008C                     _PIE1	set	140
   720  0086                     _TRISB	set	134
   721  0085                     _TRISA	set	133
   722  0088                     _TRISD	set	136
   723  0087                     _TRISC	set	135
   724  0093                     _SSPADD	set	147
   725  0091                     _SSPCON2	set	145
   726  0094                     _SSPSTAT	set	148
   727  009E                     _ADRESL	set	158
   728  009F                     _ADCON1	set	159
   729                           
   730                           ; #config settings
   731  0000                     
   732                           	psect	cinit
   733  0015                     start_initialization:	
   734  0015                     __initialization:	
   735                           
   736                           ; Initialize objects allocated to BANK0
   737  0015  120A  118A  27FD  120A  118A  	fcall	__pidataBANK0	;fetch initializer
   738  001A  00EA               	movwf	__pdataBANK0& (0+127)
   739  001B  120A  118A  27FE  120A  118A  	fcall	__pidataBANK0+1	;fetch initializer
   740  0020  00EB               	movwf	(__pdataBANK0+1)& (0+127)
   741  0021  120A  118A  27FF  120A  118A  	fcall	__pidataBANK0+2	;fetch initializer
   742  0026  00EC               	movwf	(__pdataBANK0+2)& (0+127)
   743                           
   744                           ; Clear objects allocated to BANK1
   745  0027  1383               	bcf	3,7	;select IRP bank0
   746  0028  30B8               	movlw	low __pbssBANK1
   747  0029  0084               	movwf	4
   748  002A  30CC               	movlw	low (__pbssBANK1+20)
   749  002B  120A  158A  21D3  120A  118A  	fcall	clear_ram0
   750                           
   751                           ; Clear objects allocated to BANK0
   752  0030  3056               	movlw	low __pbssBANK0
   753  0031  0084               	movwf	4
   754  0032  306A               	movlw	low (__pbssBANK0+20)
   755  0033  120A  158A  21D3  120A  118A  	fcall	clear_ram0
   756  0038                     end_of_initialization:	
   757                           ;End of C runtime variable initialization code
   758                           
   759  0038                     __end_of__initialization:	
   760  0038  0183               	clrf	3
   761  0039  120A  158A  2D15   	ljmp	_main	;jump to C main() function
   762                           
   763                           	psect	bssBANK0
   764  0056                     __pbssBANK0:	
   765  0056                     _led_timer:	
   766  0056                     	ds	2
   767  0058                     _ssd_timer:	
   768  0058                     	ds	2
   769  005A                     _switch_wait:	
   770  005A                     	ds	2
   771  005C                     _temp:	
   772  005C                     	ds	1
   773  005D                     _i:	
   774  005D                     	ds	1
   775  005E                     _state:	
   776  005E                     	ds	1
   777  005F                     _blink:	
   778  005F                     	ds	1
   779  0060                     _ssd_select:	
   780  0060                     	ds	1
   781  0061                     _ones:	
   782  0061                     	ds	1
   783  0062                     _tens:	
   784  0062                     	ds	1
   785  0063                     _power_mode:	
   786  0063                     	ds	1
   787  0064                     _mode:	
   788  0064                     	ds	1
   789  0065                     _hold_temp:	
   790  0065                     	ds	1
   791  0066                     _set_temp:	
   792  0066                     	ds	1
   793  0067                     _switch_delay:	
   794  0067                     	ds	1
   795  0068                     _ssd_delay:	
   796  0068                     	ds	1
   797  0069                     _temp_timer:	
   798  0069                     	ds	1
   799                           
   800                           	psect	dataBANK0
   801  006A                     __pdataBANK0:	
   802  006A                     _power_sw:	
   803  006A                     	ds	1
   804  006B                     _down_sw:	
   805  006B                     	ds	1
   806  006C                     _up_sw:	
   807  006C                     	ds	1
   808                           
   809                           	psect	bssBANK1
   810  00B8                     __pbssBANK1:	
   811  00B8                     _temp_hold_array:	
   812  00B8                     	ds	20
   813                           
   814                           	psect	clrtext
   815  09D3                     clear_ram0:	
   816                           ;	Called with FSR containing the base address, and
   817                           ;	W with the last address+1
   818                           
   819  09D3  0064               	clrwdt	;clear the watchdog before getting into this loop
   820  09D4                     clrloop0:	
   821  09D4  0180               	clrf	0	;clear RAM location pointed to by FSR
   822  09D5  0A84               	incf	4,f	;increment pointer
   823  09D6  0604               	xorwf	4,w	;XOR with final address
   824  09D7  1903               	btfsc	3,2	;have we reached the end yet?
   825  09D8  3400               	retlw	0	;all done for this memory range, return
   826  09D9  0604               	xorwf	4,w	;XOR again to restore value
   827  09DA  29D4               	goto	clrloop0	;do the next byte
   828                           
   829                           	psect	cstackBANK1
   830  00A0                     __pcstackBANK1:	
   831  00A0                     ??_temp_control_init:	
   832  00A0                     ??_switch_init:	
   833                           ; 1 bytes @ 0x0
   834                           
   835  00A0                     ??_ssd_init:	
   836                           ; 1 bytes @ 0x0
   837                           
   838  00A0                     ??_timer2_init:	
   839                           ; 1 bytes @ 0x0
   840                           
   841  00A0                     ??_ADC_Init:	
   842                           ; 1 bytes @ 0x0
   843                           
   844  00A0                     ??_I2C_Wait:	
   845                           ; 1 bytes @ 0x0
   846                           
   847  00A0                     ??_I2C1_Start:	
   848                           ; 1 bytes @ 0x0
   849                           
   850  00A0                     ??_I2C1_Stop:	
   851                           ; 1 bytes @ 0x0
   852                           
   853  00A0                     ??_I2C1_Wr:	
   854                           ; 1 bytes @ 0x0
   855                           
   856  00A0                     ??_I2C1_Rd:	
   857                           ; 1 bytes @ 0x0
   858                           
   859  00A0                     ?___aldiv:	
   860                           ; 1 bytes @ 0x0
   861                           
   862  00A0                     I2C1_Wr@_data:	
   863                           ; 4 bytes @ 0x0
   864                           
   865  00A0                     ___aldiv@divisor:	
   866                           ; 1 bytes @ 0x0
   867                           
   868                           
   869                           ; 4 bytes @ 0x0
   870  00A0                     	ds	1
   871  00A1                     ??_temp_sensor_init:	
   872  00A1                     ?_EEPROM_read:	
   873                           ; 1 bytes @ 0x1
   874                           
   875  00A1                     EEPROM_read@address:	
   876                           ; 1 bytes @ 0x1
   877                           
   878                           
   879                           ; 2 bytes @ 0x1
   880  00A1                     	ds	2
   881  00A3                     ??_EEPROM_read:	
   882                           
   883                           ; 1 bytes @ 0x3
   884  00A3                     	ds	1
   885  00A4                     EEPROM_read@_x:	
   886  00A4                     ___aldiv@dividend:	
   887                           ; 1 bytes @ 0x4
   888                           
   889                           
   890                           ; 4 bytes @ 0x4
   891  00A4                     	ds	4
   892  00A8                     ??___aldiv:	
   893                           
   894                           ; 1 bytes @ 0x8
   895  00A8                     	ds	1
   896  00A9                     ___aldiv@counter:	
   897                           
   898                           ; 1 bytes @ 0x9
   899  00A9                     	ds	1
   900  00AA                     ___aldiv@sign:	
   901                           
   902                           ; 1 bytes @ 0xA
   903  00AA                     	ds	1
   904  00AB                     ___aldiv@quotient:	
   905                           
   906                           ; 4 bytes @ 0xB
   907  00AB                     	ds	4
   908  00AF                     ?_I2C1_Init:	
   909  00AF                     I2C1_Init@freq:	
   910                           ; 1 bytes @ 0xF
   911                           
   912                           
   913                           ; 4 bytes @ 0xF
   914  00AF                     	ds	4
   915  00B3                     ??_I2C1_Init:	
   916                           
   917                           ; 1 bytes @ 0x13
   918  00B3                     	ds	4
   919  00B7                     ??_EEPROM_init:	
   920  00B7                     ??_main:	
   921                           ; 1 bytes @ 0x17
   922                           
   923                           
   924                           ; 1 bytes @ 0x17
   925  00B7                     	ds	1
   926                           
   927                           	psect	cstackCOMMON
   928  0070                     __pcstackCOMMON:	
   929  0070                     ?_temp_sensor_read:	
   930  0070                     ?_ssd_update:	
   931                           ; 1 bytes @ 0x0
   932                           
   933  0070                     ?_temp_set:	
   934                           ; 1 bytes @ 0x0
   935                           
   936  0070                     ??_temp_set:	
   937                           ; 1 bytes @ 0x0
   938                           
   939  0070                     ?_led:	
   940                           ; 1 bytes @ 0x0
   941                           
   942  0070                     ??_led:	
   943                           ; 1 bytes @ 0x0
   944                           
   945  0070                     ?_switch_scan:	
   946                           ; 1 bytes @ 0x0
   947                           
   948  0070                     ??_switch_scan:	
   949                           ; 1 bytes @ 0x0
   950                           
   951  0070                     ?_sw_action:	
   952                           ; 1 bytes @ 0x0
   953                           
   954  0070                     ?_ssd_blink:	
   955                           ; 1 bytes @ 0x0
   956                           
   957  0070                     ?_stop_timer:	
   958                           ; 1 bytes @ 0x0
   959                           
   960  0070                     ??_stop_timer:	
   961                           ; 1 bytes @ 0x0
   962                           
   963  0070                     ?_ssd_turn_off:	
   964                           ; 1 bytes @ 0x0
   965                           
   966  0070                     ??_ssd_turn_off:	
   967                           ; 1 bytes @ 0x0
   968                           
   969  0070                     ?_temp_control_off:	
   970                           ; 1 bytes @ 0x0
   971                           
   972  0070                     ??_temp_control_off:	
   973                           ; 1 bytes @ 0x0
   974                           
   975  0070                     ?_start_timer:	
   976                           ; 1 bytes @ 0x0
   977                           
   978  0070                     ??_start_timer:	
   979                           ; 1 bytes @ 0x0
   980                           
   981  0070                     ?_temp_sensor_init:	
   982                           ; 1 bytes @ 0x0
   983                           
   984  0070                     ?_temp_control_init:	
   985                           ; 1 bytes @ 0x0
   986                           
   987  0070                     ?_switch_init:	
   988                           ; 1 bytes @ 0x0
   989                           
   990  0070                     ?_ssd_init:	
   991                           ; 1 bytes @ 0x0
   992                           
   993  0070                     ?_EEPROM_init:	
   994                           ; 1 bytes @ 0x0
   995                           
   996  0070                     ?_timer2_init:	
   997                           ; 1 bytes @ 0x0
   998                           
   999  0070                     ?_isr:	
  1000                           ; 1 bytes @ 0x0
  1001                           
  1002  0070                     ?_main:	
  1003                           ; 1 bytes @ 0x0
  1004                           
  1005  0070                     ?_ADC_Init:	
  1006                           ; 1 bytes @ 0x0
  1007                           
  1008  0070                     ?_I2C_Wait:	
  1009                           ; 1 bytes @ 0x0
  1010                           
  1011  0070                     ?_I2C1_Start:	
  1012                           ; 1 bytes @ 0x0
  1013                           
  1014  0070                     ?_I2C1_Stop:	
  1015                           ; 1 bytes @ 0x0
  1016                           
  1017  0070                     ?_I2C1_Wr:	
  1018                           ; 1 bytes @ 0x0
  1019                           
  1020  0070                     ?_I2C1_Rd:	
  1021                           ; 1 bytes @ 0x0
  1022                           
  1023  0070                     ?_display7s:	
  1024                           ; 1 bytes @ 0x0
  1025                           
  1026  0070                     ??_display7s:	
  1027                           ; 1 bytes @ 0x0
  1028                           
  1029  0070                     ?_average:	
  1030                           ; 1 bytes @ 0x0
  1031                           
  1032  0070                     ?i1_I2C_Wait:	
  1033                           ; 1 bytes @ 0x0
  1034                           
  1035  0070                     ??i1_I2C_Wait:	
  1036                           ; 1 bytes @ 0x0
  1037                           
  1038  0070                     ?i1_I2C1_Start:	
  1039                           ; 1 bytes @ 0x0
  1040                           
  1041  0070                     ??i1_I2C1_Start:	
  1042                           ; 1 bytes @ 0x0
  1043                           
  1044  0070                     ?i1_I2C1_Stop:	
  1045                           ; 1 bytes @ 0x0
  1046                           
  1047  0070                     ??i1_I2C1_Stop:	
  1048                           ; 1 bytes @ 0x0
  1049                           
  1050  0070                     ?i1_I2C1_Wr:	
  1051                           ; 1 bytes @ 0x0
  1052                           
  1053  0070                     ??i1_I2C1_Wr:	
  1054                           ; 1 bytes @ 0x0
  1055                           
  1056  0070                     ?__Umul8_16:	
  1057                           ; 1 bytes @ 0x0
  1058                           
  1059  0070                     ?_ADC_Read:	
  1060                           ; 2 bytes @ 0x0
  1061                           
  1062  0070                     ?___awdiv:	
  1063                           ; 2 bytes @ 0x0
  1064                           
  1065  0070                     ?___awmod:	
  1066                           ; 2 bytes @ 0x0
  1067                           
  1068  0070                     ?___lwdiv:	
  1069                           ; 2 bytes @ 0x0
  1070                           
  1071  0070                     __Umul8_16@multiplicand:	
  1072                           ; 2 bytes @ 0x0
  1073                           
  1074  0070                     i1I2C1_Wr@_data:	
  1075                           ; 1 bytes @ 0x0
  1076                           
  1077  0070                     ___awdiv@divisor:	
  1078                           ; 1 bytes @ 0x0
  1079                           
  1080  0070                     ___awmod@divisor:	
  1081                           ; 2 bytes @ 0x0
  1082                           
  1083  0070                     ___lwdiv@divisor:	
  1084                           ; 2 bytes @ 0x0
  1085                           
  1086                           
  1087                           ; 2 bytes @ 0x0
  1088  0070                     	ds	1
  1089  0071                     ?_EEPROM_write:	
  1090  0071                     EEPROM_write@address:	
  1091                           ; 1 bytes @ 0x1
  1092                           
  1093                           
  1094                           ; 2 bytes @ 0x1
  1095  0071                     	ds	1
  1096  0072                     ??__Umul8_16:	
  1097  0072                     ??_ADC_Read:	
  1098                           ; 1 bytes @ 0x2
  1099                           
  1100  0072                     display7s@v:	
  1101                           ; 1 bytes @ 0x2
  1102                           
  1103  0072                     ___awdiv@dividend:	
  1104                           ; 1 bytes @ 0x2
  1105                           
  1106  0072                     ___awmod@dividend:	
  1107                           ; 2 bytes @ 0x2
  1108                           
  1109  0072                     ___lwdiv@dividend:	
  1110                           ; 2 bytes @ 0x2
  1111                           
  1112                           
  1113                           ; 2 bytes @ 0x2
  1114  0072                     	ds	1
  1115  0073                     EEPROM_write@_x:	
  1116  0073                     temp_set@temp:	
  1117                           ; 1 bytes @ 0x3
  1118                           
  1119                           
  1120                           ; 1 bytes @ 0x3
  1121  0073                     	ds	1
  1122  0074                     ??_sw_action:	
  1123  0074                     ??_EEPROM_write:	
  1124                           ; 1 bytes @ 0x4
  1125                           
  1126  0074                     ??___awdiv:	
  1127                           ; 1 bytes @ 0x4
  1128                           
  1129  0074                     ??___awmod:	
  1130                           ; 1 bytes @ 0x4
  1131                           
  1132  0074                     ??___lwdiv:	
  1133                           ; 1 bytes @ 0x4
  1134                           
  1135  0074                     ADC_Read@channel:	
  1136                           ; 1 bytes @ 0x4
  1137                           
  1138  0074                     __Umul8_16@product:	
  1139                           ; 1 bytes @ 0x4
  1140                           
  1141                           
  1142                           ; 2 bytes @ 0x4
  1143  0074                     	ds	1
  1144  0075                     ?___xxtofl:	
  1145  0075                     ___awdiv@counter:	
  1146                           ; 4 bytes @ 0x5
  1147                           
  1148  0075                     ___awmod@counter:	
  1149                           ; 1 bytes @ 0x5
  1150                           
  1151  0075                     ___lwdiv@quotient:	
  1152                           ; 1 bytes @ 0x5
  1153                           
  1154  0075                     ___xxtofl@val:	
  1155                           ; 2 bytes @ 0x5
  1156                           
  1157                           
  1158                           ; 4 bytes @ 0x5
  1159  0075                     	ds	1
  1160  0076                     ___awdiv@sign:	
  1161  0076                     ___awmod@sign:	
  1162                           ; 1 bytes @ 0x6
  1163                           
  1164  0076                     __Umul8_16@word_mpld:	
  1165                           ; 1 bytes @ 0x6
  1166                           
  1167                           
  1168                           ; 2 bytes @ 0x6
  1169  0076                     	ds	1
  1170  0077                     ___lwdiv@counter:	
  1171  0077                     ___awdiv@quotient:	
  1172                           ; 1 bytes @ 0x7
  1173                           
  1174                           
  1175                           ; 2 bytes @ 0x7
  1176  0077                     	ds	1
  1177  0078                     ??_average:	
  1178  0078                     __Umul8_16@multiplier:	
  1179                           ; 1 bytes @ 0x8
  1180                           
  1181                           
  1182                           ; 1 bytes @ 0x8
  1183  0078                     	ds	1
  1184  0079                     ??_ssd_update:	
  1185  0079                     ??___xxtofl:	
  1186                           ; 1 bytes @ 0x9
  1187                           
  1188                           
  1189                           ; 1 bytes @ 0x9
  1190  0079                     	ds	2
  1191  007B                     average@sum:	
  1192                           
  1193                           ; 2 bytes @ 0xB
  1194  007B                     	ds	1
  1195  007C                     ssd_update@temp:	
  1196                           
  1197                           ; 1 bytes @ 0xC
  1198  007C                     	ds	1
  1199  007D                     ssd_blink@e_temp:	
  1200  007D                     average@i:	
  1201                           ; 1 bytes @ 0xD
  1202                           
  1203                           
  1204                           ; 1 bytes @ 0xD
  1205  007D                     	ds	1
  1206                           
  1207                           	psect	cstackBANK0
  1208  0020                     __pcstackBANK0:	
  1209  0020                     ??_ssd_blink:	
  1210  0020                     ___xxtofl@sign:	
  1211                           ; 1 bytes @ 0x0
  1212                           
  1213                           
  1214                           ; 1 bytes @ 0x0
  1215  0020                     	ds	1
  1216  0021                     ___xxtofl@exp:	
  1217                           
  1218                           ; 1 bytes @ 0x1
  1219  0021                     	ds	1
  1220  0022                     ___xxtofl@arg:	
  1221                           
  1222                           ; 4 bytes @ 0x2
  1223  0022                     	ds	4
  1224  0026                     ?___fldiv:	
  1225  0026                     ?___flmul:	
  1226                           ; 4 bytes @ 0x6
  1227                           
  1228  0026                     ___fldiv@a:	
  1229                           ; 4 bytes @ 0x6
  1230                           
  1231  0026                     ___flmul@b:	
  1232                           ; 4 bytes @ 0x6
  1233                           
  1234                           
  1235                           ; 4 bytes @ 0x6
  1236  0026                     	ds	4
  1237  002A                     ___fldiv@b:	
  1238  002A                     ___flmul@a:	
  1239                           ; 4 bytes @ 0xA
  1240                           
  1241                           
  1242                           ; 4 bytes @ 0xA
  1243  002A                     	ds	4
  1244  002E                     ??___fldiv:	
  1245  002E                     ??___flmul:	
  1246                           ; 1 bytes @ 0xE
  1247                           
  1248                           
  1249                           ; 1 bytes @ 0xE
  1250  002E                     	ds	5
  1251  0033                     ___flmul@sign:	
  1252  0033                     ___fldiv@rem:	
  1253                           ; 1 bytes @ 0x13
  1254                           
  1255                           
  1256                           ; 4 bytes @ 0x13
  1257  0033                     	ds	1
  1258  0034                     ___flmul@grs:	
  1259                           
  1260                           ; 4 bytes @ 0x14
  1261  0034                     	ds	3
  1262  0037                     ___fldiv@sign:	
  1263                           
  1264                           ; 1 bytes @ 0x17
  1265  0037                     	ds	1
  1266  0038                     ___flmul@aexp:	
  1267  0038                     ___fldiv@new_exp:	
  1268                           ; 1 bytes @ 0x18
  1269                           
  1270                           
  1271                           ; 2 bytes @ 0x18
  1272  0038                     	ds	1
  1273  0039                     ___flmul@bexp:	
  1274                           
  1275                           ; 1 bytes @ 0x19
  1276  0039                     	ds	1
  1277  003A                     ___fldiv@grs:	
  1278  003A                     ___flmul@prod:	
  1279                           ; 4 bytes @ 0x1A
  1280                           
  1281                           
  1282                           ; 4 bytes @ 0x1A
  1283  003A                     	ds	4
  1284  003E                     ___fldiv@bexp:	
  1285  003E                     ___flmul@temp:	
  1286                           ; 1 bytes @ 0x1E
  1287                           
  1288                           
  1289                           ; 2 bytes @ 0x1E
  1290  003E                     	ds	1
  1291  003F                     ___fldiv@aexp:	
  1292                           
  1293                           ; 1 bytes @ 0x1F
  1294  003F                     	ds	1
  1295  0040                     ?___fltol:	
  1296  0040                     ___fltol@f1:	
  1297                           ; 4 bytes @ 0x20
  1298                           
  1299                           
  1300                           ; 4 bytes @ 0x20
  1301  0040                     	ds	4
  1302  0044                     ??___fltol:	
  1303                           
  1304                           ; 1 bytes @ 0x24
  1305  0044                     	ds	5
  1306  0049                     ___fltol@sign1:	
  1307                           
  1308                           ; 1 bytes @ 0x29
  1309  0049                     	ds	1
  1310  004A                     ___fltol@exp1:	
  1311                           
  1312                           ; 1 bytes @ 0x2A
  1313  004A                     	ds	1
  1314  004B                     ??_temp_sensor_read:	
  1315                           
  1316                           ; 1 bytes @ 0x2B
  1317  004B                     	ds	5
  1318  0050                     ??_isr:	
  1319                           
  1320                           ; 1 bytes @ 0x30
  1321  0050                     	ds	6
  1322                           
  1323                           	psect	maintext
  1324  0D15                     __pmaintext:	
  1325 ;;
  1326 ;;Main: autosize = 0, tempsize = 1, incstack = 0, save=0
  1327 ;;
  1328 ;; *************** function _main *****************
  1329 ;; Defined at:
  1330 ;;		line 80 in file "main_app.c"
  1331 ;; Parameters:    Size  Location     Type
  1332 ;;		None
  1333 ;; Auto vars:     Size  Location     Type
  1334 ;;		None
  1335 ;; Return value:  Size  Location     Type
  1336 ;;                  1    wreg      void 
  1337 ;; Registers used:
  1338 ;;		wreg, status,2, status,0, pclath, cstack
  1339 ;; Tracked objects:
  1340 ;;		On entry : B00/0
  1341 ;;		On exit  : 0/0
  1342 ;;		Unchanged: 0/0
  1343 ;; Data sizes:     COMMON   BANK0   BANK1   BANK3   BANK2
  1344 ;;      Params:         0       0       0       0       0
  1345 ;;      Locals:         0       0       0       0       0
  1346 ;;      Temps:          0       0       1       0       0
  1347 ;;      Totals:         0       0       1       0       0
  1348 ;;Total ram usage:        1 bytes
  1349 ;; Hardware stack levels required when called:    8
  1350 ;; This function calls:
  1351 ;;		_EEPROM_init
  1352 ;;		_EEPROM_read
  1353 ;;		_ssd_init
  1354 ;;		_switch_init
  1355 ;;		_temp_control_init
  1356 ;;		_temp_sensor_init
  1357 ;;		_timer2_init
  1358 ;; This function is called by:
  1359 ;;		Startup code after reset
  1360 ;; This function uses a non-reentrant model
  1361 ;;
  1362                           
  1363                           
  1364                           ;psect for function _main
  1365  0D15                     _main:	
  1366  0D15                     l3162:	
  1367                           ;incstack = 0
  1368                           ; Regs used in _main: [wreg+status,2+status,0+pclath+cstack]
  1369                           
  1370                           
  1371                           ;main_app.c: 82:     temp_sensor_init();
  1372  0D15  120A  158A  21FF  120A  158A  	fcall	_temp_sensor_init
  1373                           
  1374                           ;main_app.c: 83:     temp_control_init();
  1375  0D1A  120A  158A  2314  120A  158A  	fcall	_temp_control_init
  1376  0D1F                     l3164:	
  1377                           
  1378                           ;main_app.c: 84:     switch_init();
  1379  0D1F  120A  158A  21CC  120A  158A  	fcall	_switch_init
  1380  0D24                     l3166:	
  1381                           
  1382                           ;main_app.c: 85:     ssd_init();
  1383  0D24  120A  158A  22D1  120A  158A  	fcall	_ssd_init
  1384  0D29                     l3168:	
  1385                           
  1386                           ;main_app.c: 86:     EEPROM_init();
  1387  0D29  120A  158A  225B  120A  158A  	fcall	_EEPROM_init
  1388  0D2E                     l3170:	
  1389                           
  1390                           ;main_app.c: 87:     if (EEPROM_read(0xff) > 100){
  1391  0D2E  30FF               	movlw	255
  1392  0D2F  1683               	bsf	3,5	;RP0=1, select bank1
  1393  0D30  1303               	bcf	3,6	;RP1=0, select bank1
  1394  0D31  00A1               	movwf	EEPROM_read@address^(0+128)
  1395  0D32  3000               	movlw	0
  1396  0D33  00A2               	movwf	(EEPROM_read@address^(0+128)+1)
  1397  0D34  120A  158A  23B8  120A  158A  	fcall	_EEPROM_read
  1398  0D39  1683               	bsf	3,5	;RP0=1, select bank1
  1399  0D3A  1303               	bcf	3,6	;RP1=0, select bank1
  1400  0D3B  00B7               	movwf	??_main^(0+128)
  1401  0D3C  3065               	movlw	101
  1402  0D3D  0237               	subwf	??_main^(0+128),w
  1403  0D3E  1C03               	skipc
  1404  0D3F  2D41               	goto	u3181
  1405  0D40  2D42               	goto	u3180
  1406  0D41                     u3181:	
  1407  0D41  2D49               	goto	l3174
  1408  0D42                     u3180:	
  1409  0D42                     l3172:	
  1410                           
  1411                           ;main_app.c: 88:        set_temp = 60 ;
  1412  0D42  303C               	movlw	60
  1413  0D43  00B7               	movwf	??_main^(0+128)
  1414  0D44  0837               	movf	??_main^(0+128),w
  1415  0D45  1283               	bcf	3,5	;RP0=0, select bank0
  1416  0D46  1303               	bcf	3,6	;RP1=0, select bank0
  1417  0D47  00E6               	movwf	_set_temp
  1418                           
  1419                           ;main_app.c: 89:     }
  1420  0D48  2D59               	goto	l83
  1421  0D49                     l3174:	
  1422                           
  1423                           ;main_app.c: 91:        set_temp = EEPROM_read(0xff) ;
  1424  0D49  30FF               	movlw	255
  1425  0D4A  00A1               	movwf	EEPROM_read@address^(0+128)
  1426  0D4B  3000               	movlw	0
  1427  0D4C  00A2               	movwf	(EEPROM_read@address^(0+128)+1)
  1428  0D4D  120A  158A  23B8  120A  158A  	fcall	_EEPROM_read
  1429  0D52  1683               	bsf	3,5	;RP0=1, select bank1
  1430  0D53  1303               	bcf	3,6	;RP1=0, select bank1
  1431  0D54  00B7               	movwf	??_main^(0+128)
  1432  0D55  0837               	movf	??_main^(0+128),w
  1433  0D56  1283               	bcf	3,5	;RP0=0, select bank0
  1434  0D57  1303               	bcf	3,6	;RP1=0, select bank0
  1435  0D58  00E6               	movwf	_set_temp
  1436  0D59                     l83:	
  1437                           ;main_app.c: 92:     }
  1438                           
  1439                           
  1440                           ;main_app.c: 93:     timer2_init();
  1441  0D59  120A  158A  22F0  120A  158A  	fcall	_timer2_init
  1442  0D5E                     l84:	
  1443                           ;main_app.c: 96:     while(1){
  1444                           
  1445  0D5E                     l85:	
  1446                           ;main_app.c: 98:     }
  1447                           
  1448  0D5E  2D5E               	goto	l84
  1449  0D5F  120A  118A  2812   	ljmp	start
  1450  0D62                     __end_of_main:	
  1451                           
  1452                           	psect	text1
  1453  0AF0                     __ptext1:	
  1454 ;; *************** function _timer2_init *****************
  1455 ;; Defined at:
  1456 ;;		line 3 in file "timer2.c"
  1457 ;; Parameters:    Size  Location     Type
  1458 ;;		None
  1459 ;; Auto vars:     Size  Location     Type
  1460 ;;		None
  1461 ;; Return value:  Size  Location     Type
  1462 ;;                  1    wreg      void 
  1463 ;; Registers used:
  1464 ;;		wreg, status,2, status,0
  1465 ;; Tracked objects:
  1466 ;;		On entry : 0/0
  1467 ;;		On exit  : 0/0
  1468 ;;		Unchanged: 0/0
  1469 ;; Data sizes:     COMMON   BANK0   BANK1   BANK3   BANK2
  1470 ;;      Params:         0       0       0       0       0
  1471 ;;      Locals:         0       0       0       0       0
  1472 ;;      Temps:          0       0       1       0       0
  1473 ;;      Totals:         0       0       1       0       0
  1474 ;;Total ram usage:        1 bytes
  1475 ;; Hardware stack levels used:    1
  1476 ;; Hardware stack levels required when called:    5
  1477 ;; This function calls:
  1478 ;;		Nothing
  1479 ;; This function is called by:
  1480 ;;		_main
  1481 ;; This function uses a non-reentrant model
  1482 ;;
  1483                           
  1484                           
  1485                           ;psect for function _timer2_init
  1486  0AF0                     _timer2_init:	
  1487  0AF0                     l3098:	
  1488                           ;incstack = 0
  1489                           ; Regs used in _timer2_init: [wreg+status,2+status,0]
  1490                           
  1491                           
  1492                           ;timer2.c: 4:      (T2CON &= ~(1 << 2)) ;
  1493  0AF0  30FB               	movlw	251
  1494  0AF1  1683               	bsf	3,5	;RP0=1, select bank1
  1495  0AF2  1303               	bcf	3,6	;RP1=0, select bank1
  1496  0AF3  00A0               	movwf	??_timer2_init^(0+128)
  1497  0AF4  0820               	movf	??_timer2_init^(0+128),w
  1498  0AF5  1283               	bcf	3,5	;RP0=0, select bank0
  1499  0AF6  1303               	bcf	3,6	;RP1=0, select bank0
  1500  0AF7  0592               	andwf	18,f	;volatile
  1501  0AF8                     l3100:	
  1502                           
  1503                           ;timer2.c: 5:      (T2CON |= (1 << 1));
  1504  0AF8  1492               	bsf	18,1	;volatile
  1505                           
  1506                           ;timer2.c: 6:      (T2CON &= ~(1 << 0));
  1507  0AF9  30FE               	movlw	254
  1508  0AFA  1683               	bsf	3,5	;RP0=1, select bank1
  1509  0AFB  1303               	bcf	3,6	;RP1=0, select bank1
  1510  0AFC  00A0               	movwf	??_timer2_init^(0+128)
  1511  0AFD  0820               	movf	??_timer2_init^(0+128),w
  1512  0AFE  1283               	bcf	3,5	;RP0=0, select bank0
  1513  0AFF  1303               	bcf	3,6	;RP1=0, select bank0
  1514  0B00  0592               	andwf	18,f	;volatile
  1515  0B01                     l3102:	
  1516                           
  1517                           ;timer2.c: 7:      TMR2 = 131 ;
  1518  0B01  3083               	movlw	131
  1519  0B02  0091               	movwf	17	;volatile
  1520  0B03                     l3104:	
  1521                           
  1522                           ;timer2.c: 8:      (INTCON |= (1 << 7));
  1523  0B03  178B               	bsf	11,7	;volatile
  1524  0B04                     l3106:	
  1525                           
  1526                           ;timer2.c: 9:      (INTCON |= (1 << 6));
  1527  0B04  170B               	bsf	11,6	;volatile
  1528  0B05                     l3108:	
  1529                           
  1530                           ;timer2.c: 10:      (PIR1 &= ~(1 << 1));
  1531  0B05  30FD               	movlw	253
  1532  0B06  1683               	bsf	3,5	;RP0=1, select bank1
  1533  0B07  1303               	bcf	3,6	;RP1=0, select bank1
  1534  0B08  00A0               	movwf	??_timer2_init^(0+128)
  1535  0B09  0820               	movf	??_timer2_init^(0+128),w
  1536  0B0A  1283               	bcf	3,5	;RP0=0, select bank0
  1537  0B0B  1303               	bcf	3,6	;RP1=0, select bank0
  1538  0B0C  058C               	andwf	12,f	;volatile
  1539  0B0D                     l3110:	
  1540                           
  1541                           ;timer2.c: 11:      (PIE1 |= (1 << 1));
  1542  0B0D  1683               	bsf	3,5	;RP0=1, select bank1
  1543  0B0E  1303               	bcf	3,6	;RP1=0, select bank1
  1544  0B0F  148C               	bsf	12,1	;volatile
  1545  0B10                     l3112:	
  1546                           
  1547                           ;timer2.c: 12:      (T2CON |= (1 << 2)) ;
  1548  0B10  1283               	bcf	3,5	;RP0=0, select bank0
  1549  0B11  1303               	bcf	3,6	;RP1=0, select bank0
  1550  0B12  1512               	bsf	18,2	;volatile
  1551  0B13                     l358:	
  1552  0B13  0008               	return
  1553  0B14                     __end_of_timer2_init:	
  1554                           
  1555                           	psect	text2
  1556  09FF                     __ptext2:	
  1557 ;; *************** function _temp_sensor_init *****************
  1558 ;; Defined at:
  1559 ;;		line 8 in file "temp_sensor.c"
  1560 ;; Parameters:    Size  Location     Type
  1561 ;;		None
  1562 ;; Auto vars:     Size  Location     Type
  1563 ;;		None
  1564 ;; Return value:  Size  Location     Type
  1565 ;;                  1    wreg      void 
  1566 ;; Registers used:
  1567 ;;		wreg, status,2, status,0, pclath, cstack
  1568 ;; Tracked objects:
  1569 ;;		On entry : 0/0
  1570 ;;		On exit  : 0/0
  1571 ;;		Unchanged: 0/0
  1572 ;; Data sizes:     COMMON   BANK0   BANK1   BANK3   BANK2
  1573 ;;      Params:         0       0       0       0       0
  1574 ;;      Locals:         0       0       0       0       0
  1575 ;;      Temps:          0       0       0       0       0
  1576 ;;      Totals:         0       0       0       0       0
  1577 ;;Total ram usage:        0 bytes
  1578 ;; Hardware stack levels used:    1
  1579 ;; Hardware stack levels required when called:    6
  1580 ;; This function calls:
  1581 ;;		_ADC_Init
  1582 ;; This function is called by:
  1583 ;;		_main
  1584 ;; This function uses a non-reentrant model
  1585 ;;
  1586                           
  1587                           
  1588                           ;psect for function _temp_sensor_init
  1589  09FF                     _temp_sensor_init:	
  1590  09FF                     l3058:	
  1591                           ;incstack = 0
  1592                           ; Regs used in _temp_sensor_init: [wreg+status,2+status,0+pclath+cstack]
  1593                           
  1594                           
  1595                           ;temp_sensor.c: 9:      ADC_Init();
  1596  09FF  120A  158A  2298  120A  158A  	fcall	_ADC_Init
  1597  0A04                     l3060:	
  1598                           
  1599                           ;temp_sensor.c: 10:      (TRISA |= (1 << 2));
  1600  0A04  1683               	bsf	3,5	;RP0=1, select bank1
  1601  0A05  1303               	bcf	3,6	;RP1=0, select bank1
  1602  0A06  1505               	bsf	5,2	;volatile
  1603  0A07                     l334:	
  1604  0A07  0008               	return
  1605  0A08                     __end_of_temp_sensor_init:	
  1606                           
  1607                           	psect	text3
  1608  0A98                     __ptext3:	
  1609 ;; *************** function _ADC_Init *****************
  1610 ;; Defined at:
  1611 ;;		line 3 in file "adc_drive.c"
  1612 ;; Parameters:    Size  Location     Type
  1613 ;;		None
  1614 ;; Auto vars:     Size  Location     Type
  1615 ;;		None
  1616 ;; Return value:  Size  Location     Type
  1617 ;;                  1    wreg      void 
  1618 ;; Registers used:
  1619 ;;		wreg, status,2, status,0
  1620 ;; Tracked objects:
  1621 ;;		On entry : 0/0
  1622 ;;		On exit  : 0/0
  1623 ;;		Unchanged: 0/0
  1624 ;; Data sizes:     COMMON   BANK0   BANK1   BANK3   BANK2
  1625 ;;      Params:         0       0       0       0       0
  1626 ;;      Locals:         0       0       0       0       0
  1627 ;;      Temps:          0       0       1       0       0
  1628 ;;      Totals:         0       0       1       0       0
  1629 ;;Total ram usage:        1 bytes
  1630 ;; Hardware stack levels used:    1
  1631 ;; Hardware stack levels required when called:    5
  1632 ;; This function calls:
  1633 ;;		Nothing
  1634 ;; This function is called by:
  1635 ;;		_temp_sensor_init
  1636 ;; This function uses a non-reentrant model
  1637 ;;
  1638                           
  1639                           
  1640                           ;psect for function _ADC_Init
  1641  0A98                     _ADC_Init:	
  1642  0A98                     l2492:	
  1643                           ;incstack = 0
  1644                           ; Regs used in _ADC_Init: [wreg+status,2+status,0]
  1645                           
  1646                           
  1647                           ;adc_drive.c: 5:     (ADCON0 |= (1 << 7));
  1648  0A98  1283               	bcf	3,5	;RP0=0, select bank0
  1649  0A99  1303               	bcf	3,6	;RP1=0, select bank0
  1650  0A9A  179F               	bsf	31,7	;volatile
  1651                           
  1652                           ;adc_drive.c: 6:     (ADCON0 |= (1 << 6));
  1653  0A9B  171F               	bsf	31,6	;volatile
  1654                           
  1655                           ;adc_drive.c: 7:     (ADCON1 |= (1 << 6));
  1656  0A9C  1683               	bsf	3,5	;RP0=1, select bank1
  1657  0A9D  1303               	bcf	3,6	;RP1=0, select bank1
  1658  0A9E  171F               	bsf	31,6	;volatile
  1659                           
  1660                           ;adc_drive.c: 9:     (ADCON1 |= (1 << 7));
  1661  0A9F  179F               	bsf	31,7	;volatile
  1662  0AA0                     l2494:	
  1663                           
  1664                           ;adc_drive.c: 11:     (ADCON1 &= ~(1 << 0));
  1665  0AA0  30FE               	movlw	254
  1666  0AA1  00A0               	movwf	??_ADC_Init^(0+128)
  1667  0AA2  0820               	movf	??_ADC_Init^(0+128),w
  1668  0AA3  059F               	andwf	31,f	;volatile
  1669                           
  1670                           ;adc_drive.c: 12:     (ADCON1 &= ~(1 << 1));
  1671  0AA4  30FD               	movlw	253
  1672  0AA5  00A0               	movwf	??_ADC_Init^(0+128)
  1673  0AA6  0820               	movf	??_ADC_Init^(0+128),w
  1674  0AA7  059F               	andwf	31,f	;volatile
  1675                           
  1676                           ;adc_drive.c: 13:     (ADCON1 &= ~(1 << 2));
  1677  0AA8  30FB               	movlw	251
  1678  0AA9  00A0               	movwf	??_ADC_Init^(0+128)
  1679  0AAA  0820               	movf	??_ADC_Init^(0+128),w
  1680  0AAB  059F               	andwf	31,f	;volatile
  1681                           
  1682                           ;adc_drive.c: 14:     (ADCON1 &= ~(1 << 3));
  1683  0AAC  30F7               	movlw	247
  1684  0AAD  00A0               	movwf	??_ADC_Init^(0+128)
  1685  0AAE  0820               	movf	??_ADC_Init^(0+128),w
  1686  0AAF  059F               	andwf	31,f	;volatile
  1687  0AB0                     l2496:	
  1688                           
  1689                           ;adc_drive.c: 16:     (ADCON0 |= (1 << 0));
  1690  0AB0  1283               	bcf	3,5	;RP0=0, select bank0
  1691  0AB1  1303               	bcf	3,6	;RP1=0, select bank0
  1692  0AB2  141F               	bsf	31,0	;volatile
  1693  0AB3                     l98:	
  1694  0AB3  0008               	return
  1695  0AB4                     __end_of_ADC_Init:	
  1696                           
  1697                           	psect	text4
  1698  0B14                     __ptext4:	
  1699 ;; *************** function _temp_control_init *****************
  1700 ;; Defined at:
  1701 ;;		line 7 in file "temp_control.c"
  1702 ;; Parameters:    Size  Location     Type
  1703 ;;		None
  1704 ;; Auto vars:     Size  Location     Type
  1705 ;;		None
  1706 ;; Return value:  Size  Location     Type
  1707 ;;                  1    wreg      void 
  1708 ;; Registers used:
  1709 ;;		wreg, status,2, status,0
  1710 ;; Tracked objects:
  1711 ;;		On entry : 0/0
  1712 ;;		On exit  : 0/0
  1713 ;;		Unchanged: 0/0
  1714 ;; Data sizes:     COMMON   BANK0   BANK1   BANK3   BANK2
  1715 ;;      Params:         0       0       0       0       0
  1716 ;;      Locals:         0       0       0       0       0
  1717 ;;      Temps:          0       0       1       0       0
  1718 ;;      Totals:         0       0       1       0       0
  1719 ;;Total ram usage:        1 bytes
  1720 ;; Hardware stack levels used:    1
  1721 ;; Hardware stack levels required when called:    5
  1722 ;; This function calls:
  1723 ;;		Nothing
  1724 ;; This function is called by:
  1725 ;;		_main
  1726 ;; This function uses a non-reentrant model
  1727 ;;
  1728                           
  1729                           
  1730                           ;psect for function _temp_control_init
  1731  0B14                     _temp_control_init:	
  1732  0B14                     l3062:	
  1733                           ;incstack = 0
  1734                           ; Regs used in _temp_control_init: [wreg+status,2+status,0]
  1735                           
  1736                           
  1737                           ;temp_control.c: 9:      (TRISC &= ~(1 << 5));
  1738  0B14  30DF               	movlw	223
  1739  0B15  1683               	bsf	3,5	;RP0=1, select bank1
  1740  0B16  1303               	bcf	3,6	;RP1=0, select bank1
  1741  0B17  00A0               	movwf	??_temp_control_init^(0+128)
  1742  0B18  0820               	movf	??_temp_control_init^(0+128),w
  1743  0B19  0587               	andwf	7,f	;volatile
  1744                           
  1745                           ;temp_control.c: 10:      (PORTC &= ~(1 << 5));
  1746  0B1A  30DF               	movlw	223
  1747  0B1B  00A0               	movwf	??_temp_control_init^(0+128)
  1748  0B1C  0820               	movf	??_temp_control_init^(0+128),w
  1749  0B1D  1283               	bcf	3,5	;RP0=0, select bank0
  1750  0B1E  1303               	bcf	3,6	;RP1=0, select bank0
  1751  0B1F  0587               	andwf	7,f	;volatile
  1752                           
  1753                           ;temp_control.c: 13:      (TRISC &= ~(1 << 2));
  1754  0B20  30FB               	movlw	251
  1755  0B21  1683               	bsf	3,5	;RP0=1, select bank1
  1756  0B22  1303               	bcf	3,6	;RP1=0, select bank1
  1757  0B23  00A0               	movwf	??_temp_control_init^(0+128)
  1758  0B24  0820               	movf	??_temp_control_init^(0+128),w
  1759  0B25  0587               	andwf	7,f	;volatile
  1760                           
  1761                           ;temp_control.c: 14:      (PORTC &= ~(1 << 2));
  1762  0B26  30FB               	movlw	251
  1763  0B27  00A0               	movwf	??_temp_control_init^(0+128)
  1764  0B28  0820               	movf	??_temp_control_init^(0+128),w
  1765  0B29  1283               	bcf	3,5	;RP0=0, select bank0
  1766  0B2A  1303               	bcf	3,6	;RP1=0, select bank0
  1767  0B2B  0587               	andwf	7,f	;volatile
  1768                           
  1769                           ;temp_control.c: 17:      (TRISB &= ~(1 << 4));
  1770  0B2C  30EF               	movlw	239
  1771  0B2D  1683               	bsf	3,5	;RP0=1, select bank1
  1772  0B2E  1303               	bcf	3,6	;RP1=0, select bank1
  1773  0B2F  00A0               	movwf	??_temp_control_init^(0+128)
  1774  0B30  0820               	movf	??_temp_control_init^(0+128),w
  1775  0B31  0586               	andwf	6,f	;volatile
  1776                           
  1777                           ;temp_control.c: 18:      (PORTB &= ~(1 << 4));
  1778  0B32  30EF               	movlw	239
  1779  0B33  00A0               	movwf	??_temp_control_init^(0+128)
  1780  0B34  0820               	movf	??_temp_control_init^(0+128),w
  1781  0B35  1283               	bcf	3,5	;RP0=0, select bank0
  1782  0B36  1303               	bcf	3,6	;RP1=0, select bank0
  1783  0B37  0586               	andwf	6,f	;volatile
  1784  0B38                     l297:	
  1785  0B38  0008               	return
  1786  0B39                     __end_of_temp_control_init:	
  1787                           
  1788                           	psect	text5
  1789  09CC                     __ptext5:	
  1790 ;; *************** function _switch_init *****************
  1791 ;; Defined at:
  1792 ;;		line 12 in file "switchs.c"
  1793 ;; Parameters:    Size  Location     Type
  1794 ;;		None
  1795 ;; Auto vars:     Size  Location     Type
  1796 ;;		None
  1797 ;; Return value:  Size  Location     Type
  1798 ;;                  1    wreg      void 
  1799 ;; Registers used:
  1800 ;;		None
  1801 ;; Tracked objects:
  1802 ;;		On entry : 0/0
  1803 ;;		On exit  : 0/0
  1804 ;;		Unchanged: 0/0
  1805 ;; Data sizes:     COMMON   BANK0   BANK1   BANK3   BANK2
  1806 ;;      Params:         0       0       0       0       0
  1807 ;;      Locals:         0       0       0       0       0
  1808 ;;      Temps:          0       0       0       0       0
  1809 ;;      Totals:         0       0       0       0       0
  1810 ;;Total ram usage:        0 bytes
  1811 ;; Hardware stack levels used:    1
  1812 ;; Hardware stack levels required when called:    5
  1813 ;; This function calls:
  1814 ;;		Nothing
  1815 ;; This function is called by:
  1816 ;;		_main
  1817 ;; This function uses a non-reentrant model
  1818 ;;
  1819                           
  1820                           
  1821                           ;psect for function _switch_init
  1822  09CC                     _switch_init:	
  1823  09CC                     l3064:	
  1824                           ;incstack = 0
  1825                           ; Regs used in _switch_init: []
  1826                           
  1827                           
  1828                           ;switchs.c: 14:      (TRISB |= (1 << 2));
  1829  09CC  1683               	bsf	3,5	;RP0=1, select bank1
  1830  09CD  1303               	bcf	3,6	;RP1=0, select bank1
  1831  09CE  1506               	bsf	6,2	;volatile
  1832                           
  1833                           ;switchs.c: 15:      (TRISB |= (1 << 1));
  1834  09CF  1486               	bsf	6,1	;volatile
  1835                           
  1836                           ;switchs.c: 16:      (TRISB |= (1 << 0));
  1837  09D0  1406               	bsf	6,0	;volatile
  1838                           
  1839                           ;switchs.c: 17:      (INTCON |= (1 << 4));
  1840  09D1  160B               	bsf	11,4	;volatile
  1841  09D2                     l255:	
  1842  09D2  0008               	return
  1843  09D3                     __end_of_switch_init:	
  1844                           
  1845                           	psect	text6
  1846  0AD1                     __ptext6:	
  1847 ;; *************** function _ssd_init *****************
  1848 ;; Defined at:
  1849 ;;		line 10 in file "SSD.c"
  1850 ;; Parameters:    Size  Location     Type
  1851 ;;		None
  1852 ;; Auto vars:     Size  Location     Type
  1853 ;;		None
  1854 ;; Return value:  Size  Location     Type
  1855 ;;                  1    wreg      void 
  1856 ;; Registers used:
  1857 ;;		wreg, status,2, status,0
  1858 ;; Tracked objects:
  1859 ;;		On entry : 0/0
  1860 ;;		On exit  : 0/0
  1861 ;;		Unchanged: 0/0
  1862 ;; Data sizes:     COMMON   BANK0   BANK1   BANK3   BANK2
  1863 ;;      Params:         0       0       0       0       0
  1864 ;;      Locals:         0       0       0       0       0
  1865 ;;      Temps:          0       0       1       0       0
  1866 ;;      Totals:         0       0       1       0       0
  1867 ;;Total ram usage:        1 bytes
  1868 ;; Hardware stack levels used:    1
  1869 ;; Hardware stack levels required when called:    5
  1870 ;; This function calls:
  1871 ;;		Nothing
  1872 ;; This function is called by:
  1873 ;;		_main
  1874 ;; This function uses a non-reentrant model
  1875 ;;
  1876                           
  1877                           
  1878                           ;psect for function _ssd_init
  1879  0AD1                     _ssd_init:	
  1880  0AD1                     l3066:	
  1881                           ;incstack = 0
  1882                           ; Regs used in _ssd_init: [wreg+status,2+status,0]
  1883                           
  1884                           
  1885                           ;SSD.c: 13:      (TRISD &= ~(255 << 0));
  1886  0AD1  1683               	bsf	3,5	;RP0=1, select bank1
  1887  0AD2  1303               	bcf	3,6	;RP1=0, select bank1
  1888  0AD3  0188               	clrf	8	;volatile
  1889                           
  1890                           ;SSD.c: 14:      (PORTD &= ~(255 << 0));
  1891  0AD4  1283               	bcf	3,5	;RP0=0, select bank0
  1892  0AD5  1303               	bcf	3,6	;RP1=0, select bank0
  1893  0AD6  0188               	clrf	8	;volatile
  1894  0AD7                     l3068:	
  1895                           
  1896                           ;SSD.c: 17:      (TRISA &= ~(1 << 4));
  1897  0AD7  30EF               	movlw	239
  1898  0AD8  1683               	bsf	3,5	;RP0=1, select bank1
  1899  0AD9  1303               	bcf	3,6	;RP1=0, select bank1
  1900  0ADA  00A0               	movwf	??_ssd_init^(0+128)
  1901  0ADB  0820               	movf	??_ssd_init^(0+128),w
  1902  0ADC  0585               	andwf	5,f	;volatile
  1903  0ADD                     l3070:	
  1904                           
  1905                           ;SSD.c: 18:      (PORTA &= ~(1 << 4));
  1906  0ADD  30EF               	movlw	239
  1907  0ADE  00A0               	movwf	??_ssd_init^(0+128)
  1908  0ADF  0820               	movf	??_ssd_init^(0+128),w
  1909  0AE0  1283               	bcf	3,5	;RP0=0, select bank0
  1910  0AE1  1303               	bcf	3,6	;RP1=0, select bank0
  1911  0AE2  0585               	andwf	5,f	;volatile
  1912  0AE3                     l3072:	
  1913                           
  1914                           ;SSD.c: 19:      (TRISA &= ~(1 << 5));
  1915  0AE3  30DF               	movlw	223
  1916  0AE4  1683               	bsf	3,5	;RP0=1, select bank1
  1917  0AE5  1303               	bcf	3,6	;RP1=0, select bank1
  1918  0AE6  00A0               	movwf	??_ssd_init^(0+128)
  1919  0AE7  0820               	movf	??_ssd_init^(0+128),w
  1920  0AE8  0585               	andwf	5,f	;volatile
  1921  0AE9                     l3074:	
  1922                           
  1923                           ;SSD.c: 20:      (PORTA &= ~(1 << 5));
  1924  0AE9  30DF               	movlw	223
  1925  0AEA  00A0               	movwf	??_ssd_init^(0+128)
  1926  0AEB  0820               	movf	??_ssd_init^(0+128),w
  1927  0AEC  1283               	bcf	3,5	;RP0=0, select bank0
  1928  0AED  1303               	bcf	3,6	;RP1=0, select bank0
  1929  0AEE  0585               	andwf	5,f	;volatile
  1930  0AEF                     l184:	
  1931  0AEF  0008               	return
  1932  0AF0                     __end_of_ssd_init:	
  1933                           
  1934                           	psect	text7
  1935  0BB8                     __ptext7:	
  1936 ;; *************** function _EEPROM_read *****************
  1937 ;; Defined at:
  1938 ;;		line 14 in file "eeprom.c"
  1939 ;; Parameters:    Size  Location     Type
  1940 ;;  address         2    1[BANK1 ] unsigned int 
  1941 ;; Auto vars:     Size  Location     Type
  1942 ;;  _x              1    4[BANK1 ] unsigned char 
  1943 ;; Return value:  Size  Location     Type
  1944 ;;                  1    wreg      unsigned char 
  1945 ;; Registers used:
  1946 ;;		wreg, status,2, status,0, pclath, cstack
  1947 ;; Tracked objects:
  1948 ;;		On entry : 0/0
  1949 ;;		On exit  : 0/0
  1950 ;;		Unchanged: 0/0
  1951 ;; Data sizes:     COMMON   BANK0   BANK1   BANK3   BANK2
  1952 ;;      Params:         0       0       2       0       0
  1953 ;;      Locals:         0       0       1       0       0
  1954 ;;      Temps:          0       0       1       0       0
  1955 ;;      Totals:         0       0       4       0       0
  1956 ;;Total ram usage:        4 bytes
  1957 ;; Hardware stack levels used:    1
  1958 ;; Hardware stack levels required when called:    7
  1959 ;; This function calls:
  1960 ;;		_I2C1_Rd
  1961 ;;		_I2C1_Start
  1962 ;;		_I2C1_Stop
  1963 ;;		_I2C1_Wr
  1964 ;; This function is called by:
  1965 ;;		_main
  1966 ;; This function uses a non-reentrant model
  1967 ;;
  1968                           
  1969                           
  1970                           ;psect for function _EEPROM_read
  1971  0BB8                     _EEPROM_read:	
  1972  0BB8                     l3078:	
  1973                           ;incstack = 0
  1974                           ; Regs used in _EEPROM_read: [wreg+status,2+status,0+pclath+cstack]
  1975                           
  1976  0BB8                     l3080:	
  1977                           
  1978                           ;eeprom.c: 16:     I2C1_Start();
  1979  0BB8  120A  158A  21ED  120A  158A  	fcall	_I2C1_Start
  1980  0BBD                     l3082:	
  1981                           
  1982                           ;eeprom.c: 17:     I2C1_Wr(0XA2);
  1983  0BBD  30A2               	movlw	162
  1984  0BBE  120A  158A  226B  120A  158A  	fcall	_I2C1_Wr
  1985  0BC3                     l3084:	
  1986                           
  1987                           ;eeprom.c: 18:     I2C1_Wr(address);
  1988  0BC3  1683               	bsf	3,5	;RP0=1, select bank1
  1989  0BC4  1303               	bcf	3,6	;RP1=0, select bank1
  1990  0BC5  0821               	movf	EEPROM_read@address^(0+128),w
  1991  0BC6  120A  158A  226B  120A  158A  	fcall	_I2C1_Wr
  1992  0BCB                     l3086:	
  1993                           
  1994                           ;eeprom.c: 19:     I2C1_Start();
  1995  0BCB  120A  158A  21ED  120A  158A  	fcall	_I2C1_Start
  1996  0BD0                     l3088:	
  1997                           
  1998                           ;eeprom.c: 20:     I2C1_Wr(0XA3);
  1999  0BD0  30A3               	movlw	163
  2000  0BD1  120A  158A  226B  120A  158A  	fcall	_I2C1_Wr
  2001  0BD6                     l3090:	
  2002                           
  2003                           ;eeprom.c: 21:     _x = I2C1_Rd();
  2004  0BD6  120A  158A  222E  120A  158A  	fcall	_I2C1_Rd
  2005  0BDB  1683               	bsf	3,5	;RP0=1, select bank1
  2006  0BDC  1303               	bcf	3,6	;RP1=0, select bank1
  2007  0BDD  00A3               	movwf	??_EEPROM_read^(0+128)
  2008  0BDE  0823               	movf	??_EEPROM_read^(0+128),w
  2009  0BDF  00A4               	movwf	EEPROM_read@_x^(0+128)
  2010  0BE0                     l3092:	
  2011                           
  2012                           ;eeprom.c: 22:     I2C1_Stop();
  2013  0BE0  120A  158A  21F6  120A  158A  	fcall	_I2C1_Stop
  2014  0BE5                     l3094:	
  2015                           
  2016                           ;eeprom.c: 23:     return _x ;
  2017  0BE5  1683               	bsf	3,5	;RP0=1, select bank1
  2018  0BE6  1303               	bcf	3,6	;RP1=0, select bank1
  2019  0BE7  0824               	movf	EEPROM_read@_x^(0+128),w
  2020  0BE8                     l161:	
  2021  0BE8  0008               	return
  2022  0BE9                     __end_of_EEPROM_read:	
  2023                           
  2024                           	psect	text8
  2025  0A6B                     __ptext8:	
  2026 ;; *************** function _I2C1_Wr *****************
  2027 ;; Defined at:
  2028 ;;		line 25 in file "I2C_drive.c"
  2029 ;; Parameters:    Size  Location     Type
  2030 ;;  _data           1    wreg     unsigned char 
  2031 ;; Auto vars:     Size  Location     Type
  2032 ;;  _data           1    0[BANK1 ] unsigned char 
  2033 ;; Return value:  Size  Location     Type
  2034 ;;                  1    wreg      void 
  2035 ;; Registers used:
  2036 ;;		wreg, status,2, status,0, pclath, cstack
  2037 ;; Tracked objects:
  2038 ;;		On entry : 0/0
  2039 ;;		On exit  : 0/0
  2040 ;;		Unchanged: 0/0
  2041 ;; Data sizes:     COMMON   BANK0   BANK1   BANK3   BANK2
  2042 ;;      Params:         0       0       0       0       0
  2043 ;;      Locals:         0       0       1       0       0
  2044 ;;      Temps:          0       0       0       0       0
  2045 ;;      Totals:         0       0       1       0       0
  2046 ;;Total ram usage:        1 bytes
  2047 ;; Hardware stack levels used:    1
  2048 ;; Hardware stack levels required when called:    6
  2049 ;; This function calls:
  2050 ;;		_I2C_Wait
  2051 ;; This function is called by:
  2052 ;;		_EEPROM_read
  2053 ;; This function uses a non-reentrant model
  2054 ;;
  2055                           
  2056                           
  2057                           ;psect for function _I2C1_Wr
  2058  0A6B                     _I2C1_Wr:	
  2059                           
  2060                           ;incstack = 0
  2061                           ; Regs used in _I2C1_Wr: [wreg+status,2+status,0+pclath+cstack]
  2062                           ;I2C1_Wr@_data stored from wreg
  2063  0A6B  1683               	bsf	3,5	;RP0=1, select bank1
  2064  0A6C  1303               	bcf	3,6	;RP1=0, select bank1
  2065  0A6D  00A0               	movwf	I2C1_Wr@_data^(0+128)
  2066  0A6E                     l2522:	
  2067                           
  2068                           ;I2C_drive.c: 26:     I2C_Wait();
  2069  0A6E  120A  158A  2221  120A  158A  	fcall	_I2C_Wait
  2070  0A73                     l2524:	
  2071                           
  2072                           ;I2C_drive.c: 27:     SSPBUF = _data ;
  2073  0A73  1683               	bsf	3,5	;RP0=1, select bank1
  2074  0A74  1303               	bcf	3,6	;RP1=0, select bank1
  2075  0A75  0820               	movf	I2C1_Wr@_data^(0+128),w
  2076  0A76  1283               	bcf	3,5	;RP0=0, select bank0
  2077  0A77  1303               	bcf	3,6	;RP1=0, select bank0
  2078  0A78  0093               	movwf	19	;volatile
  2079  0A79                     l2526:	
  2080                           
  2081                           ;I2C_drive.c: 28:     I2C_Wait();
  2082  0A79  120A  158A  2221  120A  158A  	fcall	_I2C_Wait
  2083  0A7E                     l136:	
  2084  0A7E  0008               	return
  2085  0A7F                     __end_of_I2C1_Wr:	
  2086                           
  2087                           	psect	text9
  2088  09F6                     __ptext9:	
  2089 ;; *************** function _I2C1_Stop *****************
  2090 ;; Defined at:
  2091 ;;		line 20 in file "I2C_drive.c"
  2092 ;; Parameters:    Size  Location     Type
  2093 ;;		None
  2094 ;; Auto vars:     Size  Location     Type
  2095 ;;		None
  2096 ;; Return value:  Size  Location     Type
  2097 ;;                  1    wreg      void 
  2098 ;; Registers used:
  2099 ;;		wreg, status,2, status,0, pclath, cstack
  2100 ;; Tracked objects:
  2101 ;;		On entry : 0/0
  2102 ;;		On exit  : 0/0
  2103 ;;		Unchanged: 0/0
  2104 ;; Data sizes:     COMMON   BANK0   BANK1   BANK3   BANK2
  2105 ;;      Params:         0       0       0       0       0
  2106 ;;      Locals:         0       0       0       0       0
  2107 ;;      Temps:          0       0       0       0       0
  2108 ;;      Totals:         0       0       0       0       0
  2109 ;;Total ram usage:        0 bytes
  2110 ;; Hardware stack levels used:    1
  2111 ;; Hardware stack levels required when called:    6
  2112 ;; This function calls:
  2113 ;;		_I2C_Wait
  2114 ;; This function is called by:
  2115 ;;		_EEPROM_read
  2116 ;; This function uses a non-reentrant model
  2117 ;;
  2118                           
  2119                           
  2120                           ;psect for function _I2C1_Stop
  2121  09F6                     _I2C1_Stop:	
  2122  09F6                     l2518:	
  2123                           ;incstack = 0
  2124                           ; Regs used in _I2C1_Stop: [wreg+status,2+status,0+pclath+cstack]
  2125                           
  2126                           
  2127                           ;I2C_drive.c: 21:     I2C_Wait();
  2128  09F6  120A  158A  2221  120A  158A  	fcall	_I2C_Wait
  2129  09FB                     l2520:	
  2130                           
  2131                           ;I2C_drive.c: 22:     (SSPCON2 |= (1 << 2));
  2132  09FB  1683               	bsf	3,5	;RP0=1, select bank1
  2133  09FC  1303               	bcf	3,6	;RP1=0, select bank1
  2134  09FD  1511               	bsf	17,2	;volatile
  2135  09FE                     l133:	
  2136  09FE  0008               	return
  2137  09FF                     __end_of_I2C1_Stop:	
  2138                           
  2139                           	psect	text10
  2140  09ED                     __ptext10:	
  2141 ;; *************** function _I2C1_Start *****************
  2142 ;; Defined at:
  2143 ;;		line 15 in file "I2C_drive.c"
  2144 ;; Parameters:    Size  Location     Type
  2145 ;;		None
  2146 ;; Auto vars:     Size  Location     Type
  2147 ;;		None
  2148 ;; Return value:  Size  Location     Type
  2149 ;;                  1    wreg      void 
  2150 ;; Registers used:
  2151 ;;		wreg, status,2, status,0, pclath, cstack
  2152 ;; Tracked objects:
  2153 ;;		On entry : 0/0
  2154 ;;		On exit  : 0/0
  2155 ;;		Unchanged: 0/0
  2156 ;; Data sizes:     COMMON   BANK0   BANK1   BANK3   BANK2
  2157 ;;      Params:         0       0       0       0       0
  2158 ;;      Locals:         0       0       0       0       0
  2159 ;;      Temps:          0       0       0       0       0
  2160 ;;      Totals:         0       0       0       0       0
  2161 ;;Total ram usage:        0 bytes
  2162 ;; Hardware stack levels used:    1
  2163 ;; Hardware stack levels required when called:    6
  2164 ;; This function calls:
  2165 ;;		_I2C_Wait
  2166 ;; This function is called by:
  2167 ;;		_EEPROM_read
  2168 ;; This function uses a non-reentrant model
  2169 ;;
  2170                           
  2171                           
  2172                           ;psect for function _I2C1_Start
  2173  09ED                     _I2C1_Start:	
  2174  09ED                     l2514:	
  2175                           ;incstack = 0
  2176                           ; Regs used in _I2C1_Start: [wreg+status,2+status,0+pclath+cstack]
  2177                           
  2178                           
  2179                           ;I2C_drive.c: 16:     I2C_Wait();
  2180  09ED  120A  158A  2221  120A  158A  	fcall	_I2C_Wait
  2181  09F2                     l2516:	
  2182                           
  2183                           ;I2C_drive.c: 17:     (SSPCON2 |= (1 << 0));
  2184  09F2  1683               	bsf	3,5	;RP0=1, select bank1
  2185  09F3  1303               	bcf	3,6	;RP1=0, select bank1
  2186  09F4  1411               	bsf	17,0	;volatile
  2187  09F5                     l130:	
  2188  09F5  0008               	return
  2189  09F6                     __end_of_I2C1_Start:	
  2190                           
  2191                           	psect	text11
  2192  0A21                     __ptext11:	
  2193 ;; *************** function _I2C_Wait *****************
  2194 ;; Defined at:
  2195 ;;		line 3 in file "I2C_drive.c"
  2196 ;; Parameters:    Size  Location     Type
  2197 ;;		None
  2198 ;; Auto vars:     Size  Location     Type
  2199 ;;		None
  2200 ;; Return value:  Size  Location     Type
  2201 ;;                  1    wreg      void 
  2202 ;; Registers used:
  2203 ;;		wreg, status,2
  2204 ;; Tracked objects:
  2205 ;;		On entry : 0/0
  2206 ;;		On exit  : 0/0
  2207 ;;		Unchanged: 0/0
  2208 ;; Data sizes:     COMMON   BANK0   BANK1   BANK3   BANK2
  2209 ;;      Params:         0       0       0       0       0
  2210 ;;      Locals:         0       0       0       0       0
  2211 ;;      Temps:          0       0       0       0       0
  2212 ;;      Totals:         0       0       0       0       0
  2213 ;;Total ram usage:        0 bytes
  2214 ;; Hardware stack levels used:    1
  2215 ;; Hardware stack levels required when called:    5
  2216 ;; This function calls:
  2217 ;;		Nothing
  2218 ;; This function is called by:
  2219 ;;		_I2C1_Start
  2220 ;;		_I2C1_Stop
  2221 ;;		_I2C1_Wr
  2222 ;; This function uses a non-reentrant model
  2223 ;;
  2224                           
  2225                           
  2226                           ;psect for function _I2C_Wait
  2227  0A21                     _I2C_Wait:	
  2228  0A21                     l2158:	
  2229                           ;incstack = 0
  2230                           ; Regs used in _I2C_Wait: [wreg+status,2]
  2231                           
  2232  0A21                     l121:	
  2233                           ;I2C_drive.c: 4:   while ((SSPSTAT & 0x04) || (SSPCON2 & 0x1F));
  2234                           
  2235  0A21  1683               	bsf	3,5	;RP0=1, select bank1
  2236  0A22  1303               	bcf	3,6	;RP1=0, select bank1
  2237  0A23  1914               	btfsc	20,2	;volatile
  2238  0A24  2A26               	goto	u1621
  2239  0A25  2A27               	goto	u1620
  2240  0A26                     u1621:	
  2241  0A26  2A21               	goto	l121
  2242  0A27                     u1620:	
  2243  0A27                     l2160:	
  2244  0A27  0811               	movf	17,w	;volatile
  2245  0A28  391F               	andlw	31
  2246  0A29  1D03               	btfss	3,2
  2247  0A2A  2A2C               	goto	u1631
  2248  0A2B  2A2D               	goto	u1630
  2249  0A2C                     u1631:	
  2250  0A2C  2A21               	goto	l121
  2251  0A2D                     u1630:	
  2252  0A2D                     l124:	
  2253  0A2D  0008               	return
  2254  0A2E                     __end_of_I2C_Wait:	
  2255                           
  2256                           	psect	text12
  2257  0A2E                     __ptext12:	
  2258 ;; *************** function _I2C1_Rd *****************
  2259 ;; Defined at:
  2260 ;;		line 31 in file "I2C_drive.c"
  2261 ;; Parameters:    Size  Location     Type
  2262 ;;		None
  2263 ;; Auto vars:     Size  Location     Type
  2264 ;;		None
  2265 ;; Return value:  Size  Location     Type
  2266 ;;                  1    wreg      unsigned char 
  2267 ;; Registers used:
  2268 ;;		wreg
  2269 ;; Tracked objects:
  2270 ;;		On entry : 0/0
  2271 ;;		On exit  : 0/0
  2272 ;;		Unchanged: 0/0
  2273 ;; Data sizes:     COMMON   BANK0   BANK1   BANK3   BANK2
  2274 ;;      Params:         0       0       0       0       0
  2275 ;;      Locals:         0       0       0       0       0
  2276 ;;      Temps:          0       0       0       0       0
  2277 ;;      Totals:         0       0       0       0       0
  2278 ;;Total ram usage:        0 bytes
  2279 ;; Hardware stack levels used:    1
  2280 ;; Hardware stack levels required when called:    5
  2281 ;; This function calls:
  2282 ;;		Nothing
  2283 ;; This function is called by:
  2284 ;;		_EEPROM_read
  2285 ;; This function uses a non-reentrant model
  2286 ;;
  2287                           
  2288                           
  2289                           ;psect for function _I2C1_Rd
  2290  0A2E                     _I2C1_Rd:	
  2291  0A2E                     l2528:	
  2292                           ;incstack = 0
  2293                           ; Regs used in _I2C1_Rd: [wreg]
  2294                           
  2295                           
  2296                           ;I2C_drive.c: 32:     SSPIF = 0;
  2297  0A2E  1283               	bcf	3,5	;RP0=0, select bank0
  2298  0A2F  1303               	bcf	3,6	;RP1=0, select bank0
  2299  0A30  118C               	bcf	12,3	;volatile
  2300                           
  2301                           ;I2C_drive.c: 33:     (SSPCON2 |= (1 << 3));
  2302  0A31  1683               	bsf	3,5	;RP0=1, select bank1
  2303  0A32  1303               	bcf	3,6	;RP1=0, select bank1
  2304  0A33  1591               	bsf	17,3	;volatile
  2305  0A34                     l139:	
  2306                           ;I2C_drive.c: 34:     while(!SSPIF);
  2307                           
  2308  0A34  1283               	bcf	3,5	;RP0=0, select bank0
  2309  0A35  1D8C               	btfss	12,3	;volatile
  2310  0A36  2A38               	goto	u2071
  2311  0A37  2A39               	goto	u2070
  2312  0A38                     u2071:	
  2313  0A38  2A34               	goto	l139
  2314  0A39                     u2070:	
  2315  0A39                     l141:	
  2316                           
  2317                           ;I2C_drive.c: 35:     SSPIF = 0;
  2318  0A39  118C               	bcf	12,3	;volatile
  2319  0A3A                     l2530:	
  2320                           
  2321                           ;I2C_drive.c: 36:     return SSPBUF;
  2322  0A3A  0813               	movf	19,w	;volatile
  2323  0A3B                     l142:	
  2324  0A3B  0008               	return
  2325  0A3C                     __end_of_I2C1_Rd:	
  2326                           
  2327                           	psect	text13
  2328  0A5B                     __ptext13:	
  2329 ;; *************** function _EEPROM_init *****************
  2330 ;; Defined at:
  2331 ;;		line 3 in file "eeprom.c"
  2332 ;; Parameters:    Size  Location     Type
  2333 ;;		None
  2334 ;; Auto vars:     Size  Location     Type
  2335 ;;		None
  2336 ;; Return value:  Size  Location     Type
  2337 ;;                  1    wreg      void 
  2338 ;; Registers used:
  2339 ;;		wreg, status,2, status,0, pclath, cstack
  2340 ;; Tracked objects:
  2341 ;;		On entry : 0/0
  2342 ;;		On exit  : 0/0
  2343 ;;		Unchanged: 0/0
  2344 ;; Data sizes:     COMMON   BANK0   BANK1   BANK3   BANK2
  2345 ;;      Params:         0       0       0       0       0
  2346 ;;      Locals:         0       0       0       0       0
  2347 ;;      Temps:          0       0       0       0       0
  2348 ;;      Totals:         0       0       0       0       0
  2349 ;;Total ram usage:        0 bytes
  2350 ;; Hardware stack levels used:    1
  2351 ;; Hardware stack levels required when called:    7
  2352 ;; This function calls:
  2353 ;;		_I2C1_Init
  2354 ;; This function is called by:
  2355 ;;		_main
  2356 ;; This function uses a non-reentrant model
  2357 ;;
  2358                           
  2359                           
  2360                           ;psect for function _EEPROM_init
  2361  0A5B                     _EEPROM_init:	
  2362  0A5B                     l3076:	
  2363                           ;incstack = 0
  2364                           ; Regs used in _EEPROM_init: [wreg+status,2+status,0+pclath+cstack]
  2365                           
  2366                           
  2367                           ;eeprom.c: 4:      I2C1_Init(100000);
  2368  0A5B  3000               	movlw	0
  2369  0A5C  1683               	bsf	3,5	;RP0=1, select bank1
  2370  0A5D  1303               	bcf	3,6	;RP1=0, select bank1
  2371  0A5E  00B2               	movwf	(I2C1_Init@freq+3)^(0+128)
  2372  0A5F  3001               	movlw	1
  2373  0A60  00B1               	movwf	(I2C1_Init@freq+2)^(0+128)
  2374  0A61  3086               	movlw	134
  2375  0A62  00B0               	movwf	(I2C1_Init@freq+1)^(0+128)
  2376  0A63  30A0               	movlw	160
  2377  0A64  00AF               	movwf	I2C1_Init@freq^(0+128)
  2378  0A65  120A  158A  241D  120A  158A  	fcall	_I2C1_Init
  2379  0A6A                     l155:	
  2380  0A6A  0008               	return
  2381  0A6B                     __end_of_EEPROM_init:	
  2382                           
  2383                           	psect	text14
  2384  0C1D                     __ptext14:	
  2385 ;; *************** function _I2C1_Init *****************
  2386 ;; Defined at:
  2387 ;;		line 7 in file "I2C_drive.c"
  2388 ;; Parameters:    Size  Location     Type
  2389 ;;  freq            4   15[BANK1 ] long 
  2390 ;; Auto vars:     Size  Location     Type
  2391 ;;		None
  2392 ;; Return value:  Size  Location     Type
  2393 ;;                  1    wreg      void 
  2394 ;; Registers used:
  2395 ;;		wreg, status,2, status,0, pclath, cstack
  2396 ;; Tracked objects:
  2397 ;;		On entry : 0/0
  2398 ;;		On exit  : 0/0
  2399 ;;		Unchanged: 0/0
  2400 ;; Data sizes:     COMMON   BANK0   BANK1   BANK3   BANK2
  2401 ;;      Params:         0       0       4       0       0
  2402 ;;      Locals:         0       0       0       0       0
  2403 ;;      Temps:          0       0       4       0       0
  2404 ;;      Totals:         0       0       8       0       0
  2405 ;;Total ram usage:        8 bytes
  2406 ;; Hardware stack levels used:    1
  2407 ;; Hardware stack levels required when called:    6
  2408 ;; This function calls:
  2409 ;;		___aldiv
  2410 ;; This function is called by:
  2411 ;;		_EEPROM_init
  2412 ;; This function uses a non-reentrant model
  2413 ;;
  2414                           
  2415                           
  2416                           ;psect for function _I2C1_Init
  2417  0C1D                     _I2C1_Init:	
  2418  0C1D                     l2506:	
  2419                           ;incstack = 0
  2420                           ; Regs used in _I2C1_Init: [wreg+status,2+status,0+pclath+cstack]
  2421                           
  2422                           
  2423                           ;I2C_drive.c: 8:     (SSPCON |= (1 << 5));
  2424  0C1D  1283               	bcf	3,5	;RP0=0, select bank0
  2425  0C1E  1303               	bcf	3,6	;RP1=0, select bank0
  2426  0C1F  1694               	bsf	20,5	;volatile
  2427                           
  2428                           ;I2C_drive.c: 9:     (SSPCON |= (1 << 3));
  2429  0C20  1594               	bsf	20,3	;volatile
  2430  0C21                     l2508:	
  2431                           
  2432                           ;I2C_drive.c: 10:     SSPADD = (8000000 / (freq * 4) ) - 1 ;
  2433  0C21  1683               	bsf	3,5	;RP0=1, select bank1
  2434  0C22  1303               	bcf	3,6	;RP1=0, select bank1
  2435  0C23  082F               	movf	I2C1_Init@freq^(0+128),w
  2436  0C24  00B3               	movwf	??_I2C1_Init^(0+128)
  2437  0C25  0830               	movf	(I2C1_Init@freq+1)^(0+128),w
  2438  0C26  00B4               	movwf	(??_I2C1_Init^(0+128)+1)
  2439  0C27  0831               	movf	(I2C1_Init@freq+2)^(0+128),w
  2440  0C28  00B5               	movwf	(??_I2C1_Init^(0+128)+2)
  2441  0C29  0832               	movf	(I2C1_Init@freq+3)^(0+128),w
  2442  0C2A  00B6               	movwf	(??_I2C1_Init^(0+128)+3)
  2443  0C2B  3002               	movlw	2
  2444  0C2C                     u2065:	
  2445  0C2C  1003               	clrc
  2446  0C2D  0DB3               	rlf	??_I2C1_Init^(0+128),f
  2447  0C2E  0DB4               	rlf	(??_I2C1_Init^(0+128)+1),f
  2448  0C2F  0DB5               	rlf	(??_I2C1_Init^(0+128)+2),f
  2449  0C30  0DB6               	rlf	(??_I2C1_Init^(0+128)+3),f
  2450  0C31                     u2060:	
  2451  0C31  3EFF               	addlw	-1
  2452  0C32  1D03               	skipz
  2453  0C33  2C2C               	goto	u2065
  2454  0C34  0836               	movf	(??_I2C1_Init+3)^(0+128),w
  2455  0C35  00A3               	movwf	(___aldiv@divisor+3)^(0+128)
  2456  0C36  0835               	movf	(??_I2C1_Init+2)^(0+128),w
  2457  0C37  00A2               	movwf	(___aldiv@divisor+2)^(0+128)
  2458  0C38  0834               	movf	(??_I2C1_Init+1)^(0+128),w
  2459  0C39  00A1               	movwf	(___aldiv@divisor+1)^(0+128)
  2460  0C3A  0833               	movf	??_I2C1_Init^(0+128),w
  2461  0C3B  00A0               	movwf	___aldiv@divisor^(0+128)
  2462  0C3C  3000               	movlw	0
  2463  0C3D  00A7               	movwf	(___aldiv@dividend+3)^(0+128)
  2464  0C3E  307A               	movlw	122
  2465  0C3F  00A6               	movwf	(___aldiv@dividend+2)^(0+128)
  2466  0C40  3012               	movlw	18
  2467  0C41  00A5               	movwf	(___aldiv@dividend+1)^(0+128)
  2468  0C42  3000               	movlw	0
  2469  0C43  00A4               	movwf	___aldiv@dividend^(0+128)
  2470  0C44  120A  118A  26F2  120A  158A  	fcall	___aldiv
  2471  0C49  1683               	bsf	3,5	;RP0=1, select bank1
  2472  0C4A  1303               	bcf	3,6	;RP1=0, select bank1
  2473  0C4B  0820               	movf	?___aldiv^(0+128),w
  2474  0C4C  3EFF               	addlw	255
  2475  0C4D  0093               	movwf	19	;volatile
  2476  0C4E                     l2510:	
  2477                           
  2478                           ;I2C_drive.c: 11:     TRISC |= (1 << 3);
  2479  0C4E  1587               	bsf	7,3	;volatile
  2480  0C4F                     l2512:	
  2481                           
  2482                           ;I2C_drive.c: 12:     TRISC |= (1 << 4);
  2483  0C4F  1607               	bsf	7,4	;volatile
  2484  0C50                     l127:	
  2485  0C50  0008               	return
  2486  0C51                     __end_of_I2C1_Init:	
  2487                           
  2488                           	psect	text15
  2489  06F2                     __ptext15:	
  2490 ;; *************** function ___aldiv *****************
  2491 ;; Defined at:
  2492 ;;		line 5 in file "C:\Program Files (x86)\Microchip\xc8\v2.10\pic\sources\c90\common\aldiv.c"
  2493 ;; Parameters:    Size  Location     Type
  2494 ;;  divisor         4    0[BANK1 ] long 
  2495 ;;  dividend        4    4[BANK1 ] long 
  2496 ;; Auto vars:     Size  Location     Type
  2497 ;;  quotient        4   11[BANK1 ] long 
  2498 ;;  sign            1   10[BANK1 ] unsigned char 
  2499 ;;  counter         1    9[BANK1 ] unsigned char 
  2500 ;; Return value:  Size  Location     Type
  2501 ;;                  4    0[BANK1 ] long 
  2502 ;; Registers used:
  2503 ;;		wreg, status,2, status,0
  2504 ;; Tracked objects:
  2505 ;;		On entry : 0/0
  2506 ;;		On exit  : 0/0
  2507 ;;		Unchanged: 0/0
  2508 ;; Data sizes:     COMMON   BANK0   BANK1   BANK3   BANK2
  2509 ;;      Params:         0       0       8       0       0
  2510 ;;      Locals:         0       0       6       0       0
  2511 ;;      Temps:          0       0       1       0       0
  2512 ;;      Totals:         0       0      15       0       0
  2513 ;;Total ram usage:       15 bytes
  2514 ;; Hardware stack levels used:    1
  2515 ;; Hardware stack levels required when called:    5
  2516 ;; This function calls:
  2517 ;;		Nothing
  2518 ;; This function is called by:
  2519 ;;		_I2C1_Init
  2520 ;; This function uses a non-reentrant model
  2521 ;;
  2522                           
  2523                           
  2524                           ;psect for function ___aldiv
  2525  06F2                     ___aldiv:	
  2526  06F2                     l2274:	
  2527                           ;incstack = 0
  2528                           ; Regs used in ___aldiv: [wreg+status,2+status,0]
  2529                           
  2530  06F2  1683               	bsf	3,5	;RP0=1, select bank1
  2531  06F3  1303               	bcf	3,6	;RP1=0, select bank1
  2532  06F4  01AA               	clrf	___aldiv@sign^(0+128)
  2533  06F5                     l2276:	
  2534  06F5  1FA3               	btfss	(___aldiv@divisor+3)^(0+128),7
  2535  06F6  2EF8               	goto	u1641
  2536  06F7  2EF9               	goto	u1640
  2537  06F8                     u1641:	
  2538  06F8  2F06               	goto	l515
  2539  06F9                     u1640:	
  2540  06F9                     l2278:	
  2541  06F9  09A0               	comf	___aldiv@divisor^(0+128),f
  2542  06FA  09A1               	comf	(___aldiv@divisor+1)^(0+128),f
  2543  06FB  09A2               	comf	(___aldiv@divisor+2)^(0+128),f
  2544  06FC  09A3               	comf	(___aldiv@divisor+3)^(0+128),f
  2545  06FD  0AA0               	incf	___aldiv@divisor^(0+128),f
  2546  06FE  1903               	skipnz
  2547  06FF  0AA1               	incf	(___aldiv@divisor+1)^(0+128),f
  2548  0700  1903               	skipnz
  2549  0701  0AA2               	incf	(___aldiv@divisor+2)^(0+128),f
  2550  0702  1903               	skipnz
  2551  0703  0AA3               	incf	(___aldiv@divisor+3)^(0+128),f
  2552  0704  01AA               	clrf	___aldiv@sign^(0+128)
  2553  0705  0AAA               	incf	___aldiv@sign^(0+128),f
  2554  0706                     l515:	
  2555  0706  1FA7               	btfss	(___aldiv@dividend+3)^(0+128),7
  2556  0707  2F09               	goto	u1651
  2557  0708  2F0A               	goto	u1650
  2558  0709                     u1651:	
  2559  0709  2F19               	goto	l2284
  2560  070A                     u1650:	
  2561  070A                     l2280:	
  2562  070A  09A4               	comf	___aldiv@dividend^(0+128),f
  2563  070B  09A5               	comf	(___aldiv@dividend+1)^(0+128),f
  2564  070C  09A6               	comf	(___aldiv@dividend+2)^(0+128),f
  2565  070D  09A7               	comf	(___aldiv@dividend+3)^(0+128),f
  2566  070E  0AA4               	incf	___aldiv@dividend^(0+128),f
  2567  070F  1903               	skipnz
  2568  0710  0AA5               	incf	(___aldiv@dividend+1)^(0+128),f
  2569  0711  1903               	skipnz
  2570  0712  0AA6               	incf	(___aldiv@dividend+2)^(0+128),f
  2571  0713  1903               	skipnz
  2572  0714  0AA7               	incf	(___aldiv@dividend+3)^(0+128),f
  2573  0715                     l2282:	
  2574  0715  3001               	movlw	1
  2575  0716  00A8               	movwf	??___aldiv^(0+128)
  2576  0717  0828               	movf	??___aldiv^(0+128),w
  2577  0718  06AA               	xorwf	___aldiv@sign^(0+128),f
  2578  0719                     l2284:	
  2579  0719  3000               	movlw	0
  2580  071A  00AE               	movwf	(___aldiv@quotient+3)^(0+128)
  2581  071B  3000               	movlw	0
  2582  071C  00AD               	movwf	(___aldiv@quotient+2)^(0+128)
  2583  071D  3000               	movlw	0
  2584  071E  00AC               	movwf	(___aldiv@quotient+1)^(0+128)
  2585  071F  3000               	movlw	0
  2586  0720  00AB               	movwf	___aldiv@quotient^(0+128)
  2587  0721                     l2286:	
  2588  0721  0823               	movf	(___aldiv@divisor+3)^(0+128),w
  2589  0722  0422               	iorwf	(___aldiv@divisor+2)^(0+128),w
  2590  0723  0421               	iorwf	(___aldiv@divisor+1)^(0+128),w
  2591  0724  0420               	iorwf	___aldiv@divisor^(0+128),w
  2592  0725  1903               	skipnz
  2593  0726  2F28               	goto	u1661
  2594  0727  2F29               	goto	u1660
  2595  0728                     u1661:	
  2596  0728  2F76               	goto	l2306
  2597  0729                     u1660:	
  2598  0729                     l2288:	
  2599  0729  01A9               	clrf	___aldiv@counter^(0+128)
  2600  072A  0AA9               	incf	___aldiv@counter^(0+128),f
  2601  072B  2F39               	goto	l2292
  2602  072C                     l2290:	
  2603  072C  3001               	movlw	1
  2604  072D  00A8               	movwf	??___aldiv^(0+128)
  2605  072E                     u1675:	
  2606  072E  1003               	clrc
  2607  072F  0DA0               	rlf	___aldiv@divisor^(0+128),f
  2608  0730  0DA1               	rlf	(___aldiv@divisor+1)^(0+128),f
  2609  0731  0DA2               	rlf	(___aldiv@divisor+2)^(0+128),f
  2610  0732  0DA3               	rlf	(___aldiv@divisor+3)^(0+128),f
  2611  0733  0BA8               	decfsz	??___aldiv^(0+128),f
  2612  0734  2F2E               	goto	u1675
  2613  0735  3001               	movlw	1
  2614  0736  00A8               	movwf	??___aldiv^(0+128)
  2615  0737  0828               	movf	??___aldiv^(0+128),w
  2616  0738  07A9               	addwf	___aldiv@counter^(0+128),f
  2617  0739                     l2292:	
  2618  0739  1FA3               	btfss	(___aldiv@divisor+3)^(0+128),7
  2619  073A  2F3C               	goto	u1681
  2620  073B  2F3D               	goto	u1680
  2621  073C                     u1681:	
  2622  073C  2F2C               	goto	l2290
  2623  073D                     u1680:	
  2624  073D                     l2294:	
  2625  073D  3001               	movlw	1
  2626  073E  00A8               	movwf	??___aldiv^(0+128)
  2627  073F                     u1695:	
  2628  073F  1003               	clrc
  2629  0740  0DAB               	rlf	___aldiv@quotient^(0+128),f
  2630  0741  0DAC               	rlf	(___aldiv@quotient+1)^(0+128),f
  2631  0742  0DAD               	rlf	(___aldiv@quotient+2)^(0+128),f
  2632  0743  0DAE               	rlf	(___aldiv@quotient+3)^(0+128),f
  2633  0744  0BA8               	decfsz	??___aldiv^(0+128),f
  2634  0745  2F3F               	goto	u1695
  2635  0746                     l2296:	
  2636  0746  0823               	movf	(___aldiv@divisor+3)^(0+128),w
  2637  0747  0227               	subwf	(___aldiv@dividend+3)^(0+128),w
  2638  0748  1D03               	skipz
  2639  0749  2F54               	goto	u1705
  2640  074A  0822               	movf	(___aldiv@divisor+2)^(0+128),w
  2641  074B  0226               	subwf	(___aldiv@dividend+2)^(0+128),w
  2642  074C  1D03               	skipz
  2643  074D  2F54               	goto	u1705
  2644  074E  0821               	movf	(___aldiv@divisor+1)^(0+128),w
  2645  074F  0225               	subwf	(___aldiv@dividend+1)^(0+128),w
  2646  0750  1D03               	skipz
  2647  0751  2F54               	goto	u1705
  2648  0752  0820               	movf	___aldiv@divisor^(0+128),w
  2649  0753  0224               	subwf	___aldiv@dividend^(0+128),w
  2650  0754                     u1705:	
  2651  0754  1C03               	skipc
  2652  0755  2F57               	goto	u1701
  2653  0756  2F58               	goto	u1700
  2654  0757                     u1701:	
  2655  0757  2F67               	goto	l2302
  2656  0758                     u1700:	
  2657  0758                     l2298:	
  2658  0758  0820               	movf	___aldiv@divisor^(0+128),w
  2659  0759  02A4               	subwf	___aldiv@dividend^(0+128),f
  2660  075A  0821               	movf	(___aldiv@divisor+1)^(0+128),w
  2661  075B  1C03               	skipc
  2662  075C  0F21               	incfsz	(___aldiv@divisor+1)^(0+128),w
  2663  075D  02A5               	subwf	(___aldiv@dividend+1)^(0+128),f
  2664  075E  0822               	movf	(___aldiv@divisor+2)^(0+128),w
  2665  075F  1C03               	skipc
  2666  0760  0F22               	incfsz	(___aldiv@divisor+2)^(0+128),w
  2667  0761  02A6               	subwf	(___aldiv@dividend+2)^(0+128),f
  2668  0762  0823               	movf	(___aldiv@divisor+3)^(0+128),w
  2669  0763  1C03               	skipc
  2670  0764  0F23               	incfsz	(___aldiv@divisor+3)^(0+128),w
  2671  0765  02A7               	subwf	(___aldiv@dividend+3)^(0+128),f
  2672  0766                     l2300:	
  2673  0766  142B               	bsf	___aldiv@quotient^(0+128),0
  2674  0767                     l2302:	
  2675  0767  3001               	movlw	1
  2676  0768                     u1715:	
  2677  0768  1003               	clrc
  2678  0769  0CA3               	rrf	(___aldiv@divisor+3)^(0+128),f
  2679  076A  0CA2               	rrf	(___aldiv@divisor+2)^(0+128),f
  2680  076B  0CA1               	rrf	(___aldiv@divisor+1)^(0+128),f
  2681  076C  0CA0               	rrf	___aldiv@divisor^(0+128),f
  2682  076D  3EFF               	addlw	-1
  2683  076E  1D03               	skipz
  2684  076F  2F68               	goto	u1715
  2685  0770                     l2304:	
  2686  0770  3001               	movlw	1
  2687  0771  02A9               	subwf	___aldiv@counter^(0+128),f
  2688  0772  1D03               	btfss	3,2
  2689  0773  2F75               	goto	u1721
  2690  0774  2F76               	goto	u1720
  2691  0775                     u1721:	
  2692  0775  2F3D               	goto	l2294
  2693  0776                     u1720:	
  2694  0776                     l2306:	
  2695  0776  082A               	movf	___aldiv@sign^(0+128),w
  2696  0777  1903               	btfsc	3,2
  2697  0778  2F7A               	goto	u1731
  2698  0779  2F7B               	goto	u1730
  2699  077A                     u1731:	
  2700  077A  2F86               	goto	l2310
  2701  077B                     u1730:	
  2702  077B                     l2308:	
  2703  077B  09AB               	comf	___aldiv@quotient^(0+128),f
  2704  077C  09AC               	comf	(___aldiv@quotient+1)^(0+128),f
  2705  077D  09AD               	comf	(___aldiv@quotient+2)^(0+128),f
  2706  077E  09AE               	comf	(___aldiv@quotient+3)^(0+128),f
  2707  077F  0AAB               	incf	___aldiv@quotient^(0+128),f
  2708  0780  1903               	skipnz
  2709  0781  0AAC               	incf	(___aldiv@quotient+1)^(0+128),f
  2710  0782  1903               	skipnz
  2711  0783  0AAD               	incf	(___aldiv@quotient+2)^(0+128),f
  2712  0784  1903               	skipnz
  2713  0785  0AAE               	incf	(___aldiv@quotient+3)^(0+128),f
  2714  0786                     l2310:	
  2715  0786  082E               	movf	(___aldiv@quotient+3)^(0+128),w
  2716  0787  00A3               	movwf	(?___aldiv+3)^(0+128)
  2717  0788  082D               	movf	(___aldiv@quotient+2)^(0+128),w
  2718  0789  00A2               	movwf	(?___aldiv+2)^(0+128)
  2719  078A  082C               	movf	(___aldiv@quotient+1)^(0+128),w
  2720  078B  00A1               	movwf	(?___aldiv+1)^(0+128)
  2721  078C  082B               	movf	___aldiv@quotient^(0+128),w
  2722  078D  00A0               	movwf	?___aldiv^(0+128)
  2723  078E                     l525:	
  2724  078E  0008               	return
  2725  078F                     __end_of___aldiv:	
  2726                           
  2727                           	psect	text16
  2728  0F69                     __ptext16:	
  2729 ;; *************** function _isr *****************
  2730 ;; Defined at:
  2731 ;;		line 43 in file "main_app.c"
  2732 ;; Parameters:    Size  Location     Type
  2733 ;;		None
  2734 ;; Auto vars:     Size  Location     Type
  2735 ;;		None
  2736 ;; Return value:  Size  Location     Type
  2737 ;;                  1    wreg      void 
  2738 ;; Registers used:
  2739 ;;		wreg, fsr0l, fsr0h, status,2, status,0, btemp+1, pclath, cstack
  2740 ;; Tracked objects:
  2741 ;;		On entry : 0/0
  2742 ;;		On exit  : 0/0
  2743 ;;		Unchanged: 0/0
  2744 ;; Data sizes:     COMMON   BANK0   BANK1   BANK3   BANK2
  2745 ;;      Params:         0       0       0       0       0
  2746 ;;      Locals:         0       0       0       0       0
  2747 ;;      Temps:          0       6       0       0       0
  2748 ;;      Totals:         0       6       0       0       0
  2749 ;;Total ram usage:        6 bytes
  2750 ;; Hardware stack levels used:    1
  2751 ;; Hardware stack levels required when called:    4
  2752 ;; This function calls:
  2753 ;;		_led
  2754 ;;		_ssd_blink
  2755 ;;		_ssd_turn_off
  2756 ;;		_ssd_update
  2757 ;;		_start_timer
  2758 ;;		_stop_timer
  2759 ;;		_sw_action
  2760 ;;		_switch_scan
  2761 ;;		_temp_control_off
  2762 ;;		_temp_sensor_read
  2763 ;;		_temp_set
  2764 ;; This function is called by:
  2765 ;;		Interrupt level 1
  2766 ;; This function uses a non-reentrant model
  2767 ;;
  2768                           
  2769                           
  2770                           ;psect for function _isr
  2771  0F69                     _isr:	
  2772  0F69                     i1l3114:	
  2773                           
  2774                           ;main_app.c: 44:     TMR2 = 131 ;
  2775  0F69  3083               	movlw	131
  2776  0F6A  0091               	movwf	17	;volatile
  2777  0F6B                     i1l3116:	
  2778                           
  2779                           ;main_app.c: 45:     if(PIR1 & (1 << 1)){
  2780  0F6B  1C8C               	btfss	12,1	;volatile
  2781  0F6C  2F6E               	goto	u316_21
  2782  0F6D  2F6F               	goto	u316_20
  2783  0F6E                     u316_21:	
  2784  0F6E  2FBF               	goto	i1l67
  2785  0F6F                     u316_20:	
  2786  0F6F                     i1l3118:	
  2787                           
  2788                           ;main_app.c: 46:        (PIR1 &= ~(1 << 1));
  2789  0F6F  30FD               	movlw	253
  2790  0F70  00D0               	movwf	??_isr
  2791  0F71  0850               	movf	??_isr,w
  2792  0F72  058C               	andwf	12,f	;volatile
  2793                           
  2794                           ;main_app.c: 47:        switch (mode){
  2795  0F73  2FAF               	goto	i1l3140
  2796  0F74                     i1l3120:	
  2797                           
  2798                           ;main_app.c: 49:                 hold_temp = temp_sensor_read ();
  2799  0F74  120A  118A  257A  120A  158A  	fcall	_temp_sensor_read
  2800  0F79  1283               	bcf	3,5	;RP0=0, select bank0
  2801  0F7A  1303               	bcf	3,6	;RP1=0, select bank0
  2802  0F7B  00D0               	movwf	??_isr
  2803  0F7C  0850               	movf	??_isr,w
  2804  0F7D  00E5               	movwf	_hold_temp
  2805  0F7E                     i1l3122:	
  2806                           
  2807                           ;main_app.c: 50:                 ssd_update(hold_temp);
  2808  0F7E  0865               	movf	_hold_temp,w
  2809  0F7F  120A  118A  278F  120A  158A  	fcall	_ssd_update
  2810  0F84                     i1l3124:	
  2811                           
  2812                           ;main_app.c: 51:                 temp_set (hold_temp);
  2813  0F84  1283               	bcf	3,5	;RP0=0, select bank0
  2814  0F85  1303               	bcf	3,6	;RP1=0, select bank0
  2815  0F86  0865               	movf	_hold_temp,w
  2816  0F87  120A  158A  2451  120A  158A  	fcall	_temp_set
  2817  0F8C                     i1l3126:	
  2818                           
  2819                           ;main_app.c: 52:                 led();
  2820  0F8C  120A  158A  23E9  120A  158A  	fcall	_led
  2821  0F91                     i1l3128:	
  2822                           
  2823                           ;main_app.c: 53:                 switch_scan();
  2824  0F91  120A  158A  227F  120A  158A  	fcall	_switch_scan
  2825  0F96                     i1l3130:	
  2826                           
  2827                           ;main_app.c: 54:                 sw_action();
  2828  0F96  120A  158A  2681  120A  158A  	fcall	_sw_action
  2829                           
  2830                           ;main_app.c: 55:                 break;
  2831  0F9B  2FBF               	goto	i1l67
  2832  0F9C                     i1l3132:	
  2833                           
  2834                           ;main_app.c: 57:                 switch_scan();
  2835  0F9C  120A  158A  227F  120A  158A  	fcall	_switch_scan
  2836  0FA1                     i1l3134:	
  2837                           
  2838                           ;main_app.c: 58:                 sw_action();
  2839  0FA1  120A  158A  2681  120A  158A  	fcall	_sw_action
  2840  0FA6                     i1l3136:	
  2841                           
  2842                           ;main_app.c: 59:                 ssd_blink(set_temp);
  2843  0FA6  1283               	bcf	3,5	;RP0=0, select bank0
  2844  0FA7  1303               	bcf	3,6	;RP1=0, select bank0
  2845  0FA8  0866               	movf	_set_temp,w
  2846  0FA9  120A  158A  248F  120A  158A  	fcall	_ssd_blink
  2847                           
  2848                           ;main_app.c: 60:                 break;
  2849  0FAE  2FBF               	goto	i1l67
  2850  0FAF                     i1l3140:	
  2851  0FAF  0864               	movf	_mode,w
  2852  0FB0  00D0               	movwf	??_isr
  2853  0FB1  01D1               	clrf	??_isr+1
  2854                           
  2855                           ; Switch on 2 bytes has been partitioned into a top level switch of size 1, and 1 sub-sw
      +                          itches
  2856                           ; Switch size 1, requested type "simple"
  2857                           ; Number of cases is 1, Range of values is 0 to 0
  2858                           ; switch strategies available:
  2859                           ; Name         Instructions Cycles
  2860                           ; simple_byte            4     3 (average)
  2861                           ; direct_byte           11     8 (fixed)
  2862                           ; jumptable            260     6 (fixed)
  2863                           ;	Chosen strategy is simple_byte
  2864  0FB2  0851               	movf	??_isr+1,w
  2865  0FB3  3A00               	xorlw	0	; case 0
  2866  0FB4  1903               	skipnz
  2867  0FB5  2FB7               	goto	i1l3316
  2868  0FB6  2FBF               	goto	i1l67
  2869  0FB7                     i1l3316:	
  2870                           
  2871                           ; Switch size 1, requested type "simple"
  2872                           ; Number of cases is 2, Range of values is 0 to 1
  2873                           ; switch strategies available:
  2874                           ; Name         Instructions Cycles
  2875                           ; simple_byte            7     4 (average)
  2876                           ; direct_byte           14     8 (fixed)
  2877                           ; jumptable            260     6 (fixed)
  2878                           ;	Chosen strategy is simple_byte
  2879  0FB7  0850               	movf	??_isr,w
  2880  0FB8  3A00               	xorlw	0	; case 0
  2881  0FB9  1903               	skipnz
  2882  0FBA  2F74               	goto	i1l3120
  2883  0FBB  3A01               	xorlw	1	; case 1
  2884  0FBC  1903               	skipnz
  2885  0FBD  2F9C               	goto	i1l3132
  2886  0FBE  2FBF               	goto	i1l67
  2887  0FBF                     i1l67:	
  2888                           ;main_app.c: 62:     }
  2889                           
  2890                           
  2891                           ;main_app.c: 63:     if (INTCON & (1 << 1)){
  2892  0FBF  1C8B               	btfss	11,1	;volatile
  2893  0FC0  2FC2               	goto	u317_21
  2894  0FC1  2FC3               	goto	u317_20
  2895  0FC2                     u317_21:	
  2896  0FC2  2FF3               	goto	i1l77
  2897  0FC3                     u317_20:	
  2898  0FC3                     i1l3142:	
  2899                           
  2900                           ;main_app.c: 64:         (INTCON &= ~(1 << 1));
  2901  0FC3  30FD               	movlw	253
  2902  0FC4  1283               	bcf	3,5	;RP0=0, select bank0
  2903  0FC5  1303               	bcf	3,6	;RP1=0, select bank0
  2904  0FC6  00D0               	movwf	??_isr
  2905  0FC7  0850               	movf	??_isr,w
  2906  0FC8  058B               	andwf	11,f	;volatile
  2907                           
  2908                           ;main_app.c: 65:         switch (power_mode){
  2909  0FC9  2FE3               	goto	i1l3152
  2910  0FCA                     i1l74:	
  2911                           ;main_app.c: 66:              case ON_STATE :
  2912                           
  2913                           
  2914                           ;main_app.c: 67:                  power_mode = OFF_STATE ;
  2915  0FCA  01E3               	clrf	_power_mode
  2916  0FCB  0AE3               	incf	_power_mode,f
  2917  0FCC                     i1l3144:	
  2918                           
  2919                           ;main_app.c: 68:                  stop_timer();
  2920  0FCC  120A  158A  21C5  120A  158A  	fcall	_stop_timer
  2921                           
  2922                           ;main_app.c: 69:                  ssd_turn_off();
  2923  0FD1  120A  158A  2208  120A  158A  	fcall	_ssd_turn_off
  2924                           
  2925                           ;main_app.c: 70:                  temp_control_off();
  2926  0FD6  120A  158A  223C  120A  158A  	fcall	_temp_control_off
  2927                           
  2928                           ;main_app.c: 71:                  break;
  2929  0FDB  2FF3               	goto	i1l77
  2930  0FDC                     i1l3146:	
  2931                           
  2932                           ;main_app.c: 73:                   power_mode = ON_STATE ;
  2933  0FDC  01E3               	clrf	_power_mode
  2934  0FDD                     i1l3148:	
  2935                           
  2936                           ;main_app.c: 74:                   start_timer();
  2937  0FDD  120A  158A  21BF  120A  158A  	fcall	_start_timer
  2938                           
  2939                           ;main_app.c: 75:                   break;
  2940  0FE2  2FF3               	goto	i1l77
  2941  0FE3                     i1l3152:	
  2942  0FE3  0863               	movf	_power_mode,w
  2943  0FE4  00D0               	movwf	??_isr
  2944  0FE5  01D1               	clrf	??_isr+1
  2945                           
  2946                           ; Switch on 2 bytes has been partitioned into a top level switch of size 1, and 1 sub-sw
      +                          itches
  2947                           ; Switch size 1, requested type "simple"
  2948                           ; Number of cases is 1, Range of values is 0 to 0
  2949                           ; switch strategies available:
  2950                           ; Name         Instructions Cycles
  2951                           ; simple_byte            4     3 (average)
  2952                           ; direct_byte           11     8 (fixed)
  2953                           ; jumptable            260     6 (fixed)
  2954                           ;	Chosen strategy is simple_byte
  2955  0FE6  0851               	movf	??_isr+1,w
  2956  0FE7  3A00               	xorlw	0	; case 0
  2957  0FE8  1903               	skipnz
  2958  0FE9  2FEB               	goto	i1l3318
  2959  0FEA  2FF3               	goto	i1l77
  2960  0FEB                     i1l3318:	
  2961                           
  2962                           ; Switch size 1, requested type "simple"
  2963                           ; Number of cases is 2, Range of values is 0 to 1
  2964                           ; switch strategies available:
  2965                           ; Name         Instructions Cycles
  2966                           ; simple_byte            7     4 (average)
  2967                           ; direct_byte           14     8 (fixed)
  2968                           ; jumptable            260     6 (fixed)
  2969                           ;	Chosen strategy is simple_byte
  2970  0FEB  0850               	movf	??_isr,w
  2971  0FEC  3A00               	xorlw	0	; case 0
  2972  0FED  1903               	skipnz
  2973  0FEE  2FCA               	goto	i1l74
  2974  0FEF  3A01               	xorlw	1	; case 1
  2975  0FF0  1903               	skipnz
  2976  0FF1  2FDC               	goto	i1l3146
  2977  0FF2  2FF3               	goto	i1l77
  2978  0FF3                     i1l77:	
  2979  0FF3  1283               	bcf	3,5	;RP0=0, select bank0
  2980  0FF4  1303               	bcf	3,6	;RP1=0, select bank0
  2981  0FF5  0855               	movf	??_isr+5,w
  2982  0FF6  00FF               	movwf	btemp+1
  2983  0FF7  0854               	movf	??_isr+4,w
  2984  0FF8  008A               	movwf	10
  2985  0FF9  0853               	movf	??_isr+3,w
  2986  0FFA  0084               	movwf	4
  2987  0FFB  0E52               	swapf	(??_isr+2)^0,w
  2988  0FFC  0083               	movwf	3
  2989  0FFD  0EFE               	swapf	btemp,f
  2990  0FFE  0E7E               	swapf	btemp,w
  2991  0FFF  0009               	retfie
  2992  1000                     __end_of_isr:	
  2993                           
  2994                           	psect	intentry
  2995  0004                     __pintentry:	
  2996                           ;incstack = 0
  2997                           ; Regs used in _isr: [wreg-fsr0h+status,2+status,0+btemp+1+pclath+cstack]
  2998                           
  2999  0004                     interrupt_function:	
  3000  007E                     saved_w	set	btemp
  3001  0004  00FE               	movwf	btemp
  3002  0005  0E03               	swapf	3,w
  3003  0006  1283               	bcf	3,5	;RP0=0, select bank0
  3004  0007  1303               	bcf	3,6	;RP1=0, select bank0
  3005  0008  00D2               	movwf	??_isr+2
  3006  0009  0804               	movf	4,w
  3007  000A  00D3               	movwf	??_isr+3
  3008  000B  080A               	movf	10,w
  3009  000C  00D4               	movwf	??_isr+4
  3010  000D  087F               	movf	btemp+1,w
  3011  000E  00D5               	movwf	??_isr+5
  3012  000F  120A  158A  2F69   	ljmp	_isr
  3013                           
  3014                           	psect	text17
  3015  0C51                     __ptext17:	
  3016 ;; *************** function _temp_set *****************
  3017 ;; Defined at:
  3018 ;;		line 21 in file "temp_control.c"
  3019 ;; Parameters:    Size  Location     Type
  3020 ;;  temp            1    wreg     unsigned char 
  3021 ;; Auto vars:     Size  Location     Type
  3022 ;;  temp            1    3[COMMON] unsigned char 
  3023 ;; Return value:  Size  Location     Type
  3024 ;;                  1    wreg      void 
  3025 ;; Registers used:
  3026 ;;		wreg, status,2, status,0
  3027 ;; Tracked objects:
  3028 ;;		On entry : 0/0
  3029 ;;		On exit  : 0/0
  3030 ;;		Unchanged: 0/0
  3031 ;; Data sizes:     COMMON   BANK0   BANK1   BANK3   BANK2
  3032 ;;      Params:         0       0       0       0       0
  3033 ;;      Locals:         1       0       0       0       0
  3034 ;;      Temps:          3       0       0       0       0
  3035 ;;      Totals:         4       0       0       0       0
  3036 ;;Total ram usage:        4 bytes
  3037 ;; Hardware stack levels used:    1
  3038 ;; This function calls:
  3039 ;;		Nothing
  3040 ;; This function is called by:
  3041 ;;		_isr
  3042 ;; This function uses a non-reentrant model
  3043 ;;
  3044                           
  3045                           
  3046                           ;psect for function _temp_set
  3047  0C51                     _temp_set:	
  3048                           
  3049                           ;incstack = 0
  3050                           ; Regs used in _temp_set: [wreg+status,2+status,0]
  3051                           ;temp_set@temp stored from wreg
  3052  0C51  00F3               	movwf	temp_set@temp
  3053  0C52                     i1l2938:	
  3054                           
  3055                           ;temp_control.c: 22:      if ( temp < (set_temp - 5 ) ){
  3056  0C52  1283               	bcf	3,5	;RP0=0, select bank0
  3057  0C53  1303               	bcf	3,6	;RP1=0, select bank0
  3058  0C54  0866               	movf	_set_temp,w
  3059  0C55  3EFB               	addlw	251
  3060  0C56  00F0               	movwf	??_temp_set
  3061  0C57  30FF               	movlw	255
  3062  0C58  1803               	skipnc
  3063  0C59  3000               	movlw	0
  3064  0C5A  00F1               	movwf	??_temp_set+1
  3065  0C5B  0871               	movf	??_temp_set+1,w
  3066  0C5C  3A80               	xorlw	128
  3067  0C5D  3C80               	sublw	128
  3068  0C5E  1D03               	skipz
  3069  0C5F  2C62               	goto	u301_25
  3070  0C60  0870               	movf	??_temp_set,w
  3071  0C61  0273               	subwf	temp_set@temp,w
  3072  0C62                     u301_25:	
  3073  0C62  1803               	skipnc
  3074  0C63  2C65               	goto	u301_21
  3075  0C64  2C66               	goto	u301_20
  3076  0C65                     u301_21:	
  3077  0C65  2C6F               	goto	i1l2946
  3078  0C66                     u301_20:	
  3079  0C66                     i1l2940:	
  3080                           
  3081                           ;temp_control.c: 23:           (PORTC |= (1 << 5));
  3082  0C66  1283               	bcf	3,5	;RP0=0, select bank0
  3083  0C67  1303               	bcf	3,6	;RP1=0, select bank0
  3084  0C68  1687               	bsf	7,5	;volatile
  3085  0C69                     i1l2942:	
  3086                           
  3087                           ;temp_control.c: 24:           (PORTC &= ~(1 << 2));
  3088  0C69  30FB               	movlw	251
  3089  0C6A  00F0               	movwf	??_temp_set
  3090  0C6B  0870               	movf	??_temp_set,w
  3091  0C6C  0587               	andwf	7,f	;volatile
  3092  0C6D                     i1l2944:	
  3093                           
  3094                           ;temp_control.c: 25:           state = HEATER_ON ;
  3095  0C6D  01DE               	clrf	_state
  3096                           
  3097                           ;temp_control.c: 26:      }
  3098  0C6E  2C8E               	goto	i1l304
  3099  0C6F                     i1l2946:	
  3100  0C6F  1283               	bcf	3,5	;RP0=0, select bank0
  3101  0C70  1303               	bcf	3,6	;RP1=0, select bank0
  3102  0C71  0866               	movf	_set_temp,w
  3103  0C72  3E05               	addlw	5
  3104  0C73  00F0               	movwf	??_temp_set
  3105  0C74  3000               	movlw	0
  3106  0C75  1803               	skipnc
  3107  0C76  3001               	movlw	1
  3108  0C77  00F1               	movwf	??_temp_set+1
  3109  0C78  0871               	movf	??_temp_set+1,w
  3110  0C79  3A80               	xorlw	128
  3111  0C7A  00F2               	movwf	??_temp_set+2
  3112  0C7B  3080               	movlw	128
  3113  0C7C  0272               	subwf	??_temp_set+2,w
  3114  0C7D  1D03               	skipz
  3115  0C7E  2C81               	goto	u302_25
  3116  0C7F  0873               	movf	temp_set@temp,w
  3117  0C80  0270               	subwf	??_temp_set,w
  3118  0C81                     u302_25:	
  3119  0C81  1803               	skipnc
  3120  0C82  2C84               	goto	u302_21
  3121  0C83  2C85               	goto	u302_20
  3122  0C84                     u302_21:	
  3123  0C84  2C8E               	goto	i1l304
  3124  0C85                     u302_20:	
  3125  0C85                     i1l2948:	
  3126                           
  3127                           ;temp_control.c: 28:           (PORTC |= (1 << 2));
  3128  0C85  1283               	bcf	3,5	;RP0=0, select bank0
  3129  0C86  1303               	bcf	3,6	;RP1=0, select bank0
  3130  0C87  1507               	bsf	7,2	;volatile
  3131  0C88                     i1l2950:	
  3132                           
  3133                           ;temp_control.c: 29:           (PORTC &= ~(1 << 5));
  3134  0C88  30DF               	movlw	223
  3135  0C89  00F0               	movwf	??_temp_set
  3136  0C8A  0870               	movf	??_temp_set,w
  3137  0C8B  0587               	andwf	7,f	;volatile
  3138  0C8C                     i1l2952:	
  3139                           
  3140                           ;temp_control.c: 30:           state = COOLER_ON ;
  3141  0C8C  01DE               	clrf	_state
  3142  0C8D  0ADE               	incf	_state,f
  3143  0C8E                     i1l304:	
  3144                           ;temp_control.c: 31:      }
  3145                           
  3146  0C8E  0008               	return
  3147  0C8F                     __end_of_temp_set:	
  3148                           
  3149                           	psect	text18
  3150  057A                     __ptext18:	
  3151 ;; *************** function _temp_sensor_read *****************
  3152 ;; Defined at:
  3153 ;;		line 22 in file "temp_sensor.c"
  3154 ;; Parameters:    Size  Location     Type
  3155 ;;		None
  3156 ;; Auto vars:     Size  Location     Type
  3157 ;;		None
  3158 ;; Return value:  Size  Location     Type
  3159 ;;                  1    wreg      unsigned char 
  3160 ;; Registers used:
  3161 ;;		wreg, fsr0l, fsr0h, status,2, status,0, btemp+1, pclath, cstack
  3162 ;; Tracked objects:
  3163 ;;		On entry : 0/0
  3164 ;;		On exit  : 0/0
  3165 ;;		Unchanged: 0/0
  3166 ;; Data sizes:     COMMON   BANK0   BANK1   BANK3   BANK2
  3167 ;;      Params:         0       0       0       0       0
  3168 ;;      Locals:         0       0       0       0       0
  3169 ;;      Temps:          0       5       0       0       0
  3170 ;;      Totals:         0       5       0       0       0
  3171 ;;Total ram usage:        5 bytes
  3172 ;; Hardware stack levels used:    1
  3173 ;; Hardware stack levels required when called:    2
  3174 ;; This function calls:
  3175 ;;		_ADC_Read
  3176 ;;		___fldiv
  3177 ;;		___flmul
  3178 ;;		___fltol
  3179 ;;		___xxtofl
  3180 ;;		_average
  3181 ;; This function is called by:
  3182 ;;		_isr
  3183 ;; This function uses a non-reentrant model
  3184 ;;
  3185                           
  3186                           
  3187                           ;psect for function _temp_sensor_read
  3188  057A                     _temp_sensor_read:	
  3189  057A                     i1l2914:	
  3190                           ;incstack = 0
  3191                           ; Regs used in _temp_sensor_read: [wreg-fsr0h+status,2+status,0+btemp+1+pclath+cstack]
  3192                           
  3193                           
  3194                           ;temp_sensor.c: 23:     temp_timer += 1;
  3195  057A  3001               	movlw	1
  3196  057B  1283               	bcf	3,5	;RP0=0, select bank0
  3197  057C  1303               	bcf	3,6	;RP1=0, select bank0
  3198  057D  00CB               	movwf	??_temp_sensor_read
  3199  057E  084B               	movf	??_temp_sensor_read,w
  3200  057F  07E9               	addwf	_temp_timer,f
  3201                           
  3202                           ;temp_sensor.c: 24:     if( (temp_timer == 100) ){
  3203  0580  3064               	movlw	100
  3204  0581  0669               	xorwf	_temp_timer,w
  3205  0582  1D03               	btfss	3,2
  3206  0583  2D85               	goto	u299_21
  3207  0584  2D86               	goto	u299_20
  3208  0585                     u299_21:	
  3209  0585  2E34               	goto	i1l2928
  3210  0586                     u299_20:	
  3211  0586                     i1l2916:	
  3212                           
  3213                           ;temp_sensor.c: 25:         temp_hold_array[i] = (ADC_Read(2) * 4.89 ) ;
  3214  0586  3002               	movlw	2
  3215  0587  120A  158A  2360  120A  118A  	fcall	_ADC_Read
  3216  058C  0870               	movf	?_ADC_Read,w
  3217  058D  1283               	bcf	3,5	;RP0=0, select bank0
  3218  058E  1303               	bcf	3,6	;RP1=0, select bank0
  3219  058F  00CB               	movwf	??_temp_sensor_read
  3220  0590  0871               	movf	?_ADC_Read+1,w
  3221  0591  00CC               	movwf	??_temp_sensor_read+1
  3222  0592  01CD               	clrf	??_temp_sensor_read+2
  3223  0593  01CE               	clrf	??_temp_sensor_read+3
  3224  0594  084E               	movf	??_temp_sensor_read+3,w
  3225  0595  00F8               	movwf	___xxtofl@val+3
  3226  0596  084D               	movf	??_temp_sensor_read+2,w
  3227  0597  00F7               	movwf	___xxtofl@val+2
  3228  0598  084C               	movf	??_temp_sensor_read+1,w
  3229  0599  00F6               	movwf	___xxtofl@val+1
  3230  059A  084B               	movf	??_temp_sensor_read,w
  3231  059B  00F5               	movwf	___xxtofl@val
  3232  059C  3000               	movlw	0
  3233  059D  120A  118A  2636  120A  118A  	fcall	___xxtofl
  3234  05A2  0878               	movf	?___xxtofl+3,w
  3235  05A3  1283               	bcf	3,5	;RP0=0, select bank0
  3236  05A4  1303               	bcf	3,6	;RP1=0, select bank0
  3237  05A5  00AD               	movwf	___flmul@a+3
  3238  05A6  0877               	movf	?___xxtofl+2,w
  3239  05A7  00AC               	movwf	___flmul@a+2
  3240  05A8  0876               	movf	?___xxtofl+1,w
  3241  05A9  00AB               	movwf	___flmul@a+1
  3242  05AA  0875               	movf	?___xxtofl,w
  3243  05AB  00AA               	movwf	___flmul@a
  3244  05AC  3040               	movlw	64
  3245  05AD  00A9               	movwf	___flmul@b+3
  3246  05AE  309C               	movlw	156
  3247  05AF  00A8               	movwf	___flmul@b+2
  3248  05B0  307A               	movlw	122
  3249  05B1  00A7               	movwf	___flmul@b+1
  3250  05B2  30E1               	movlw	225
  3251  05B3  00A6               	movwf	___flmul@b
  3252  05B4  120A  118A  203C  120A  118A  	fcall	___flmul
  3253  05B9  1283               	bcf	3,5	;RP0=0, select bank0
  3254  05BA  1303               	bcf	3,6	;RP1=0, select bank0
  3255  05BB  0829               	movf	?___flmul+3,w
  3256  05BC  00C3               	movwf	___fltol@f1+3
  3257  05BD  0828               	movf	?___flmul+2,w
  3258  05BE  00C2               	movwf	___fltol@f1+2
  3259  05BF  0827               	movf	?___flmul+1,w
  3260  05C0  00C1               	movwf	___fltol@f1+1
  3261  05C1  0826               	movf	?___flmul,w
  3262  05C2  00C0               	movwf	___fltol@f1
  3263  05C3  120A  158A  26ED  120A  118A  	fcall	___fltol
  3264  05C8  1283               	bcf	3,5	;RP0=0, select bank0
  3265  05C9  1303               	bcf	3,6	;RP1=0, select bank0
  3266  05CA  085D               	movf	_i,w
  3267  05CB  00CF               	movwf	??_temp_sensor_read+4
  3268  05CC  074F               	addwf	??_temp_sensor_read+4,w
  3269  05CD  3EB8               	addlw	(low (_temp_hold_array| 0))& (0+255)
  3270  05CE  0084               	movwf	4
  3271  05CF  0840               	movf	?___fltol,w
  3272  05D0  1383               	bcf	3,7	;select IRP bank1
  3273  05D1  0080               	movwf	0
  3274  05D2  0A84               	incf	4,f
  3275  05D3  0841               	movf	?___fltol+1,w
  3276  05D4  0080               	movwf	0
  3277                           
  3278                           ;temp_sensor.c: 26:         temp_hold_array[i] = temp_hold_array[i] / 10.0 ;
  3279  05D5  085D               	movf	_i,w
  3280  05D6  00CB               	movwf	??_temp_sensor_read
  3281  05D7  074B               	addwf	??_temp_sensor_read,w
  3282  05D8  3EB8               	addlw	(low (_temp_hold_array| 0))& (0+255)
  3283  05D9  0084               	movwf	4
  3284  05DA  0800               	movf	0,w
  3285  05DB  00CC               	movwf	??_temp_sensor_read+1
  3286  05DC  0A84               	incf	4,f
  3287  05DD  0800               	movf	0,w
  3288  05DE  00CD               	movwf	??_temp_sensor_read+2
  3289  05DF  084C               	movf	??_temp_sensor_read+1,w
  3290  05E0  00F5               	movwf	___xxtofl@val
  3291  05E1  084D               	movf	??_temp_sensor_read+2,w
  3292  05E2  00F6               	movwf	___xxtofl@val+1
  3293  05E3  01F7               	clrf	___xxtofl@val+2
  3294  05E4  01F8               	clrf	___xxtofl@val+3
  3295  05E5  3000               	movlw	0
  3296  05E6  120A  118A  2636  120A  118A  	fcall	___xxtofl
  3297  05EB  0878               	movf	?___xxtofl+3,w
  3298  05EC  1283               	bcf	3,5	;RP0=0, select bank0
  3299  05ED  1303               	bcf	3,6	;RP1=0, select bank0
  3300  05EE  00AD               	movwf	___fldiv@b+3
  3301  05EF  0877               	movf	?___xxtofl+2,w
  3302  05F0  00AC               	movwf	___fldiv@b+2
  3303  05F1  0876               	movf	?___xxtofl+1,w
  3304  05F2  00AB               	movwf	___fldiv@b+1
  3305  05F3  0875               	movf	?___xxtofl,w
  3306  05F4  00AA               	movwf	___fldiv@b
  3307  05F5  3041               	movlw	65
  3308  05F6  00A9               	movwf	___fldiv@a+3
  3309  05F7  3020               	movlw	32
  3310  05F8  00A8               	movwf	___fldiv@a+2
  3311  05F9  3000               	movlw	0
  3312  05FA  00A7               	movwf	___fldiv@a+1
  3313  05FB  3000               	movlw	0
  3314  05FC  00A6               	movwf	___fldiv@a
  3315  05FD  120A  118A  239D  120A  118A  	fcall	___fldiv
  3316  0602  1283               	bcf	3,5	;RP0=0, select bank0
  3317  0603  1303               	bcf	3,6	;RP1=0, select bank0
  3318  0604  0829               	movf	?___fldiv+3,w
  3319  0605  00C3               	movwf	___fltol@f1+3
  3320  0606  0828               	movf	?___fldiv+2,w
  3321  0607  00C2               	movwf	___fltol@f1+2
  3322  0608  0827               	movf	?___fldiv+1,w
  3323  0609  00C1               	movwf	___fltol@f1+1
  3324  060A  0826               	movf	?___fldiv,w
  3325  060B  00C0               	movwf	___fltol@f1
  3326  060C  120A  158A  26ED  120A  118A  	fcall	___fltol
  3327  0611  1283               	bcf	3,5	;RP0=0, select bank0
  3328  0612  1303               	bcf	3,6	;RP1=0, select bank0
  3329  0613  085D               	movf	_i,w
  3330  0614  00CE               	movwf	??_temp_sensor_read+3
  3331  0615  074E               	addwf	??_temp_sensor_read+3,w
  3332  0616  3EB8               	addlw	(low (_temp_hold_array| 0))& (0+255)
  3333  0617  0084               	movwf	4
  3334  0618  0840               	movf	?___fltol,w
  3335  0619  1383               	bcf	3,7	;select IRP bank1
  3336  061A  0080               	movwf	0
  3337  061B  0A84               	incf	4,f
  3338  061C  0841               	movf	?___fltol+1,w
  3339  061D  0080               	movwf	0
  3340  061E                     i1l2918:	
  3341                           
  3342                           ;temp_sensor.c: 27:         i++ ;
  3343  061E  3001               	movlw	1
  3344  061F  00CB               	movwf	??_temp_sensor_read
  3345  0620  084B               	movf	??_temp_sensor_read,w
  3346  0621  07DD               	addwf	_i,f
  3347  0622                     i1l2920:	
  3348                           
  3349                           ;temp_sensor.c: 28:         temp_timer = 0 ;
  3350  0622  01E9               	clrf	_temp_timer
  3351  0623                     i1l2922:	
  3352                           
  3353                           ;temp_sensor.c: 29:         if (i == 10){i = 0 ;}
  3354  0623  300A               	movlw	10
  3355  0624  065D               	xorwf	_i,w
  3356  0625  1D03               	btfss	3,2
  3357  0626  2E28               	goto	u300_21
  3358  0627  2E29               	goto	u300_20
  3359  0628                     u300_21:	
  3360  0628  2E2A               	goto	i1l2926
  3361  0629                     u300_20:	
  3362  0629                     i1l2924:	
  3363  0629  01DD               	clrf	_i
  3364  062A                     i1l2926:	
  3365                           
  3366                           ;temp_sensor.c: 30:         temp = average();
  3367  062A  120A  158A  2388  120A  118A  	fcall	_average
  3368  062F  1283               	bcf	3,5	;RP0=0, select bank0
  3369  0630  1303               	bcf	3,6	;RP1=0, select bank0
  3370  0631  00CB               	movwf	??_temp_sensor_read
  3371  0632  084B               	movf	??_temp_sensor_read,w
  3372  0633  00DC               	movwf	_temp
  3373  0634                     i1l2928:	
  3374                           
  3375                           ;temp_sensor.c: 31:         return temp ;
  3376  0634  085C               	movf	_temp,w
  3377  0635                     i1l344:	
  3378  0635  0008               	return
  3379  0636                     __end_of_temp_sensor_read:	
  3380                           
  3381                           	psect	text19
  3382  0B88                     __ptext19:	
  3383 ;; *************** function _average *****************
  3384 ;; Defined at:
  3385 ;;		line 13 in file "temp_sensor.c"
  3386 ;; Parameters:    Size  Location     Type
  3387 ;;		None
  3388 ;; Auto vars:     Size  Location     Type
  3389 ;;  sum             2   11[COMMON] unsigned int 
  3390 ;;  i               1   13[COMMON] unsigned char 
  3391 ;; Return value:  Size  Location     Type
  3392 ;;                  1    wreg      unsigned char 
  3393 ;; Registers used:
  3394 ;;		wreg, fsr0l, fsr0h, status,2, status,0, pclath, cstack
  3395 ;; Tracked objects:
  3396 ;;		On entry : 0/0
  3397 ;;		On exit  : 0/0
  3398 ;;		Unchanged: 0/0
  3399 ;; Data sizes:     COMMON   BANK0   BANK1   BANK3   BANK2
  3400 ;;      Params:         0       0       0       0       0
  3401 ;;      Locals:         3       0       0       0       0
  3402 ;;      Temps:          3       0       0       0       0
  3403 ;;      Totals:         6       0       0       0       0
  3404 ;;Total ram usage:        6 bytes
  3405 ;; Hardware stack levels used:    1
  3406 ;; Hardware stack levels required when called:    1
  3407 ;; This function calls:
  3408 ;;		___lwdiv
  3409 ;; This function is called by:
  3410 ;;		_temp_sensor_read
  3411 ;; This function uses a non-reentrant model
  3412 ;;
  3413                           
  3414                           
  3415                           ;psect for function _average
  3416  0B88                     _average:	
  3417  0B88                     i1l2536:	
  3418                           ;incstack = 0
  3419                           ; Regs used in _average: [wreg-fsr0h+status,2+status,0+pclath+cstack]
  3420                           
  3421                           
  3422                           ;temp_sensor.c: 14:      uint8_t i = 0 ;
  3423  0B88  01FD               	clrf	average@i
  3424                           
  3425                           ;temp_sensor.c: 15:      uint16_t sum = 0 ;
  3426  0B89  01FB               	clrf	average@sum
  3427  0B8A  01FC               	clrf	average@sum+1
  3428                           
  3429                           ;temp_sensor.c: 16:      for (i = 0 ; i < 10 ; i++){
  3430  0B8B  01FD               	clrf	average@i
  3431  0B8C                     i1l2542:	
  3432                           
  3433                           ;temp_sensor.c: 17:          sum = sum + temp_hold_array[i] ;
  3434  0B8C  087D               	movf	average@i,w
  3435  0B8D  00F8               	movwf	??_average
  3436  0B8E  0778               	addwf	??_average,w
  3437  0B8F  3EB8               	addlw	(low (_temp_hold_array| 0))& (0+255)
  3438  0B90  0084               	movwf	4
  3439  0B91  1383               	bcf	3,7	;select IRP bank1
  3440  0B92  0800               	movf	0,w
  3441  0B93  00F9               	movwf	??_average+1
  3442  0B94  0A84               	incf	4,f
  3443  0B95  0800               	movf	0,w
  3444  0B96  00FA               	movwf	??_average+2
  3445  0B97  087B               	movf	average@sum,w
  3446  0B98  0779               	addwf	??_average+1,w
  3447  0B99  00FB               	movwf	average@sum
  3448  0B9A  087C               	movf	average@sum+1,w
  3449  0B9B  1803               	skipnc
  3450  0B9C  0A7C               	incf	average@sum+1,w
  3451  0B9D  077A               	addwf	??_average+2,w
  3452  0B9E  00FC               	movwf	average@sum+1
  3453  0B9F                     i1l2544:	
  3454                           
  3455                           ;temp_sensor.c: 18:      }
  3456  0B9F  3001               	movlw	1
  3457  0BA0  00F8               	movwf	??_average
  3458  0BA1  0878               	movf	??_average,w
  3459  0BA2  07FD               	addwf	average@i,f
  3460  0BA3                     i1l2546:	
  3461  0BA3  300A               	movlw	10
  3462  0BA4  027D               	subwf	average@i,w
  3463  0BA5  1C03               	skipc
  3464  0BA6  2BA8               	goto	u208_21
  3465  0BA7  2BA9               	goto	u208_20
  3466  0BA8                     u208_21:	
  3467  0BA8  2B8C               	goto	i1l2542
  3468  0BA9                     u208_20:	
  3469  0BA9                     i1l2548:	
  3470                           
  3471                           ;temp_sensor.c: 19:      return (sum / 10) ;
  3472  0BA9  300A               	movlw	10
  3473  0BAA  00F0               	movwf	___lwdiv@divisor
  3474  0BAB  3000               	movlw	0
  3475  0BAC  00F1               	movwf	___lwdiv@divisor+1
  3476  0BAD  087C               	movf	average@sum+1,w
  3477  0BAE  00F3               	movwf	___lwdiv@dividend+1
  3478  0BAF  087B               	movf	average@sum,w
  3479  0BB0  00F2               	movwf	___lwdiv@dividend
  3480  0BB1  120A  158A  24D1  120A  158A  	fcall	___lwdiv
  3481  0BB6  0870               	movf	?___lwdiv,w
  3482  0BB7                     i1l339:	
  3483  0BB7  0008               	return
  3484  0BB8                     __end_of_average:	
  3485                           
  3486                           	psect	text20
  3487  0CD1                     __ptext20:	
  3488 ;; *************** function ___lwdiv *****************
  3489 ;; Defined at:
  3490 ;;		line 5 in file "C:\Program Files (x86)\Microchip\xc8\v2.10\pic\sources\c90\common\lwdiv.c"
  3491 ;; Parameters:    Size  Location     Type
  3492 ;;  divisor         2    0[COMMON] unsigned int 
  3493 ;;  dividend        2    2[COMMON] unsigned int 
  3494 ;; Auto vars:     Size  Location     Type
  3495 ;;  quotient        2    5[COMMON] unsigned int 
  3496 ;;  counter         1    7[COMMON] unsigned char 
  3497 ;; Return value:  Size  Location     Type
  3498 ;;                  2    0[COMMON] unsigned int 
  3499 ;; Registers used:
  3500 ;;		wreg, status,2, status,0
  3501 ;; Tracked objects:
  3502 ;;		On entry : 0/0
  3503 ;;		On exit  : 0/0
  3504 ;;		Unchanged: 0/0
  3505 ;; Data sizes:     COMMON   BANK0   BANK1   BANK3   BANK2
  3506 ;;      Params:         4       0       0       0       0
  3507 ;;      Locals:         3       0       0       0       0
  3508 ;;      Temps:          1       0       0       0       0
  3509 ;;      Totals:         8       0       0       0       0
  3510 ;;Total ram usage:        8 bytes
  3511 ;; Hardware stack levels used:    1
  3512 ;; This function calls:
  3513 ;;		Nothing
  3514 ;; This function is called by:
  3515 ;;		_average
  3516 ;; This function uses a non-reentrant model
  3517 ;;
  3518                           
  3519                           
  3520                           ;psect for function ___lwdiv
  3521  0CD1                     ___lwdiv:	
  3522  0CD1                     i1l2396:	
  3523                           ;incstack = 0
  3524                           ; Regs used in ___lwdiv: [wreg+status,2+status,0]
  3525                           
  3526  0CD1  01F5               	clrf	___lwdiv@quotient
  3527  0CD2  01F6               	clrf	___lwdiv@quotient+1
  3528  0CD3                     i1l2398:	
  3529  0CD3  0870               	movf	___lwdiv@divisor,w
  3530  0CD4  0471               	iorwf	___lwdiv@divisor+1,w
  3531  0CD5  1903               	btfsc	3,2
  3532  0CD6  2CD8               	goto	u193_21
  3533  0CD7  2CD9               	goto	u193_20
  3534  0CD8                     u193_21:	
  3535  0CD8  2D10               	goto	i1l2418
  3536  0CD9                     u193_20:	
  3537  0CD9                     i1l2400:	
  3538  0CD9  01F7               	clrf	___lwdiv@counter
  3539  0CDA  0AF7               	incf	___lwdiv@counter,f
  3540  0CDB  2CE7               	goto	i1l2406
  3541  0CDC                     i1l2402:	
  3542  0CDC  3001               	movlw	1
  3543  0CDD                     u194_25:	
  3544  0CDD  1003               	clrc
  3545  0CDE  0DF0               	rlf	___lwdiv@divisor,f
  3546  0CDF  0DF1               	rlf	___lwdiv@divisor+1,f
  3547  0CE0  3EFF               	addlw	-1
  3548  0CE1  1D03               	skipz
  3549  0CE2  2CDD               	goto	u194_25
  3550  0CE3                     i1l2404:	
  3551  0CE3  3001               	movlw	1
  3552  0CE4  00F4               	movwf	??___lwdiv
  3553  0CE5  0874               	movf	??___lwdiv,w
  3554  0CE6  07F7               	addwf	___lwdiv@counter,f
  3555  0CE7                     i1l2406:	
  3556  0CE7  1FF1               	btfss	___lwdiv@divisor+1,7
  3557  0CE8  2CEA               	goto	u195_21
  3558  0CE9  2CEB               	goto	u195_20
  3559  0CEA                     u195_21:	
  3560  0CEA  2CDC               	goto	i1l2402
  3561  0CEB                     u195_20:	
  3562  0CEB                     i1l2408:	
  3563  0CEB  3001               	movlw	1
  3564  0CEC                     u196_25:	
  3565  0CEC  1003               	clrc
  3566  0CED  0DF5               	rlf	___lwdiv@quotient,f
  3567  0CEE  0DF6               	rlf	___lwdiv@quotient+1,f
  3568  0CEF  3EFF               	addlw	-1
  3569  0CF0  1D03               	skipz
  3570  0CF1  2CEC               	goto	u196_25
  3571  0CF2  0871               	movf	___lwdiv@divisor+1,w
  3572  0CF3  0273               	subwf	___lwdiv@dividend+1,w
  3573  0CF4  1D03               	skipz
  3574  0CF5  2CF8               	goto	u197_25
  3575  0CF6  0870               	movf	___lwdiv@divisor,w
  3576  0CF7  0272               	subwf	___lwdiv@dividend,w
  3577  0CF8                     u197_25:	
  3578  0CF8  1C03               	skipc
  3579  0CF9  2CFB               	goto	u197_21
  3580  0CFA  2CFC               	goto	u197_20
  3581  0CFB                     u197_21:	
  3582  0CFB  2D03               	goto	i1l2414
  3583  0CFC                     u197_20:	
  3584  0CFC                     i1l2410:	
  3585  0CFC  0870               	movf	___lwdiv@divisor,w
  3586  0CFD  02F2               	subwf	___lwdiv@dividend,f
  3587  0CFE  0871               	movf	___lwdiv@divisor+1,w
  3588  0CFF  1C03               	skipc
  3589  0D00  03F3               	decf	___lwdiv@dividend+1,f
  3590  0D01  02F3               	subwf	___lwdiv@dividend+1,f
  3591  0D02                     i1l2412:	
  3592  0D02  1475               	bsf	___lwdiv@quotient,0
  3593  0D03                     i1l2414:	
  3594  0D03  3001               	movlw	1
  3595  0D04                     u198_25:	
  3596  0D04  1003               	clrc
  3597  0D05  0CF1               	rrf	___lwdiv@divisor+1,f
  3598  0D06  0CF0               	rrf	___lwdiv@divisor,f
  3599  0D07  3EFF               	addlw	-1
  3600  0D08  1D03               	skipz
  3601  0D09  2D04               	goto	u198_25
  3602  0D0A                     i1l2416:	
  3603  0D0A  3001               	movlw	1
  3604  0D0B  02F7               	subwf	___lwdiv@counter,f
  3605  0D0C  1D03               	btfss	3,2
  3606  0D0D  2D0F               	goto	u199_21
  3607  0D0E  2D10               	goto	u199_20
  3608  0D0F                     u199_21:	
  3609  0D0F  2CEB               	goto	i1l2408
  3610  0D10                     u199_20:	
  3611  0D10                     i1l2418:	
  3612  0D10  0876               	movf	___lwdiv@quotient+1,w
  3613  0D11  00F1               	movwf	?___lwdiv+1
  3614  0D12  0875               	movf	___lwdiv@quotient,w
  3615  0D13  00F0               	movwf	?___lwdiv
  3616  0D14                     i1l722:	
  3617  0D14  0008               	return
  3618  0D15                     __end_of___lwdiv:	
  3619                           
  3620                           	psect	text21
  3621  0636                     __ptext21:	
  3622 ;; *************** function ___xxtofl *****************
  3623 ;; Defined at:
  3624 ;;		line 10 in file "C:\Program Files (x86)\Microchip\xc8\v2.10\pic\sources\c90\common\xxtofl.c"
  3625 ;; Parameters:    Size  Location     Type
  3626 ;;  sign            1    wreg     unsigned char 
  3627 ;;  val             4    5[COMMON] long 
  3628 ;; Auto vars:     Size  Location     Type
  3629 ;;  sign            1    0[BANK0 ] unsigned char 
  3630 ;;  arg             4    2[BANK0 ] unsigned long 
  3631 ;;  exp             1    1[BANK0 ] unsigned char 
  3632 ;; Return value:  Size  Location     Type
  3633 ;;                  4    5[COMMON] unsigned char 
  3634 ;; Registers used:
  3635 ;;		wreg, status,2, status,0
  3636 ;; Tracked objects:
  3637 ;;		On entry : 0/0
  3638 ;;		On exit  : 0/0
  3639 ;;		Unchanged: 0/0
  3640 ;; Data sizes:     COMMON   BANK0   BANK1   BANK3   BANK2
  3641 ;;      Params:         4       0       0       0       0
  3642 ;;      Locals:         0       6       0       0       0
  3643 ;;      Temps:          4       0       0       0       0
  3644 ;;      Totals:         8       6       0       0       0
  3645 ;;Total ram usage:       14 bytes
  3646 ;; Hardware stack levels used:    1
  3647 ;; This function calls:
  3648 ;;		Nothing
  3649 ;; This function is called by:
  3650 ;;		_temp_sensor_read
  3651 ;; This function uses a non-reentrant model
  3652 ;;
  3653                           
  3654                           
  3655                           ;psect for function ___xxtofl
  3656  0636                     ___xxtofl:	
  3657                           
  3658                           ;incstack = 0
  3659                           ; Regs used in ___xxtofl: [wreg+status,2+status,0]
  3660                           ;___xxtofl@sign stored from wreg
  3661  0636  1283               	bcf	3,5	;RP0=0, select bank0
  3662  0637  1303               	bcf	3,6	;RP1=0, select bank0
  3663  0638  00A0               	movwf	___xxtofl@sign
  3664  0639                     i1l2870:	
  3665  0639  0820               	movf	___xxtofl@sign,w
  3666  063A  1903               	btfsc	3,2
  3667  063B  2E3D               	goto	u285_21
  3668  063C  2E3E               	goto	u285_20
  3669  063D                     u285_21:	
  3670  063D  2E52               	goto	i1l2876
  3671  063E                     u285_20:	
  3672  063E                     i1l2872:	
  3673  063E  1FF8               	btfss	___xxtofl@val+3,7
  3674  063F  2E41               	goto	u286_21
  3675  0640  2E42               	goto	u286_20
  3676  0641                     u286_21:	
  3677  0641  2E52               	goto	i1l2876
  3678  0642                     u286_20:	
  3679  0642                     i1l2874:	
  3680  0642  0975               	comf	___xxtofl@val,w
  3681  0643  00A2               	movwf	___xxtofl@arg
  3682  0644  0976               	comf	___xxtofl@val+1,w
  3683  0645  00A3               	movwf	___xxtofl@arg+1
  3684  0646  0977               	comf	___xxtofl@val+2,w
  3685  0647  00A4               	movwf	___xxtofl@arg+2
  3686  0648  0978               	comf	___xxtofl@val+3,w
  3687  0649  00A5               	movwf	___xxtofl@arg+3
  3688  064A  0AA2               	incf	___xxtofl@arg,f
  3689  064B  1903               	skipnz
  3690  064C  0AA3               	incf	___xxtofl@arg+1,f
  3691  064D  1903               	skipnz
  3692  064E  0AA4               	incf	___xxtofl@arg+2,f
  3693  064F  1903               	skipnz
  3694  0650  0AA5               	incf	___xxtofl@arg+3,f
  3695  0651  2E5A               	goto	i1l877
  3696  0652                     i1l2876:	
  3697  0652  0878               	movf	___xxtofl@val+3,w
  3698  0653  00A5               	movwf	___xxtofl@arg+3
  3699  0654  0877               	movf	___xxtofl@val+2,w
  3700  0655  00A4               	movwf	___xxtofl@arg+2
  3701  0656  0876               	movf	___xxtofl@val+1,w
  3702  0657  00A3               	movwf	___xxtofl@arg+1
  3703  0658  0875               	movf	___xxtofl@val,w
  3704  0659  00A2               	movwf	___xxtofl@arg
  3705  065A                     i1l877:	
  3706  065A  0878               	movf	___xxtofl@val+3,w
  3707  065B  0477               	iorwf	___xxtofl@val+2,w
  3708  065C  0476               	iorwf	___xxtofl@val+1,w
  3709  065D  0475               	iorwf	___xxtofl@val,w
  3710  065E  1D03               	skipz
  3711  065F  2E61               	goto	u287_21
  3712  0660  2E62               	goto	u287_20
  3713  0661                     u287_21:	
  3714  0661  2E6B               	goto	i1l2882
  3715  0662                     u287_20:	
  3716  0662                     i1l2878:	
  3717  0662  3000               	movlw	0
  3718  0663  00F8               	movwf	?___xxtofl+3
  3719  0664  3000               	movlw	0
  3720  0665  00F7               	movwf	?___xxtofl+2
  3721  0666  3000               	movlw	0
  3722  0667  00F6               	movwf	?___xxtofl+1
  3723  0668  3000               	movlw	0
  3724  0669  00F5               	movwf	?___xxtofl
  3725  066A  2EF1               	goto	i1l879
  3726  066B                     i1l2882:	
  3727  066B  3096               	movlw	150
  3728  066C  00F9               	movwf	??___xxtofl
  3729  066D  0879               	movf	??___xxtofl,w
  3730  066E  00A1               	movwf	___xxtofl@exp
  3731  066F  2E7D               	goto	i1l2886
  3732  0670                     i1l2884:	
  3733  0670  3001               	movlw	1
  3734  0671  00F9               	movwf	??___xxtofl
  3735  0672  0879               	movf	??___xxtofl,w
  3736  0673  07A1               	addwf	___xxtofl@exp,f
  3737  0674  3001               	movlw	1
  3738  0675                     u288_25:	
  3739  0675  1003               	clrc
  3740  0676  0CA5               	rrf	___xxtofl@arg+3,f
  3741  0677  0CA4               	rrf	___xxtofl@arg+2,f
  3742  0678  0CA3               	rrf	___xxtofl@arg+1,f
  3743  0679  0CA2               	rrf	___xxtofl@arg,f
  3744  067A  3EFF               	addlw	-1
  3745  067B  1D03               	skipz
  3746  067C  2E75               	goto	u288_25
  3747  067D                     i1l2886:	
  3748  067D  30FE               	movlw	254
  3749  067E  0525               	andwf	___xxtofl@arg+3,w
  3750  067F  1D03               	btfss	3,2
  3751  0680  2E82               	goto	u289_21
  3752  0681  2E83               	goto	u289_20
  3753  0682                     u289_21:	
  3754  0682  2E70               	goto	i1l2884
  3755  0683                     u289_20:	
  3756  0683  2E9F               	goto	i1l883
  3757  0684                     i1l2888:	
  3758  0684  3001               	movlw	1
  3759  0685  00F9               	movwf	??___xxtofl
  3760  0686  0879               	movf	??___xxtofl,w
  3761  0687  07A1               	addwf	___xxtofl@exp,f
  3762  0688                     i1l2890:	
  3763  0688  3001               	movlw	1
  3764  0689  07A2               	addwf	___xxtofl@arg,f
  3765  068A  3000               	movlw	0
  3766  068B  1803               	skipnc
  3767  068C  3001               	movlw	1
  3768  068D  07A3               	addwf	___xxtofl@arg+1,f
  3769  068E  3000               	movlw	0
  3770  068F  1803               	skipnc
  3771  0690  3001               	movlw	1
  3772  0691  07A4               	addwf	___xxtofl@arg+2,f
  3773  0692  3000               	movlw	0
  3774  0693  1803               	skipnc
  3775  0694  3001               	movlw	1
  3776  0695  07A5               	addwf	___xxtofl@arg+3,f
  3777  0696                     i1l2892:	
  3778  0696  3001               	movlw	1
  3779  0697                     u290_25:	
  3780  0697  1003               	clrc
  3781  0698  0CA5               	rrf	___xxtofl@arg+3,f
  3782  0699  0CA4               	rrf	___xxtofl@arg+2,f
  3783  069A  0CA3               	rrf	___xxtofl@arg+1,f
  3784  069B  0CA2               	rrf	___xxtofl@arg,f
  3785  069C  3EFF               	addlw	-1
  3786  069D  1D03               	skipz
  3787  069E  2E97               	goto	u290_25
  3788  069F                     i1l883:	
  3789  069F  30FF               	movlw	255
  3790  06A0  0525               	andwf	___xxtofl@arg+3,w
  3791  06A1  1D03               	btfss	3,2
  3792  06A2  2EA4               	goto	u291_21
  3793  06A3  2EA5               	goto	u291_20
  3794  06A4                     u291_21:	
  3795  06A4  2E84               	goto	i1l2888
  3796  06A5                     u291_20:	
  3797  06A5  2EB1               	goto	i1l2896
  3798  06A6                     i1l2894:	
  3799  06A6  3001               	movlw	1
  3800  06A7  02A1               	subwf	___xxtofl@exp,f
  3801  06A8  3001               	movlw	1
  3802  06A9  00F9               	movwf	??___xxtofl
  3803  06AA                     u292_25:	
  3804  06AA  1003               	clrc
  3805  06AB  0DA2               	rlf	___xxtofl@arg,f
  3806  06AC  0DA3               	rlf	___xxtofl@arg+1,f
  3807  06AD  0DA4               	rlf	___xxtofl@arg+2,f
  3808  06AE  0DA5               	rlf	___xxtofl@arg+3,f
  3809  06AF  0BF9               	decfsz	??___xxtofl,f
  3810  06B0  2EAA               	goto	u292_25
  3811  06B1                     i1l2896:	
  3812  06B1  1BA4               	btfsc	___xxtofl@arg+2,7
  3813  06B2  2EB4               	goto	u293_21
  3814  06B3  2EB5               	goto	u293_20
  3815  06B4                     u293_21:	
  3816  06B4  2EBB               	goto	i1l890
  3817  06B5                     u293_20:	
  3818  06B5                     i1l2898:	
  3819  06B5  3002               	movlw	2
  3820  06B6  0221               	subwf	___xxtofl@exp,w
  3821  06B7  1803               	skipnc
  3822  06B8  2EBA               	goto	u294_21
  3823  06B9  2EBB               	goto	u294_20
  3824  06BA                     u294_21:	
  3825  06BA  2EA6               	goto	i1l2894
  3826  06BB                     u294_20:	
  3827  06BB                     i1l890:	
  3828  06BB  1821               	btfsc	___xxtofl@exp,0
  3829  06BC  2EBE               	goto	u295_21
  3830  06BD  2EBF               	goto	u295_20
  3831  06BE                     u295_21:	
  3832  06BE  2EC7               	goto	i1l891
  3833  06BF                     u295_20:	
  3834  06BF                     i1l2900:	
  3835  06BF  30FF               	movlw	255
  3836  06C0  05A2               	andwf	___xxtofl@arg,f
  3837  06C1  30FF               	movlw	255
  3838  06C2  05A3               	andwf	___xxtofl@arg+1,f
  3839  06C3  307F               	movlw	127
  3840  06C4  05A4               	andwf	___xxtofl@arg+2,f
  3841  06C5  30FF               	movlw	255
  3842  06C6  05A5               	andwf	___xxtofl@arg+3,f
  3843  06C7                     i1l891:	
  3844  06C7  1003               	clrc
  3845  06C8  0CA1               	rrf	___xxtofl@exp,f
  3846  06C9                     i1l2902:	
  3847  06C9  0821               	movf	___xxtofl@exp,w
  3848  06CA  00F9               	movwf	??___xxtofl
  3849  06CB  01FA               	clrf	??___xxtofl+1
  3850  06CC  01FB               	clrf	??___xxtofl+2
  3851  06CD  01FC               	clrf	??___xxtofl+3
  3852  06CE  3018               	movlw	24
  3853  06CF                     u296_25:	
  3854  06CF  1003               	clrc
  3855  06D0  0DF9               	rlf	??___xxtofl,f
  3856  06D1  0DFA               	rlf	??___xxtofl+1,f
  3857  06D2  0DFB               	rlf	??___xxtofl+2,f
  3858  06D3  0DFC               	rlf	??___xxtofl+3,f
  3859  06D4                     u296_20:	
  3860  06D4  3EFF               	addlw	-1
  3861  06D5  1D03               	skipz
  3862  06D6  2ECF               	goto	u296_25
  3863  06D7  0879               	movf	??___xxtofl,w
  3864  06D8  04A2               	iorwf	___xxtofl@arg,f
  3865  06D9  087A               	movf	??___xxtofl+1,w
  3866  06DA  04A3               	iorwf	___xxtofl@arg+1,f
  3867  06DB  087B               	movf	??___xxtofl+2,w
  3868  06DC  04A4               	iorwf	___xxtofl@arg+2,f
  3869  06DD  087C               	movf	??___xxtofl+3,w
  3870  06DE  04A5               	iorwf	___xxtofl@arg+3,f
  3871  06DF                     i1l2904:	
  3872  06DF  0820               	movf	___xxtofl@sign,w
  3873  06E0  1903               	btfsc	3,2
  3874  06E1  2EE3               	goto	u297_21
  3875  06E2  2EE4               	goto	u297_20
  3876  06E3                     u297_21:	
  3877  06E3  2EE9               	goto	i1l2910
  3878  06E4                     u297_20:	
  3879  06E4                     i1l2906:	
  3880  06E4  1FF8               	btfss	___xxtofl@val+3,7
  3881  06E5  2EE7               	goto	u298_21
  3882  06E6  2EE8               	goto	u298_20
  3883  06E7                     u298_21:	
  3884  06E7  2EE9               	goto	i1l2910
  3885  06E8                     u298_20:	
  3886  06E8                     i1l2908:	
  3887  06E8  17A5               	bsf	___xxtofl@arg+3,7
  3888  06E9                     i1l2910:	
  3889  06E9  0825               	movf	___xxtofl@arg+3,w
  3890  06EA  00F8               	movwf	?___xxtofl+3
  3891  06EB  0824               	movf	___xxtofl@arg+2,w
  3892  06EC  00F7               	movwf	?___xxtofl+2
  3893  06ED  0823               	movf	___xxtofl@arg+1,w
  3894  06EE  00F6               	movwf	?___xxtofl+1
  3895  06EF  0822               	movf	___xxtofl@arg,w
  3896  06F0  00F5               	movwf	?___xxtofl
  3897  06F1                     i1l879:	
  3898  06F1  0008               	return
  3899  06F2                     __end_of___xxtofl:	
  3900                           
  3901                           	psect	text22
  3902  0EED                     __ptext22:	
  3903 ;; *************** function ___fltol *****************
  3904 ;; Defined at:
  3905 ;;		line 43 in file "C:\Program Files (x86)\Microchip\xc8\v2.10\pic\sources\c90\common\fltol.c"
  3906 ;; Parameters:    Size  Location     Type
  3907 ;;  f1              4   32[BANK0 ] unsigned char 
  3908 ;; Auto vars:     Size  Location     Type
  3909 ;;  exp1            1   42[BANK0 ] unsigned char 
  3910 ;;  sign1           1   41[BANK0 ] unsigned char 
  3911 ;; Return value:  Size  Location     Type
  3912 ;;                  4   32[BANK0 ] long 
  3913 ;; Registers used:
  3914 ;;		wreg, status,2, status,0
  3915 ;; Tracked objects:
  3916 ;;		On entry : 0/0
  3917 ;;		On exit  : 0/0
  3918 ;;		Unchanged: 0/0
  3919 ;; Data sizes:     COMMON   BANK0   BANK1   BANK3   BANK2
  3920 ;;      Params:         0       4       0       0       0
  3921 ;;      Locals:         0       2       0       0       0
  3922 ;;      Temps:          0       5       0       0       0
  3923 ;;      Totals:         0      11       0       0       0
  3924 ;;Total ram usage:       11 bytes
  3925 ;; Hardware stack levels used:    1
  3926 ;; This function calls:
  3927 ;;		Nothing
  3928 ;; This function is called by:
  3929 ;;		_temp_sensor_read
  3930 ;; This function uses a non-reentrant model
  3931 ;;
  3932                           
  3933                           
  3934                           ;psect for function ___fltol
  3935  0EED                     ___fltol:	
  3936  0EED                     i1l2552:	
  3937                           ;incstack = 0
  3938                           ; Regs used in ___fltol: [wreg+status,2+status,0]
  3939                           
  3940  0EED  1003               	clrc
  3941  0EEE  1283               	bcf	3,5	;RP0=0, select bank0
  3942  0EEF  1303               	bcf	3,6	;RP1=0, select bank0
  3943  0EF0  0D42               	rlf	___fltol@f1+2,w
  3944  0EF1  0D43               	rlf	___fltol@f1+3,w
  3945  0EF2  00C4               	movwf	??___fltol
  3946  0EF3  0844               	movf	??___fltol,w
  3947  0EF4  00CA               	movwf	___fltol@exp1
  3948  0EF5  084A               	movf	___fltol@exp1,w
  3949  0EF6  1D03               	btfss	3,2
  3950  0EF7  2EF9               	goto	u209_21
  3951  0EF8  2EFA               	goto	u209_20
  3952  0EF9                     u209_21:	
  3953  0EF9  2F03               	goto	i1l2558
  3954  0EFA                     u209_20:	
  3955  0EFA                     i1l2554:	
  3956  0EFA  3000               	movlw	0
  3957  0EFB  00C3               	movwf	?___fltol+3
  3958  0EFC  3000               	movlw	0
  3959  0EFD  00C2               	movwf	?___fltol+2
  3960  0EFE  3000               	movlw	0
  3961  0EFF  00C1               	movwf	?___fltol+1
  3962  0F00  3000               	movlw	0
  3963  0F01  00C0               	movwf	?___fltol
  3964  0F02  2F68               	goto	i1l636
  3965  0F03                     i1l2558:	
  3966  0F03  0840               	movf	___fltol@f1,w
  3967  0F04  00C4               	movwf	??___fltol
  3968  0F05  0841               	movf	___fltol@f1+1,w
  3969  0F06  00C5               	movwf	??___fltol+1
  3970  0F07  0842               	movf	___fltol@f1+2,w
  3971  0F08  00C6               	movwf	??___fltol+2
  3972  0F09  0843               	movf	___fltol@f1+3,w
  3973  0F0A  00C7               	movwf	??___fltol+3
  3974  0F0B  301F               	movlw	31
  3975  0F0C                     u210_25:	
  3976  0F0C  1003               	clrc
  3977  0F0D  0CC7               	rrf	??___fltol+3,f
  3978  0F0E  0CC6               	rrf	??___fltol+2,f
  3979  0F0F  0CC5               	rrf	??___fltol+1,f
  3980  0F10  0CC4               	rrf	??___fltol,f
  3981  0F11                     u210_20:	
  3982  0F11  3EFF               	addlw	-1
  3983  0F12  1D03               	skipz
  3984  0F13  2F0C               	goto	u210_25
  3985  0F14  0844               	movf	??___fltol,w
  3986  0F15  00C8               	movwf	??___fltol+4
  3987  0F16  0848               	movf	??___fltol+4,w
  3988  0F17  00C9               	movwf	___fltol@sign1
  3989  0F18                     i1l2560:	
  3990  0F18  17C2               	bsf	___fltol@f1+2,7
  3991  0F19                     i1l2562:	
  3992  0F19  30FF               	movlw	255
  3993  0F1A  05C0               	andwf	___fltol@f1,f
  3994  0F1B  30FF               	movlw	255
  3995  0F1C  05C1               	andwf	___fltol@f1+1,f
  3996  0F1D  30FF               	movlw	255
  3997  0F1E  05C2               	andwf	___fltol@f1+2,f
  3998  0F1F  3000               	movlw	0
  3999  0F20  05C3               	andwf	___fltol@f1+3,f
  4000  0F21                     i1l2564:	
  4001  0F21  3096               	movlw	150
  4002  0F22  02CA               	subwf	___fltol@exp1,f
  4003  0F23                     i1l2566:	
  4004  0F23  1FCA               	btfss	___fltol@exp1,7
  4005  0F24  2F26               	goto	u211_21
  4006  0F25  2F27               	goto	u211_20
  4007  0F26                     u211_21:	
  4008  0F26  2F41               	goto	i1l2576
  4009  0F27                     u211_20:	
  4010  0F27                     i1l2568:	
  4011  0F27  084A               	movf	___fltol@exp1,w
  4012  0F28  3A80               	xorlw	128
  4013  0F29  3E97               	addlw	151
  4014  0F2A  1803               	skipnc
  4015  0F2B  2F2D               	goto	u212_21
  4016  0F2C  2F2E               	goto	u212_20
  4017  0F2D                     u212_21:	
  4018  0F2D  2F2F               	goto	i1l2574
  4019  0F2E                     u212_20:	
  4020  0F2E  2EFA               	goto	i1l2554
  4021  0F2F                     i1l2574:	
  4022  0F2F  3001               	movlw	1
  4023  0F30                     u213_25:	
  4024  0F30  1003               	clrc
  4025  0F31  0CC3               	rrf	___fltol@f1+3,f
  4026  0F32  0CC2               	rrf	___fltol@f1+2,f
  4027  0F33  0CC1               	rrf	___fltol@f1+1,f
  4028  0F34  0CC0               	rrf	___fltol@f1,f
  4029  0F35  3EFF               	addlw	-1
  4030  0F36  1D03               	skipz
  4031  0F37  2F30               	goto	u213_25
  4032  0F38  3001               	movlw	1
  4033  0F39  00C4               	movwf	??___fltol
  4034  0F3A  0844               	movf	??___fltol,w
  4035  0F3B  07CA               	addwf	___fltol@exp1,f
  4036  0F3C  1D03               	btfss	3,2
  4037  0F3D  2F3F               	goto	u214_21
  4038  0F3E  2F40               	goto	u214_20
  4039  0F3F                     u214_21:	
  4040  0F3F  2F2F               	goto	i1l2574
  4041  0F40                     u214_20:	
  4042  0F40  2F58               	goto	i1l2584
  4043  0F41                     i1l2576:	
  4044  0F41  3020               	movlw	32
  4045  0F42  024A               	subwf	___fltol@exp1,w
  4046  0F43  1C03               	skipc
  4047  0F44  2F46               	goto	u215_21
  4048  0F45  2F47               	goto	u215_20
  4049  0F46                     u215_21:	
  4050  0F46  2F53               	goto	i1l643
  4051  0F47                     u215_20:	
  4052  0F47  2EFA               	goto	i1l2554
  4053  0F48                     i1l2582:	
  4054  0F48  3001               	movlw	1
  4055  0F49  00C4               	movwf	??___fltol
  4056  0F4A                     u216_25:	
  4057  0F4A  1003               	clrc
  4058  0F4B  0DC0               	rlf	___fltol@f1,f
  4059  0F4C  0DC1               	rlf	___fltol@f1+1,f
  4060  0F4D  0DC2               	rlf	___fltol@f1+2,f
  4061  0F4E  0DC3               	rlf	___fltol@f1+3,f
  4062  0F4F  0BC4               	decfsz	??___fltol,f
  4063  0F50  2F4A               	goto	u216_25
  4064  0F51  3001               	movlw	1
  4065  0F52  02CA               	subwf	___fltol@exp1,f
  4066  0F53                     i1l643:	
  4067  0F53  084A               	movf	___fltol@exp1,w
  4068  0F54  1D03               	btfss	3,2
  4069  0F55  2F57               	goto	u217_21
  4070  0F56  2F58               	goto	u217_20
  4071  0F57                     u217_21:	
  4072  0F57  2F48               	goto	i1l2582
  4073  0F58                     u217_20:	
  4074  0F58                     i1l2584:	
  4075  0F58  0849               	movf	___fltol@sign1,w
  4076  0F59  1903               	btfsc	3,2
  4077  0F5A  2F5C               	goto	u218_21
  4078  0F5B  2F5D               	goto	u218_20
  4079  0F5C                     u218_21:	
  4080  0F5C  2F68               	goto	i1l646
  4081  0F5D                     u218_20:	
  4082  0F5D                     i1l2586:	
  4083  0F5D  09C0               	comf	___fltol@f1,f
  4084  0F5E  09C1               	comf	___fltol@f1+1,f
  4085  0F5F  09C2               	comf	___fltol@f1+2,f
  4086  0F60  09C3               	comf	___fltol@f1+3,f
  4087  0F61  0AC0               	incf	___fltol@f1,f
  4088  0F62  1903               	skipnz
  4089  0F63  0AC1               	incf	___fltol@f1+1,f
  4090  0F64  1903               	skipnz
  4091  0F65  0AC2               	incf	___fltol@f1+2,f
  4092  0F66  1903               	skipnz
  4093  0F67  0AC3               	incf	___fltol@f1+3,f
  4094  0F68                     i1l646:	
  4095  0F68                     i1l636:	
  4096  0F68  0008               	return
  4097  0F69                     __end_of___fltol:	
  4098                           
  4099                           	psect	text23
  4100  003C                     __ptext23:	
  4101 ;; *************** function ___flmul *****************
  4102 ;; Defined at:
  4103 ;;		line 8 in file "C:\Program Files (x86)\Microchip\xc8\v2.10\pic\sources\c90\common\sprcmul.c"
  4104 ;; Parameters:    Size  Location     Type
  4105 ;;  b               4    6[BANK0 ] long 
  4106 ;;  a               4   10[BANK0 ] long 
  4107 ;; Auto vars:     Size  Location     Type
  4108 ;;  prod            4   26[BANK0 ] struct .
  4109 ;;  grs             4   20[BANK0 ] unsigned long 
  4110 ;;  temp            2   30[BANK0 ] struct .
  4111 ;;  bexp            1   25[BANK0 ] unsigned char 
  4112 ;;  aexp            1   24[BANK0 ] unsigned char 
  4113 ;;  sign            1   19[BANK0 ] unsigned char 
  4114 ;; Return value:  Size  Location     Type
  4115 ;;                  4    6[BANK0 ] unsigned char 
  4116 ;; Registers used:
  4117 ;;		wreg, status,2, status,0, btemp+1, pclath, cstack
  4118 ;; Tracked objects:
  4119 ;;		On entry : 0/0
  4120 ;;		On exit  : 0/0
  4121 ;;		Unchanged: 0/0
  4122 ;; Data sizes:     COMMON   BANK0   BANK1   BANK3   BANK2
  4123 ;;      Params:         0       8       0       0       0
  4124 ;;      Locals:         0      13       0       0       0
  4125 ;;      Temps:          0       5       0       0       0
  4126 ;;      Totals:         0      26       0       0       0
  4127 ;;Total ram usage:       26 bytes
  4128 ;; Hardware stack levels used:    1
  4129 ;; Hardware stack levels required when called:    1
  4130 ;; This function calls:
  4131 ;;		__Umul8_16
  4132 ;; This function is called by:
  4133 ;;		_temp_sensor_read
  4134 ;; This function uses a non-reentrant model
  4135 ;;
  4136                           
  4137                           
  4138                           ;psect for function ___flmul
  4139  003C                     ___flmul:	
  4140  003C                     i1l2730:	
  4141                           ;incstack = 0
  4142                           ; Regs used in ___flmul: [wreg+status,2+status,0+btemp+1+pclath+cstack]
  4143                           
  4144  003C  1283               	bcf	3,5	;RP0=0, select bank0
  4145  003D  1303               	bcf	3,6	;RP1=0, select bank0
  4146  003E  0829               	movf	___flmul@b+3,w
  4147  003F  3980               	andlw	128
  4148  0040  00AE               	movwf	??___flmul
  4149  0041  082E               	movf	??___flmul,w
  4150  0042  00B3               	movwf	___flmul@sign
  4151  0043                     i1l2732:	
  4152  0043  0829               	movf	___flmul@b+3,w
  4153  0044  00AE               	movwf	??___flmul
  4154  0045  072E               	addwf	??___flmul,w
  4155  0046  00AF               	movwf	??___flmul+1
  4156  0047  082F               	movf	??___flmul+1,w
  4157  0048  00B9               	movwf	___flmul@bexp
  4158  0049                     i1l2734:	
  4159  0049  1FA8               	btfss	___flmul@b+2,7
  4160  004A  284C               	goto	u248_21
  4161  004B  284D               	goto	u248_20
  4162  004C                     u248_21:	
  4163  004C  284E               	goto	i1l2738
  4164  004D                     u248_20:	
  4165  004D                     i1l2736:	
  4166  004D  1439               	bsf	___flmul@bexp,0
  4167  004E                     i1l2738:	
  4168  004E  0839               	movf	___flmul@bexp,w
  4169  004F  1903               	btfsc	3,2
  4170  0050  2852               	goto	u249_21
  4171  0051  2853               	goto	u249_20
  4172  0052                     u249_21:	
  4173  0052  2862               	goto	i1l2746
  4174  0053                     u249_20:	
  4175  0053                     i1l2740:	
  4176  0053  0A39               	incf	___flmul@bexp,w
  4177  0054  1D03               	btfss	3,2
  4178  0055  2857               	goto	u250_21
  4179  0056  2858               	goto	u250_20
  4180  0057                     u250_21:	
  4181  0057  2860               	goto	i1l2744
  4182  0058                     u250_20:	
  4183  0058                     i1l2742:	
  4184  0058  3000               	movlw	0
  4185  0059  00A9               	movwf	___flmul@b+3
  4186  005A  3000               	movlw	0
  4187  005B  00A8               	movwf	___flmul@b+2
  4188  005C  3000               	movlw	0
  4189  005D  00A7               	movwf	___flmul@b+1
  4190  005E  3000               	movlw	0
  4191  005F  00A6               	movwf	___flmul@b
  4192  0060                     i1l2744:	
  4193  0060  17A8               	bsf	___flmul@b+2,7
  4194  0061  286A               	goto	i1l2748
  4195  0062                     i1l2746:	
  4196  0062  3000               	movlw	0
  4197  0063  00A9               	movwf	___flmul@b+3
  4198  0064  3000               	movlw	0
  4199  0065  00A8               	movwf	___flmul@b+2
  4200  0066  3000               	movlw	0
  4201  0067  00A7               	movwf	___flmul@b+1
  4202  0068  3000               	movlw	0
  4203  0069  00A6               	movwf	___flmul@b
  4204  006A                     i1l2748:	
  4205  006A  082D               	movf	___flmul@a+3,w
  4206  006B  3980               	andlw	128
  4207  006C  00AE               	movwf	??___flmul
  4208  006D  082E               	movf	??___flmul,w
  4209  006E  06B3               	xorwf	___flmul@sign,f
  4210  006F                     i1l2750:	
  4211  006F  082D               	movf	___flmul@a+3,w
  4212  0070  00AE               	movwf	??___flmul
  4213  0071  072E               	addwf	??___flmul,w
  4214  0072  00AF               	movwf	??___flmul+1
  4215  0073  082F               	movf	??___flmul+1,w
  4216  0074  00B8               	movwf	___flmul@aexp
  4217  0075                     i1l2752:	
  4218  0075  1FAC               	btfss	___flmul@a+2,7
  4219  0076  2878               	goto	u251_21
  4220  0077  2879               	goto	u251_20
  4221  0078                     u251_21:	
  4222  0078  287A               	goto	i1l2756
  4223  0079                     u251_20:	
  4224  0079                     i1l2754:	
  4225  0079  1438               	bsf	___flmul@aexp,0
  4226  007A                     i1l2756:	
  4227  007A  0838               	movf	___flmul@aexp,w
  4228  007B  1903               	btfsc	3,2
  4229  007C  287E               	goto	u252_21
  4230  007D  287F               	goto	u252_20
  4231  007E                     u252_21:	
  4232  007E  288E               	goto	i1l2764
  4233  007F                     u252_20:	
  4234  007F                     i1l2758:	
  4235  007F  0A38               	incf	___flmul@aexp,w
  4236  0080  1D03               	btfss	3,2
  4237  0081  2883               	goto	u253_21
  4238  0082  2884               	goto	u253_20
  4239  0083                     u253_21:	
  4240  0083  288C               	goto	i1l2762
  4241  0084                     u253_20:	
  4242  0084                     i1l2760:	
  4243  0084  3000               	movlw	0
  4244  0085  00AD               	movwf	___flmul@a+3
  4245  0086  3000               	movlw	0
  4246  0087  00AC               	movwf	___flmul@a+2
  4247  0088  3000               	movlw	0
  4248  0089  00AB               	movwf	___flmul@a+1
  4249  008A  3000               	movlw	0
  4250  008B  00AA               	movwf	___flmul@a
  4251  008C                     i1l2762:	
  4252  008C  17AC               	bsf	___flmul@a+2,7
  4253  008D  2896               	goto	i1l2766
  4254  008E                     i1l2764:	
  4255  008E  3000               	movlw	0
  4256  008F  00AD               	movwf	___flmul@a+3
  4257  0090  3000               	movlw	0
  4258  0091  00AC               	movwf	___flmul@a+2
  4259  0092  3000               	movlw	0
  4260  0093  00AB               	movwf	___flmul@a+1
  4261  0094  3000               	movlw	0
  4262  0095  00AA               	movwf	___flmul@a
  4263  0096                     i1l2766:	
  4264  0096  0838               	movf	___flmul@aexp,w
  4265  0097  1903               	btfsc	3,2
  4266  0098  289A               	goto	u254_21
  4267  0099  289B               	goto	u254_20
  4268  009A                     u254_21:	
  4269  009A  28A0               	goto	i1l2770
  4270  009B                     u254_20:	
  4271  009B                     i1l2768:	
  4272  009B  0839               	movf	___flmul@bexp,w
  4273  009C  1D03               	btfss	3,2
  4274  009D  289F               	goto	u255_21
  4275  009E  28A0               	goto	u255_20
  4276  009F                     u255_21:	
  4277  009F  28A9               	goto	i1l2774
  4278  00A0                     u255_20:	
  4279  00A0                     i1l2770:	
  4280  00A0  3000               	movlw	0
  4281  00A1  00A9               	movwf	?___flmul+3
  4282  00A2  3000               	movlw	0
  4283  00A3  00A8               	movwf	?___flmul+2
  4284  00A4  3000               	movlw	0
  4285  00A5  00A7               	movwf	?___flmul+1
  4286  00A6  3000               	movlw	0
  4287  00A7  00A6               	movwf	?___flmul
  4288  00A8  2B9C               	goto	i1l839
  4289  00A9                     i1l2774:	
  4290  00A9  0826               	movf	___flmul@b,w
  4291  00AA  00AE               	movwf	??___flmul
  4292  00AB  082E               	movf	??___flmul,w
  4293  00AC  00F0               	movwf	__Umul8_16@multiplicand
  4294  00AD  082C               	movf	___flmul@a+2,w
  4295  00AE  120A  158A  2339  120A  118A  	fcall	__Umul8_16
  4296  00B3  0871               	movf	?__Umul8_16+1,w
  4297  00B4  1283               	bcf	3,5	;RP0=0, select bank0
  4298  00B5  1303               	bcf	3,6	;RP1=0, select bank0
  4299  00B6  00BF               	movwf	___flmul@temp+1
  4300  00B7  0870               	movf	?__Umul8_16,w
  4301  00B8  00BE               	movwf	___flmul@temp
  4302  00B9                     i1l2776:	
  4303  00B9  083E               	movf	___flmul@temp,w
  4304  00BA  00AE               	movwf	??___flmul
  4305  00BB  01AF               	clrf	??___flmul+1
  4306  00BC  01B0               	clrf	??___flmul+2
  4307  00BD  01B1               	clrf	??___flmul+3
  4308  00BE  0831               	movf	??___flmul+3,w
  4309  00BF  00B7               	movwf	___flmul@grs+3
  4310  00C0  0830               	movf	??___flmul+2,w
  4311  00C1  00B6               	movwf	___flmul@grs+2
  4312  00C2  082F               	movf	??___flmul+1,w
  4313  00C3  00B5               	movwf	___flmul@grs+1
  4314  00C4  082E               	movf	??___flmul,w
  4315  00C5  00B4               	movwf	___flmul@grs
  4316  00C6                     i1l2778:	
  4317  00C6  083F               	movf	___flmul@temp+1,w
  4318  00C7  00AE               	movwf	??___flmul
  4319  00C8  01AF               	clrf	??___flmul+1
  4320  00C9  01B0               	clrf	??___flmul+2
  4321  00CA  01B1               	clrf	??___flmul+3
  4322  00CB  0831               	movf	??___flmul+3,w
  4323  00CC  00BD               	movwf	___flmul@prod+3
  4324  00CD  0830               	movf	??___flmul+2,w
  4325  00CE  00BC               	movwf	___flmul@prod+2
  4326  00CF  082F               	movf	??___flmul+1,w
  4327  00D0  00BB               	movwf	___flmul@prod+1
  4328  00D1  082E               	movf	??___flmul,w
  4329  00D2  00BA               	movwf	___flmul@prod
  4330  00D3  0827               	movf	___flmul@b+1,w
  4331  00D4  00AE               	movwf	??___flmul
  4332  00D5  082E               	movf	??___flmul,w
  4333  00D6  00F0               	movwf	__Umul8_16@multiplicand
  4334  00D7  082B               	movf	___flmul@a+1,w
  4335  00D8  120A  158A  2339  120A  118A  	fcall	__Umul8_16
  4336  00DD  0871               	movf	?__Umul8_16+1,w
  4337  00DE  1283               	bcf	3,5	;RP0=0, select bank0
  4338  00DF  1303               	bcf	3,6	;RP1=0, select bank0
  4339  00E0  00BF               	movwf	___flmul@temp+1
  4340  00E1  0870               	movf	?__Umul8_16,w
  4341  00E2  00BE               	movwf	___flmul@temp
  4342  00E3                     i1l2780:	
  4343  00E3  083E               	movf	___flmul@temp,w
  4344  00E4  00AE               	movwf	??___flmul
  4345  00E5  01AF               	clrf	??___flmul+1
  4346  00E6  01B0               	clrf	??___flmul+2
  4347  00E7  01B1               	clrf	??___flmul+3
  4348  00E8  082E               	movf	??___flmul,w
  4349  00E9  07B4               	addwf	___flmul@grs,f
  4350  00EA  082F               	movf	??___flmul+1,w
  4351  00EB  1103               	clrz
  4352  00EC  1803               	skipnc
  4353  00ED  3E01               	addlw	1
  4354  00EE  1903               	skipnz
  4355  00EF  28F1               	goto	u256_21
  4356  00F0  07B5               	addwf	___flmul@grs+1,f
  4357  00F1                     u256_21:	
  4358  00F1  0830               	movf	??___flmul+2,w
  4359  00F2  1103               	clrz
  4360  00F3  1803               	skipnc
  4361  00F4  3E01               	addlw	1
  4362  00F5  1903               	skipnz
  4363  00F6  28F8               	goto	u256_22
  4364  00F7  07B6               	addwf	___flmul@grs+2,f
  4365  00F8                     u256_22:	
  4366  00F8  0831               	movf	??___flmul+3,w
  4367  00F9  1103               	clrz
  4368  00FA  1803               	skipnc
  4369  00FB  3E01               	addlw	1
  4370  00FC  1903               	skipnz
  4371  00FD  28FF               	goto	u256_23
  4372  00FE  07B7               	addwf	___flmul@grs+3,f
  4373  00FF                     u256_23:	
  4374  00FF                     i1l2782:	
  4375  00FF  083F               	movf	___flmul@temp+1,w
  4376  0100  00AE               	movwf	??___flmul
  4377  0101  01AF               	clrf	??___flmul+1
  4378  0102  01B0               	clrf	??___flmul+2
  4379  0103  01B1               	clrf	??___flmul+3
  4380  0104  082E               	movf	??___flmul,w
  4381  0105  07BA               	addwf	___flmul@prod,f
  4382  0106  082F               	movf	??___flmul+1,w
  4383  0107  1103               	clrz
  4384  0108  1803               	skipnc
  4385  0109  3E01               	addlw	1
  4386  010A  1903               	skipnz
  4387  010B  290D               	goto	u257_21
  4388  010C  07BB               	addwf	___flmul@prod+1,f
  4389  010D                     u257_21:	
  4390  010D  0830               	movf	??___flmul+2,w
  4391  010E  1103               	clrz
  4392  010F  1803               	skipnc
  4393  0110  3E01               	addlw	1
  4394  0111  1903               	skipnz
  4395  0112  2914               	goto	u257_22
  4396  0113  07BC               	addwf	___flmul@prod+2,f
  4397  0114                     u257_22:	
  4398  0114  0831               	movf	??___flmul+3,w
  4399  0115  1103               	clrz
  4400  0116  1803               	skipnc
  4401  0117  3E01               	addlw	1
  4402  0118  1903               	skipnz
  4403  0119  291B               	goto	u257_23
  4404  011A  07BD               	addwf	___flmul@prod+3,f
  4405  011B                     u257_23:	
  4406  011B  0828               	movf	___flmul@b+2,w
  4407  011C  00AE               	movwf	??___flmul
  4408  011D  082E               	movf	??___flmul,w
  4409  011E  00F0               	movwf	__Umul8_16@multiplicand
  4410  011F  082A               	movf	___flmul@a,w
  4411  0120  120A  158A  2339  120A  118A  	fcall	__Umul8_16
  4412  0125  0871               	movf	?__Umul8_16+1,w
  4413  0126  1283               	bcf	3,5	;RP0=0, select bank0
  4414  0127  1303               	bcf	3,6	;RP1=0, select bank0
  4415  0128  00BF               	movwf	___flmul@temp+1
  4416  0129  0870               	movf	?__Umul8_16,w
  4417  012A  00BE               	movwf	___flmul@temp
  4418  012B                     i1l2784:	
  4419  012B  083E               	movf	___flmul@temp,w
  4420  012C  00AE               	movwf	??___flmul
  4421  012D  01AF               	clrf	??___flmul+1
  4422  012E  01B0               	clrf	??___flmul+2
  4423  012F  01B1               	clrf	??___flmul+3
  4424  0130  082E               	movf	??___flmul,w
  4425  0131  07B4               	addwf	___flmul@grs,f
  4426  0132  082F               	movf	??___flmul+1,w
  4427  0133  1103               	clrz
  4428  0134  1803               	skipnc
  4429  0135  3E01               	addlw	1
  4430  0136  1903               	skipnz
  4431  0137  2939               	goto	u258_21
  4432  0138  07B5               	addwf	___flmul@grs+1,f
  4433  0139                     u258_21:	
  4434  0139  0830               	movf	??___flmul+2,w
  4435  013A  1103               	clrz
  4436  013B  1803               	skipnc
  4437  013C  3E01               	addlw	1
  4438  013D  1903               	skipnz
  4439  013E  2940               	goto	u258_22
  4440  013F  07B6               	addwf	___flmul@grs+2,f
  4441  0140                     u258_22:	
  4442  0140  0831               	movf	??___flmul+3,w
  4443  0141  1103               	clrz
  4444  0142  1803               	skipnc
  4445  0143  3E01               	addlw	1
  4446  0144  1903               	skipnz
  4447  0145  2947               	goto	u258_23
  4448  0146  07B7               	addwf	___flmul@grs+3,f
  4449  0147                     u258_23:	
  4450  0147                     i1l2786:	
  4451  0147  083F               	movf	___flmul@temp+1,w
  4452  0148  00AE               	movwf	??___flmul
  4453  0149  01AF               	clrf	??___flmul+1
  4454  014A  01B0               	clrf	??___flmul+2
  4455  014B  01B1               	clrf	??___flmul+3
  4456  014C  082E               	movf	??___flmul,w
  4457  014D  07BA               	addwf	___flmul@prod,f
  4458  014E  082F               	movf	??___flmul+1,w
  4459  014F  1103               	clrz
  4460  0150  1803               	skipnc
  4461  0151  3E01               	addlw	1
  4462  0152  1903               	skipnz
  4463  0153  2955               	goto	u259_21
  4464  0154  07BB               	addwf	___flmul@prod+1,f
  4465  0155                     u259_21:	
  4466  0155  0830               	movf	??___flmul+2,w
  4467  0156  1103               	clrz
  4468  0157  1803               	skipnc
  4469  0158  3E01               	addlw	1
  4470  0159  1903               	skipnz
  4471  015A  295C               	goto	u259_22
  4472  015B  07BC               	addwf	___flmul@prod+2,f
  4473  015C                     u259_22:	
  4474  015C  0831               	movf	??___flmul+3,w
  4475  015D  1103               	clrz
  4476  015E  1803               	skipnc
  4477  015F  3E01               	addlw	1
  4478  0160  1903               	skipnz
  4479  0161  2963               	goto	u259_23
  4480  0162  07BD               	addwf	___flmul@prod+3,f
  4481  0163                     u259_23:	
  4482  0163                     i1l2788:	
  4483  0163  3008               	movlw	8
  4484  0164  00AE               	movwf	??___flmul
  4485  0165                     u260_25:	
  4486  0165  1003               	clrc
  4487  0166  0DB4               	rlf	___flmul@grs,f
  4488  0167  0DB5               	rlf	___flmul@grs+1,f
  4489  0168  0DB6               	rlf	___flmul@grs+2,f
  4490  0169  0DB7               	rlf	___flmul@grs+3,f
  4491  016A  0BAE               	decfsz	??___flmul,f
  4492  016B  2965               	goto	u260_25
  4493  016C                     i1l2790:	
  4494  016C  0827               	movf	___flmul@b+1,w
  4495  016D  00AE               	movwf	??___flmul
  4496  016E  082E               	movf	??___flmul,w
  4497  016F  00F0               	movwf	__Umul8_16@multiplicand
  4498  0170  082A               	movf	___flmul@a,w
  4499  0171  120A  158A  2339  120A  118A  	fcall	__Umul8_16
  4500  0176  0871               	movf	?__Umul8_16+1,w
  4501  0177  1283               	bcf	3,5	;RP0=0, select bank0
  4502  0178  1303               	bcf	3,6	;RP1=0, select bank0
  4503  0179  00BF               	movwf	___flmul@temp+1
  4504  017A  0870               	movf	?__Umul8_16,w
  4505  017B  00BE               	movwf	___flmul@temp
  4506  017C                     i1l2792:	
  4507  017C  083E               	movf	___flmul@temp,w
  4508  017D  00AE               	movwf	??___flmul
  4509  017E  083F               	movf	___flmul@temp+1,w
  4510  017F  00AF               	movwf	??___flmul+1
  4511  0180  01B0               	clrf	??___flmul+2
  4512  0181  01B1               	clrf	??___flmul+3
  4513  0182  082E               	movf	??___flmul,w
  4514  0183  07B4               	addwf	___flmul@grs,f
  4515  0184  082F               	movf	??___flmul+1,w
  4516  0185  1103               	clrz
  4517  0186  1803               	skipnc
  4518  0187  3E01               	addlw	1
  4519  0188  1903               	skipnz
  4520  0189  298B               	goto	u261_21
  4521  018A  07B5               	addwf	___flmul@grs+1,f
  4522  018B                     u261_21:	
  4523  018B  0830               	movf	??___flmul+2,w
  4524  018C  1103               	clrz
  4525  018D  1803               	skipnc
  4526  018E  3E01               	addlw	1
  4527  018F  1903               	skipnz
  4528  0190  2992               	goto	u261_22
  4529  0191  07B6               	addwf	___flmul@grs+2,f
  4530  0192                     u261_22:	
  4531  0192  0831               	movf	??___flmul+3,w
  4532  0193  1103               	clrz
  4533  0194  1803               	skipnc
  4534  0195  3E01               	addlw	1
  4535  0196  1903               	skipnz
  4536  0197  2999               	goto	u261_23
  4537  0198  07B7               	addwf	___flmul@grs+3,f
  4538  0199                     u261_23:	
  4539  0199                     i1l2794:	
  4540  0199  0826               	movf	___flmul@b,w
  4541  019A  00AE               	movwf	??___flmul
  4542  019B  082E               	movf	??___flmul,w
  4543  019C  00F0               	movwf	__Umul8_16@multiplicand
  4544  019D  082B               	movf	___flmul@a+1,w
  4545  019E  120A  158A  2339  120A  118A  	fcall	__Umul8_16
  4546  01A3  0871               	movf	?__Umul8_16+1,w
  4547  01A4  1283               	bcf	3,5	;RP0=0, select bank0
  4548  01A5  1303               	bcf	3,6	;RP1=0, select bank0
  4549  01A6  00BF               	movwf	___flmul@temp+1
  4550  01A7  0870               	movf	?__Umul8_16,w
  4551  01A8  00BE               	movwf	___flmul@temp
  4552  01A9                     i1l2796:	
  4553  01A9  083E               	movf	___flmul@temp,w
  4554  01AA  00AE               	movwf	??___flmul
  4555  01AB  083F               	movf	___flmul@temp+1,w
  4556  01AC  00AF               	movwf	??___flmul+1
  4557  01AD  01B0               	clrf	??___flmul+2
  4558  01AE  01B1               	clrf	??___flmul+3
  4559  01AF  082E               	movf	??___flmul,w
  4560  01B0  07B4               	addwf	___flmul@grs,f
  4561  01B1  082F               	movf	??___flmul+1,w
  4562  01B2  1103               	clrz
  4563  01B3  1803               	skipnc
  4564  01B4  3E01               	addlw	1
  4565  01B5  1903               	skipnz
  4566  01B6  29B8               	goto	u262_21
  4567  01B7  07B5               	addwf	___flmul@grs+1,f
  4568  01B8                     u262_21:	
  4569  01B8  0830               	movf	??___flmul+2,w
  4570  01B9  1103               	clrz
  4571  01BA  1803               	skipnc
  4572  01BB  3E01               	addlw	1
  4573  01BC  1903               	skipnz
  4574  01BD  29BF               	goto	u262_22
  4575  01BE  07B6               	addwf	___flmul@grs+2,f
  4576  01BF                     u262_22:	
  4577  01BF  0831               	movf	??___flmul+3,w
  4578  01C0  1103               	clrz
  4579  01C1  1803               	skipnc
  4580  01C2  3E01               	addlw	1
  4581  01C3  1903               	skipnz
  4582  01C4  29C6               	goto	u262_23
  4583  01C5  07B7               	addwf	___flmul@grs+3,f
  4584  01C6                     u262_23:	
  4585  01C6                     i1l2798:	
  4586  01C6  3008               	movlw	8
  4587  01C7  00AE               	movwf	??___flmul
  4588  01C8                     u263_25:	
  4589  01C8  1003               	clrc
  4590  01C9  0DB4               	rlf	___flmul@grs,f
  4591  01CA  0DB5               	rlf	___flmul@grs+1,f
  4592  01CB  0DB6               	rlf	___flmul@grs+2,f
  4593  01CC  0DB7               	rlf	___flmul@grs+3,f
  4594  01CD  0BAE               	decfsz	??___flmul,f
  4595  01CE  29C8               	goto	u263_25
  4596  01CF  0826               	movf	___flmul@b,w
  4597  01D0  00AE               	movwf	??___flmul
  4598  01D1  082E               	movf	??___flmul,w
  4599  01D2  00F0               	movwf	__Umul8_16@multiplicand
  4600  01D3  082A               	movf	___flmul@a,w
  4601  01D4  120A  158A  2339  120A  118A  	fcall	__Umul8_16
  4602  01D9  0871               	movf	?__Umul8_16+1,w
  4603  01DA  1283               	bcf	3,5	;RP0=0, select bank0
  4604  01DB  1303               	bcf	3,6	;RP1=0, select bank0
  4605  01DC  00BF               	movwf	___flmul@temp+1
  4606  01DD  0870               	movf	?__Umul8_16,w
  4607  01DE  00BE               	movwf	___flmul@temp
  4608  01DF                     i1l2800:	
  4609  01DF  083E               	movf	___flmul@temp,w
  4610  01E0  00AE               	movwf	??___flmul
  4611  01E1  083F               	movf	___flmul@temp+1,w
  4612  01E2  00AF               	movwf	??___flmul+1
  4613  01E3  01B0               	clrf	??___flmul+2
  4614  01E4  01B1               	clrf	??___flmul+3
  4615  01E5  082E               	movf	??___flmul,w
  4616  01E6  07B4               	addwf	___flmul@grs,f
  4617  01E7  082F               	movf	??___flmul+1,w
  4618  01E8  1103               	clrz
  4619  01E9  1803               	skipnc
  4620  01EA  3E01               	addlw	1
  4621  01EB  1903               	skipnz
  4622  01EC  29EE               	goto	u264_21
  4623  01ED  07B5               	addwf	___flmul@grs+1,f
  4624  01EE                     u264_21:	
  4625  01EE  0830               	movf	??___flmul+2,w
  4626  01EF  1103               	clrz
  4627  01F0  1803               	skipnc
  4628  01F1  3E01               	addlw	1
  4629  01F2  1903               	skipnz
  4630  01F3  29F5               	goto	u264_22
  4631  01F4  07B6               	addwf	___flmul@grs+2,f
  4632  01F5                     u264_22:	
  4633  01F5  0831               	movf	??___flmul+3,w
  4634  01F6  1103               	clrz
  4635  01F7  1803               	skipnc
  4636  01F8  3E01               	addlw	1
  4637  01F9  1903               	skipnz
  4638  01FA  29FC               	goto	u264_23
  4639  01FB  07B7               	addwf	___flmul@grs+3,f
  4640  01FC                     u264_23:	
  4641  01FC                     i1l2802:	
  4642  01FC  0827               	movf	___flmul@b+1,w
  4643  01FD  00AE               	movwf	??___flmul
  4644  01FE  082E               	movf	??___flmul,w
  4645  01FF  00F0               	movwf	__Umul8_16@multiplicand
  4646  0200  082C               	movf	___flmul@a+2,w
  4647  0201  120A  158A  2339  120A  118A  	fcall	__Umul8_16
  4648  0206  0871               	movf	?__Umul8_16+1,w
  4649  0207  1283               	bcf	3,5	;RP0=0, select bank0
  4650  0208  1303               	bcf	3,6	;RP1=0, select bank0
  4651  0209  00BF               	movwf	___flmul@temp+1
  4652  020A  0870               	movf	?__Umul8_16,w
  4653  020B  00BE               	movwf	___flmul@temp
  4654  020C  083E               	movf	___flmul@temp,w
  4655  020D  00AE               	movwf	??___flmul
  4656  020E  083F               	movf	___flmul@temp+1,w
  4657  020F  00AF               	movwf	??___flmul+1
  4658  0210  01B0               	clrf	??___flmul+2
  4659  0211  01B1               	clrf	??___flmul+3
  4660  0212  082E               	movf	??___flmul,w
  4661  0213  07BA               	addwf	___flmul@prod,f
  4662  0214  082F               	movf	??___flmul+1,w
  4663  0215  1103               	clrz
  4664  0216  1803               	skipnc
  4665  0217  3E01               	addlw	1
  4666  0218  1903               	skipnz
  4667  0219  2A1B               	goto	u265_21
  4668  021A  07BB               	addwf	___flmul@prod+1,f
  4669  021B                     u265_21:	
  4670  021B  0830               	movf	??___flmul+2,w
  4671  021C  1103               	clrz
  4672  021D  1803               	skipnc
  4673  021E  3E01               	addlw	1
  4674  021F  1903               	skipnz
  4675  0220  2A22               	goto	u265_22
  4676  0221  07BC               	addwf	___flmul@prod+2,f
  4677  0222                     u265_22:	
  4678  0222  0831               	movf	??___flmul+3,w
  4679  0223  1103               	clrz
  4680  0224  1803               	skipnc
  4681  0225  3E01               	addlw	1
  4682  0226  1903               	skipnz
  4683  0227  2A29               	goto	u265_23
  4684  0228  07BD               	addwf	___flmul@prod+3,f
  4685  0229                     u265_23:	
  4686  0229                     i1l2804:	
  4687  0229  0828               	movf	___flmul@b+2,w
  4688  022A  00AE               	movwf	??___flmul
  4689  022B  082E               	movf	??___flmul,w
  4690  022C  00F0               	movwf	__Umul8_16@multiplicand
  4691  022D  082B               	movf	___flmul@a+1,w
  4692  022E  120A  158A  2339  120A  118A  	fcall	__Umul8_16
  4693  0233  0871               	movf	?__Umul8_16+1,w
  4694  0234  1283               	bcf	3,5	;RP0=0, select bank0
  4695  0235  1303               	bcf	3,6	;RP1=0, select bank0
  4696  0236  00BF               	movwf	___flmul@temp+1
  4697  0237  0870               	movf	?__Umul8_16,w
  4698  0238  00BE               	movwf	___flmul@temp
  4699  0239                     i1l2806:	
  4700  0239  083E               	movf	___flmul@temp,w
  4701  023A  00AE               	movwf	??___flmul
  4702  023B  083F               	movf	___flmul@temp+1,w
  4703  023C  00AF               	movwf	??___flmul+1
  4704  023D  01B0               	clrf	??___flmul+2
  4705  023E  01B1               	clrf	??___flmul+3
  4706  023F  082E               	movf	??___flmul,w
  4707  0240  07BA               	addwf	___flmul@prod,f
  4708  0241  082F               	movf	??___flmul+1,w
  4709  0242  1103               	clrz
  4710  0243  1803               	skipnc
  4711  0244  3E01               	addlw	1
  4712  0245  1903               	skipnz
  4713  0246  2A48               	goto	u266_21
  4714  0247  07BB               	addwf	___flmul@prod+1,f
  4715  0248                     u266_21:	
  4716  0248  0830               	movf	??___flmul+2,w
  4717  0249  1103               	clrz
  4718  024A  1803               	skipnc
  4719  024B  3E01               	addlw	1
  4720  024C  1903               	skipnz
  4721  024D  2A4F               	goto	u266_22
  4722  024E  07BC               	addwf	___flmul@prod+2,f
  4723  024F                     u266_22:	
  4724  024F  0831               	movf	??___flmul+3,w
  4725  0250  1103               	clrz
  4726  0251  1803               	skipnc
  4727  0252  3E01               	addlw	1
  4728  0253  1903               	skipnz
  4729  0254  2A56               	goto	u266_23
  4730  0255  07BD               	addwf	___flmul@prod+3,f
  4731  0256                     u266_23:	
  4732  0256  0828               	movf	___flmul@b+2,w
  4733  0257  00AE               	movwf	??___flmul
  4734  0258  082E               	movf	??___flmul,w
  4735  0259  00F0               	movwf	__Umul8_16@multiplicand
  4736  025A  082C               	movf	___flmul@a+2,w
  4737  025B  120A  158A  2339  120A  118A  	fcall	__Umul8_16
  4738  0260  0871               	movf	?__Umul8_16+1,w
  4739  0261  1283               	bcf	3,5	;RP0=0, select bank0
  4740  0262  1303               	bcf	3,6	;RP1=0, select bank0
  4741  0263  00BF               	movwf	___flmul@temp+1
  4742  0264  0870               	movf	?__Umul8_16,w
  4743  0265  00BE               	movwf	___flmul@temp
  4744  0266                     i1l2808:	
  4745  0266  083E               	movf	___flmul@temp,w
  4746  0267  00AE               	movwf	??___flmul
  4747  0268  083F               	movf	___flmul@temp+1,w
  4748  0269  00AF               	movwf	??___flmul+1
  4749  026A  01B0               	clrf	??___flmul+2
  4750  026B  01B1               	clrf	??___flmul+3
  4751  026C  3008               	movlw	8
  4752  026D                     u267_25:	
  4753  026D  1003               	clrc
  4754  026E  0DAE               	rlf	??___flmul,f
  4755  026F  0DAF               	rlf	??___flmul+1,f
  4756  0270  0DB0               	rlf	??___flmul+2,f
  4757  0271  0DB1               	rlf	??___flmul+3,f
  4758  0272                     u267_20:	
  4759  0272  3EFF               	addlw	-1
  4760  0273  1D03               	skipz
  4761  0274  2A6D               	goto	u267_25
  4762  0275  082E               	movf	??___flmul,w
  4763  0276  07BA               	addwf	___flmul@prod,f
  4764  0277  082F               	movf	??___flmul+1,w
  4765  0278  1103               	clrz
  4766  0279  1803               	skipnc
  4767  027A  3E01               	addlw	1
  4768  027B  1903               	skipnz
  4769  027C  2A7E               	goto	u268_21
  4770  027D  07BB               	addwf	___flmul@prod+1,f
  4771  027E                     u268_21:	
  4772  027E  0830               	movf	??___flmul+2,w
  4773  027F  1103               	clrz
  4774  0280  1803               	skipnc
  4775  0281  3E01               	addlw	1
  4776  0282  1903               	skipnz
  4777  0283  2A85               	goto	u268_22
  4778  0284  07BC               	addwf	___flmul@prod+2,f
  4779  0285                     u268_22:	
  4780  0285  0831               	movf	??___flmul+3,w
  4781  0286  1103               	clrz
  4782  0287  1803               	skipnc
  4783  0288  3E01               	addlw	1
  4784  0289  1903               	skipnz
  4785  028A  2A8C               	goto	u268_23
  4786  028B  07BD               	addwf	___flmul@prod+3,f
  4787  028C                     u268_23:	
  4788  028C                     i1l2810:	
  4789  028C  0834               	movf	___flmul@grs,w
  4790  028D  00AE               	movwf	??___flmul
  4791  028E  0835               	movf	___flmul@grs+1,w
  4792  028F  00AF               	movwf	??___flmul+1
  4793  0290  0836               	movf	___flmul@grs+2,w
  4794  0291  00B0               	movwf	??___flmul+2
  4795  0292  0837               	movf	___flmul@grs+3,w
  4796  0293  00B1               	movwf	??___flmul+3
  4797  0294  3018               	movlw	24
  4798  0295                     u269_25:	
  4799  0295  1003               	clrc
  4800  0296  0CB1               	rrf	??___flmul+3,f
  4801  0297  0CB0               	rrf	??___flmul+2,f
  4802  0298  0CAF               	rrf	??___flmul+1,f
  4803  0299  0CAE               	rrf	??___flmul,f
  4804  029A                     u269_20:	
  4805  029A  3EFF               	addlw	-1
  4806  029B  1D03               	skipz
  4807  029C  2A95               	goto	u269_25
  4808  029D  082E               	movf	??___flmul,w
  4809  029E  07BA               	addwf	___flmul@prod,f
  4810  029F  082F               	movf	??___flmul+1,w
  4811  02A0  1103               	clrz
  4812  02A1  1803               	skipnc
  4813  02A2  3E01               	addlw	1
  4814  02A3  1903               	skipnz
  4815  02A4  2AA6               	goto	u270_21
  4816  02A5  07BB               	addwf	___flmul@prod+1,f
  4817  02A6                     u270_21:	
  4818  02A6  0830               	movf	??___flmul+2,w
  4819  02A7  1103               	clrz
  4820  02A8  1803               	skipnc
  4821  02A9  3E01               	addlw	1
  4822  02AA  1903               	skipnz
  4823  02AB  2AAD               	goto	u270_22
  4824  02AC  07BC               	addwf	___flmul@prod+2,f
  4825  02AD                     u270_22:	
  4826  02AD  0831               	movf	??___flmul+3,w
  4827  02AE  1103               	clrz
  4828  02AF  1803               	skipnc
  4829  02B0  3E01               	addlw	1
  4830  02B1  1903               	skipnz
  4831  02B2  2AB4               	goto	u270_23
  4832  02B3  07BD               	addwf	___flmul@prod+3,f
  4833  02B4                     u270_23:	
  4834  02B4                     i1l2812:	
  4835  02B4  3008               	movlw	8
  4836  02B5  00AE               	movwf	??___flmul
  4837  02B6                     u271_25:	
  4838  02B6  1003               	clrc
  4839  02B7  0DB4               	rlf	___flmul@grs,f
  4840  02B8  0DB5               	rlf	___flmul@grs+1,f
  4841  02B9  0DB6               	rlf	___flmul@grs+2,f
  4842  02BA  0DB7               	rlf	___flmul@grs+3,f
  4843  02BB  0BAE               	decfsz	??___flmul,f
  4844  02BC  2AB6               	goto	u271_25
  4845  02BD                     i1l2814:	
  4846  02BD  0839               	movf	___flmul@bexp,w
  4847  02BE  0738               	addwf	___flmul@aexp,w
  4848  02BF  00AE               	movwf	??___flmul
  4849  02C0  01AF               	clrf	??___flmul+1
  4850  02C1  0DAF               	rlf	??___flmul+1,f
  4851  02C2  082E               	movf	??___flmul,w
  4852  02C3  3E82               	addlw	130
  4853  02C4  00BE               	movwf	___flmul@temp
  4854  02C5  082F               	movf	??___flmul+1,w
  4855  02C6  1803               	skipnc
  4856  02C7  3E01               	addlw	1
  4857  02C8  3EFF               	addlw	255
  4858  02C9  00BF               	movwf	___flmul@temp+1
  4859  02CA  2AE8               	goto	i1l2826
  4860  02CB                     i1l2816:	
  4861  02CB  3001               	movlw	1
  4862  02CC  00AE               	movwf	??___flmul
  4863  02CD                     u272_25:	
  4864  02CD  1003               	clrc
  4865  02CE  0DBA               	rlf	___flmul@prod,f
  4866  02CF  0DBB               	rlf	___flmul@prod+1,f
  4867  02D0  0DBC               	rlf	___flmul@prod+2,f
  4868  02D1  0DBD               	rlf	___flmul@prod+3,f
  4869  02D2  0BAE               	decfsz	??___flmul,f
  4870  02D3  2ACD               	goto	u272_25
  4871  02D4                     i1l2818:	
  4872  02D4  1FB7               	btfss	___flmul@grs+3,7
  4873  02D5  2AD7               	goto	u273_21
  4874  02D6  2AD8               	goto	u273_20
  4875  02D7                     u273_21:	
  4876  02D7  2AD9               	goto	i1l2822
  4877  02D8                     u273_20:	
  4878  02D8                     i1l2820:	
  4879  02D8  143A               	bsf	___flmul@prod,0
  4880  02D9                     i1l2822:	
  4881  02D9  3001               	movlw	1
  4882  02DA  00AE               	movwf	??___flmul
  4883  02DB                     u274_25:	
  4884  02DB  1003               	clrc
  4885  02DC  0DB4               	rlf	___flmul@grs,f
  4886  02DD  0DB5               	rlf	___flmul@grs+1,f
  4887  02DE  0DB6               	rlf	___flmul@grs+2,f
  4888  02DF  0DB7               	rlf	___flmul@grs+3,f
  4889  02E0  0BAE               	decfsz	??___flmul,f
  4890  02E1  2ADB               	goto	u274_25
  4891  02E2                     i1l2824:	
  4892  02E2  30FF               	movlw	255
  4893  02E3  07BE               	addwf	___flmul@temp,f
  4894  02E4  1803               	skipnc
  4895  02E5  0ABF               	incf	___flmul@temp+1,f
  4896  02E6  30FF               	movlw	255
  4897  02E7  07BF               	addwf	___flmul@temp+1,f
  4898  02E8                     i1l2826:	
  4899  02E8  1FBC               	btfss	___flmul@prod+2,7
  4900  02E9  2AEB               	goto	u275_21
  4901  02EA  2AEC               	goto	u275_20
  4902  02EB                     u275_21:	
  4903  02EB  2ACB               	goto	i1l2816
  4904  02EC                     u275_20:	
  4905  02EC                     i1l2828:	
  4906  02EC  01B8               	clrf	___flmul@aexp
  4907  02ED                     i1l2830:	
  4908  02ED  1FB7               	btfss	___flmul@grs+3,7
  4909  02EE  2AF0               	goto	u276_21
  4910  02EF  2AF1               	goto	u276_20
  4911  02F0                     u276_21:	
  4912  02F0  2B0D               	goto	i1l2838
  4913  02F1                     u276_20:	
  4914  02F1                     i1l2832:	
  4915  02F1  30FF               	movlw	255
  4916  02F2  0534               	andwf	___flmul@grs,w
  4917  02F3  00AE               	movwf	??___flmul
  4918  02F4  30FF               	movlw	255
  4919  02F5  0535               	andwf	___flmul@grs+1,w
  4920  02F6  00AF               	movwf	??___flmul+1
  4921  02F7  30FF               	movlw	255
  4922  02F8  0536               	andwf	___flmul@grs+2,w
  4923  02F9  00B0               	movwf	??___flmul+2
  4924  02FA  307F               	movlw	127
  4925  02FB  0537               	andwf	___flmul@grs+3,w
  4926  02FC  00B1               	movwf	??___flmul+3
  4927  02FD  0831               	movf	??___flmul+3,w
  4928  02FE  0430               	iorwf	??___flmul+2,w
  4929  02FF  042F               	iorwf	??___flmul+1,w
  4930  0300  042E               	iorwf	??___flmul,w
  4931  0301  1903               	skipnz
  4932  0302  2B04               	goto	u277_21
  4933  0303  2B05               	goto	u277_20
  4934  0304                     u277_21:	
  4935  0304  2B08               	goto	i1l845
  4936  0305                     u277_20:	
  4937  0305                     i1l2834:	
  4938  0305  01B8               	clrf	___flmul@aexp
  4939  0306  0AB8               	incf	___flmul@aexp,f
  4940  0307  2B0D               	goto	i1l2838
  4941  0308                     i1l845:	
  4942  0308  1C3A               	btfss	___flmul@prod,0
  4943  0309  2B0B               	goto	u278_21
  4944  030A  2B0C               	goto	u278_20
  4945  030B                     u278_21:	
  4946  030B  2B0D               	goto	i1l2838
  4947  030C                     u278_20:	
  4948  030C  2B05               	goto	i1l2834
  4949  030D                     i1l2838:	
  4950  030D  0838               	movf	___flmul@aexp,w
  4951  030E  1903               	btfsc	3,2
  4952  030F  2B11               	goto	u279_21
  4953  0310  2B12               	goto	u279_20
  4954  0311                     u279_21:	
  4955  0311  2B43               	goto	i1l2848
  4956  0312                     u279_20:	
  4957  0312                     i1l2840:	
  4958  0312  3001               	movlw	1
  4959  0313  07BA               	addwf	___flmul@prod,f
  4960  0314  3000               	movlw	0
  4961  0315  1803               	skipnc
  4962  0316  3001               	movlw	1
  4963  0317  07BB               	addwf	___flmul@prod+1,f
  4964  0318  3000               	movlw	0
  4965  0319  1803               	skipnc
  4966  031A  3001               	movlw	1
  4967  031B  07BC               	addwf	___flmul@prod+2,f
  4968  031C  3000               	movlw	0
  4969  031D  1803               	skipnc
  4970  031E  3001               	movlw	1
  4971  031F  07BD               	addwf	___flmul@prod+3,f
  4972  0320                     i1l2842:	
  4973  0320  1C3D               	btfss	___flmul@prod+3,0
  4974  0321  2B23               	goto	u280_21
  4975  0322  2B24               	goto	u280_20
  4976  0323                     u280_21:	
  4977  0323  2B43               	goto	i1l2848
  4978  0324                     u280_20:	
  4979  0324                     i1l2844:	
  4980  0324  083A               	movf	___flmul@prod,w
  4981  0325  00AE               	movwf	??___flmul
  4982  0326  083B               	movf	___flmul@prod+1,w
  4983  0327  00AF               	movwf	??___flmul+1
  4984  0328  083C               	movf	___flmul@prod+2,w
  4985  0329  00B0               	movwf	??___flmul+2
  4986  032A  083D               	movf	___flmul@prod+3,w
  4987  032B  00B1               	movwf	??___flmul+3
  4988  032C  3001               	movlw	1
  4989  032D  00B2               	movwf	??___flmul+4
  4990  032E                     u281_25:	
  4991  032E  0D31               	rlf	??___flmul+3,w
  4992  032F  0CB1               	rrf	??___flmul+3,f
  4993  0330  0CB0               	rrf	??___flmul+2,f
  4994  0331  0CAF               	rrf	??___flmul+1,f
  4995  0332  0CAE               	rrf	??___flmul,f
  4996  0333                     u281_20:	
  4997  0333  0BB2               	decfsz	??___flmul+4,f
  4998  0334  2B2E               	goto	u281_25
  4999  0335  0831               	movf	??___flmul+3,w
  5000  0336  00BD               	movwf	___flmul@prod+3
  5001  0337  0830               	movf	??___flmul+2,w
  5002  0338  00BC               	movwf	___flmul@prod+2
  5003  0339  082F               	movf	??___flmul+1,w
  5004  033A  00BB               	movwf	___flmul@prod+1
  5005  033B  082E               	movf	??___flmul,w
  5006  033C  00BA               	movwf	___flmul@prod
  5007  033D                     i1l2846:	
  5008  033D  3001               	movlw	1
  5009  033E  07BE               	addwf	___flmul@temp,f
  5010  033F  1803               	skipnc
  5011  0340  0ABF               	incf	___flmul@temp+1,f
  5012  0341  3000               	movlw	0
  5013  0342  07BF               	addwf	___flmul@temp+1,f
  5014  0343                     i1l2848:	
  5015  0343  083F               	movf	___flmul@temp+1,w
  5016  0344  3A80               	xorlw	128
  5017  0345  00FF               	movwf	btemp+1
  5018  0346  3080               	movlw	128
  5019  0347  027F               	subwf	btemp+1,w
  5020  0348  1D03               	skipz
  5021  0349  2B4C               	goto	u282_25
  5022  034A  30FF               	movlw	255
  5023  034B  023E               	subwf	___flmul@temp,w
  5024  034C                     u282_25:	
  5025  034C  1C03               	skipc
  5026  034D  2B4F               	goto	u282_21
  5027  034E  2B50               	goto	u282_20
  5028  034F                     u282_21:	
  5029  034F  2B5B               	goto	i1l2852
  5030  0350                     u282_20:	
  5031  0350                     i1l2850:	
  5032  0350  307F               	movlw	127
  5033  0351  1283               	bcf	3,5	;RP0=0, select bank0
  5034  0352  1303               	bcf	3,6	;RP1=0, select bank0
  5035  0353  00BD               	movwf	___flmul@prod+3
  5036  0354  3080               	movlw	128
  5037  0355  00BC               	movwf	___flmul@prod+2
  5038  0356  3000               	movlw	0
  5039  0357  00BB               	movwf	___flmul@prod+1
  5040  0358  3000               	movlw	0
  5041  0359  00BA               	movwf	___flmul@prod
  5042  035A  2B90               	goto	i1l851
  5043  035B                     i1l2852:	
  5044  035B  1283               	bcf	3,5	;RP0=0, select bank0
  5045  035C  1303               	bcf	3,6	;RP1=0, select bank0
  5046  035D  083F               	movf	___flmul@temp+1,w
  5047  035E  3A80               	xorlw	128
  5048  035F  00FF               	movwf	btemp+1
  5049  0360  3080               	movlw	128
  5050  0361  027F               	subwf	btemp+1,w
  5051  0362  1D03               	skipz
  5052  0363  2B66               	goto	u283_25
  5053  0364  3001               	movlw	1
  5054  0365  023E               	subwf	___flmul@temp,w
  5055  0366                     u283_25:	
  5056  0366  1803               	skipnc
  5057  0367  2B69               	goto	u283_21
  5058  0368  2B6A               	goto	u283_20
  5059  0369                     u283_21:	
  5060  0369  2B76               	goto	i1l2858
  5061  036A                     u283_20:	
  5062  036A                     i1l2854:	
  5063  036A  3000               	movlw	0
  5064  036B  1283               	bcf	3,5	;RP0=0, select bank0
  5065  036C  1303               	bcf	3,6	;RP1=0, select bank0
  5066  036D  00BD               	movwf	___flmul@prod+3
  5067  036E  3000               	movlw	0
  5068  036F  00BC               	movwf	___flmul@prod+2
  5069  0370  3000               	movlw	0
  5070  0371  00BB               	movwf	___flmul@prod+1
  5071  0372  3000               	movlw	0
  5072  0373  00BA               	movwf	___flmul@prod
  5073  0374                     i1l2856:	
  5074  0374  01B3               	clrf	___flmul@sign
  5075  0375  2B90               	goto	i1l851
  5076  0376                     i1l2858:	
  5077  0376  1283               	bcf	3,5	;RP0=0, select bank0
  5078  0377  1303               	bcf	3,6	;RP1=0, select bank0
  5079  0378  083E               	movf	___flmul@temp,w
  5080  0379  00AE               	movwf	??___flmul
  5081  037A  082E               	movf	??___flmul,w
  5082  037B  00B9               	movwf	___flmul@bexp
  5083  037C  30FF               	movlw	255
  5084  037D  05BA               	andwf	___flmul@prod,f
  5085  037E  30FF               	movlw	255
  5086  037F  05BB               	andwf	___flmul@prod+1,f
  5087  0380  307F               	movlw	127
  5088  0381  05BC               	andwf	___flmul@prod+2,f
  5089  0382  3000               	movlw	0
  5090  0383  05BD               	andwf	___flmul@prod+3,f
  5091  0384                     i1l2860:	
  5092  0384  1C39               	btfss	___flmul@bexp,0
  5093  0385  2B87               	goto	u284_21
  5094  0386  2B88               	goto	u284_20
  5095  0387                     u284_21:	
  5096  0387  2B89               	goto	i1l2864
  5097  0388                     u284_20:	
  5098  0388                     i1l2862:	
  5099  0388  17BC               	bsf	___flmul@prod+2,7
  5100  0389                     i1l2864:	
  5101  0389  0839               	movf	___flmul@bexp,w
  5102  038A  00AE               	movwf	??___flmul
  5103  038B  1003               	clrc
  5104  038C  0C2E               	rrf	??___flmul,w
  5105  038D  00AF               	movwf	??___flmul+1
  5106  038E  082F               	movf	??___flmul+1,w
  5107  038F  00BD               	movwf	___flmul@prod+3
  5108  0390                     i1l851:	
  5109  0390  0833               	movf	___flmul@sign,w
  5110  0391  00AE               	movwf	??___flmul
  5111  0392  082E               	movf	??___flmul,w
  5112  0393  04BD               	iorwf	___flmul@prod+3,f
  5113  0394                     i1l2866:	
  5114  0394  083D               	movf	___flmul@prod+3,w
  5115  0395  00A9               	movwf	?___flmul+3
  5116  0396  083C               	movf	___flmul@prod+2,w
  5117  0397  00A8               	movwf	?___flmul+2
  5118  0398  083B               	movf	___flmul@prod+1,w
  5119  0399  00A7               	movwf	?___flmul+1
  5120  039A  083A               	movf	___flmul@prod,w
  5121  039B  00A6               	movwf	?___flmul
  5122  039C                     i1l839:	
  5123  039C  0008               	return
  5124  039D                     __end_of___flmul:	
  5125                           
  5126                           	psect	text24
  5127  0B39                     __ptext24:	
  5128 ;; *************** function __Umul8_16 *****************
  5129 ;; Defined at:
  5130 ;;		line 4 in file "C:\Program Files (x86)\Microchip\xc8\v2.10\pic\sources\c90\common\Umul8_16.c"
  5131 ;; Parameters:    Size  Location     Type
  5132 ;;  multiplier      1    wreg     unsigned char 
  5133 ;;  multiplicand    1    0[COMMON] unsigned char 
  5134 ;; Auto vars:     Size  Location     Type
  5135 ;;  multiplier      1    8[COMMON] unsigned char 
  5136 ;;  word_mpld       2    6[COMMON] unsigned int 
  5137 ;;  product         2    4[COMMON] unsigned int 
  5138 ;; Return value:  Size  Location     Type
  5139 ;;                  2    0[COMMON] unsigned int 
  5140 ;; Registers used:
  5141 ;;		wreg, status,2, status,0
  5142 ;; Tracked objects:
  5143 ;;		On entry : 0/0
  5144 ;;		On exit  : 0/0
  5145 ;;		Unchanged: 0/0
  5146 ;; Data sizes:     COMMON   BANK0   BANK1   BANK3   BANK2
  5147 ;;      Params:         2       0       0       0       0
  5148 ;;      Locals:         5       0       0       0       0
  5149 ;;      Temps:          2       0       0       0       0
  5150 ;;      Totals:         9       0       0       0       0
  5151 ;;Total ram usage:        9 bytes
  5152 ;; Hardware stack levels used:    1
  5153 ;; This function calls:
  5154 ;;		Nothing
  5155 ;; This function is called by:
  5156 ;;		___flmul
  5157 ;; This function uses a non-reentrant model
  5158 ;;
  5159                           
  5160                           
  5161                           ;psect for function __Umul8_16
  5162  0B39                     __Umul8_16:	
  5163                           
  5164                           ;incstack = 0
  5165                           ; Regs used in __Umul8_16: [wreg+status,2+status,0]
  5166                           ;__Umul8_16@multiplier stored from wreg
  5167  0B39  00F8               	movwf	__Umul8_16@multiplier
  5168  0B3A                     i1l2422:	
  5169  0B3A  01F4               	clrf	__Umul8_16@product
  5170  0B3B  01F5               	clrf	__Umul8_16@product+1
  5171  0B3C                     i1l2424:	
  5172  0B3C  0870               	movf	__Umul8_16@multiplicand,w
  5173  0B3D  00F2               	movwf	??__Umul8_16
  5174  0B3E  01F3               	clrf	??__Umul8_16+1
  5175  0B3F  0872               	movf	??__Umul8_16,w
  5176  0B40  00F6               	movwf	__Umul8_16@word_mpld
  5177  0B41  0873               	movf	??__Umul8_16+1,w
  5178  0B42  00F7               	movwf	__Umul8_16@word_mpld+1
  5179  0B43                     i1l2426:	
  5180  0B43  1C78               	btfss	__Umul8_16@multiplier,0
  5181  0B44  2B46               	goto	u200_21
  5182  0B45  2B47               	goto	u200_20
  5183  0B46                     u200_21:	
  5184  0B46  2B4D               	goto	i1l896
  5185  0B47                     u200_20:	
  5186  0B47                     i1l2428:	
  5187  0B47  0876               	movf	__Umul8_16@word_mpld,w
  5188  0B48  07F4               	addwf	__Umul8_16@product,f
  5189  0B49  1803               	skipnc
  5190  0B4A  0AF5               	incf	__Umul8_16@product+1,f
  5191  0B4B  0877               	movf	__Umul8_16@word_mpld+1,w
  5192  0B4C  07F5               	addwf	__Umul8_16@product+1,f
  5193  0B4D                     i1l896:	
  5194  0B4D  3001               	movlw	1
  5195  0B4E                     u201_25:	
  5196  0B4E  1003               	clrc
  5197  0B4F  0DF6               	rlf	__Umul8_16@word_mpld,f
  5198  0B50  0DF7               	rlf	__Umul8_16@word_mpld+1,f
  5199  0B51  3EFF               	addlw	-1
  5200  0B52  1D03               	skipz
  5201  0B53  2B4E               	goto	u201_25
  5202  0B54  1003               	clrc
  5203  0B55  0CF8               	rrf	__Umul8_16@multiplier,f
  5204  0B56                     i1l2430:	
  5205  0B56  0878               	movf	__Umul8_16@multiplier,w
  5206  0B57  1D03               	btfss	3,2
  5207  0B58  2B5A               	goto	u202_21
  5208  0B59  2B5B               	goto	u202_20
  5209  0B5A                     u202_21:	
  5210  0B5A  2B43               	goto	i1l2426
  5211  0B5B                     u202_20:	
  5212  0B5B                     i1l2432:	
  5213  0B5B  0875               	movf	__Umul8_16@product+1,w
  5214  0B5C  00F1               	movwf	?__Umul8_16+1
  5215  0B5D  0874               	movf	__Umul8_16@product,w
  5216  0B5E  00F0               	movwf	?__Umul8_16
  5217  0B5F                     i1l898:	
  5218  0B5F  0008               	return
  5219  0B60                     __end_of__Umul8_16:	
  5220                           
  5221                           	psect	text25
  5222  039D                     __ptext25:	
  5223 ;; *************** function ___fldiv *****************
  5224 ;; Defined at:
  5225 ;;		line 8 in file "C:\Program Files (x86)\Microchip\xc8\v2.10\pic\sources\c90\common\sprcdiv.c"
  5226 ;; Parameters:    Size  Location     Type
  5227 ;;  a               4    6[BANK0 ] unsigned int 
  5228 ;;  b               4   10[BANK0 ] unsigned int 
  5229 ;; Auto vars:     Size  Location     Type
  5230 ;;  grs             4   26[BANK0 ] unsigned long 
  5231 ;;  rem             4   19[BANK0 ] unsigned long 
  5232 ;;  new_exp         2   24[BANK0 ] int 
  5233 ;;  aexp            1   31[BANK0 ] unsigned char 
  5234 ;;  bexp            1   30[BANK0 ] unsigned char 
  5235 ;;  sign            1   23[BANK0 ] unsigned char 
  5236 ;; Return value:  Size  Location     Type
  5237 ;;                  4    6[BANK0 ] unsigned char 
  5238 ;; Registers used:
  5239 ;;		wreg, status,2, status,0, btemp+1
  5240 ;; Tracked objects:
  5241 ;;		On entry : 0/0
  5242 ;;		On exit  : 0/0
  5243 ;;		Unchanged: 0/0
  5244 ;; Data sizes:     COMMON   BANK0   BANK1   BANK3   BANK2
  5245 ;;      Params:         0       8       0       0       0
  5246 ;;      Locals:         0      13       0       0       0
  5247 ;;      Temps:          0       5       0       0       0
  5248 ;;      Totals:         0      26       0       0       0
  5249 ;;Total ram usage:       26 bytes
  5250 ;; Hardware stack levels used:    1
  5251 ;; This function calls:
  5252 ;;		Nothing
  5253 ;; This function is called by:
  5254 ;;		_temp_sensor_read
  5255 ;; This function uses a non-reentrant model
  5256 ;;
  5257                           
  5258                           
  5259                           ;psect for function ___fldiv
  5260  039D                     ___fldiv:	
  5261  039D                     i1l2588:	
  5262                           ;incstack = 0
  5263                           ; Regs used in ___fldiv: [wreg+status,2+status,0+btemp+1]
  5264                           
  5265  039D  1283               	bcf	3,5	;RP0=0, select bank0
  5266  039E  1303               	bcf	3,6	;RP1=0, select bank0
  5267  039F  082D               	movf	___fldiv@b+3,w
  5268  03A0  3980               	andlw	128
  5269  03A1  00AE               	movwf	??___fldiv
  5270  03A2  082E               	movf	??___fldiv,w
  5271  03A3  00B7               	movwf	___fldiv@sign
  5272  03A4                     i1l2590:	
  5273  03A4  082D               	movf	___fldiv@b+3,w
  5274  03A5  00AE               	movwf	??___fldiv
  5275  03A6  072E               	addwf	??___fldiv,w
  5276  03A7  00AF               	movwf	??___fldiv+1
  5277  03A8  082F               	movf	??___fldiv+1,w
  5278  03A9  00BE               	movwf	___fldiv@bexp
  5279  03AA                     i1l2592:	
  5280  03AA  1FAC               	btfss	___fldiv@b+2,7
  5281  03AB  2BAD               	goto	u219_21
  5282  03AC  2BAE               	goto	u219_20
  5283  03AD                     u219_21:	
  5284  03AD  2BAF               	goto	i1l2596
  5285  03AE                     u219_20:	
  5286  03AE                     i1l2594:	
  5287  03AE  143E               	bsf	___fldiv@bexp,0
  5288  03AF                     i1l2596:	
  5289  03AF  083E               	movf	___fldiv@bexp,w
  5290  03B0  1903               	btfsc	3,2
  5291  03B1  2BB3               	goto	u220_21
  5292  03B2  2BB4               	goto	u220_20
  5293  03B3                     u220_21:	
  5294  03B3  2BC4               	goto	i1l2606
  5295  03B4                     u220_20:	
  5296  03B4                     i1l2598:	
  5297  03B4  0A3E               	incf	___fldiv@bexp,w
  5298  03B5  1D03               	btfss	3,2
  5299  03B6  2BB8               	goto	u221_21
  5300  03B7  2BB9               	goto	u221_20
  5301  03B8                     u221_21:	
  5302  03B8  2BC1               	goto	i1l2602
  5303  03B9                     u221_20:	
  5304  03B9                     i1l2600:	
  5305  03B9  3000               	movlw	0
  5306  03BA  00AD               	movwf	___fldiv@b+3
  5307  03BB  3000               	movlw	0
  5308  03BC  00AC               	movwf	___fldiv@b+2
  5309  03BD  3000               	movlw	0
  5310  03BE  00AB               	movwf	___fldiv@b+1
  5311  03BF  3000               	movlw	0
  5312  03C0  00AA               	movwf	___fldiv@b
  5313  03C1                     i1l2602:	
  5314  03C1  17AC               	bsf	___fldiv@b+2,7
  5315  03C2                     i1l2604:	
  5316  03C2  01AD               	clrf	___fldiv@b+3
  5317  03C3  2BCC               	goto	i1l2608
  5318  03C4                     i1l2606:	
  5319  03C4  3000               	movlw	0
  5320  03C5  00AD               	movwf	___fldiv@b+3
  5321  03C6  3000               	movlw	0
  5322  03C7  00AC               	movwf	___fldiv@b+2
  5323  03C8  3000               	movlw	0
  5324  03C9  00AB               	movwf	___fldiv@b+1
  5325  03CA  3000               	movlw	0
  5326  03CB  00AA               	movwf	___fldiv@b
  5327  03CC                     i1l2608:	
  5328  03CC  0829               	movf	___fldiv@a+3,w
  5329  03CD  3980               	andlw	128
  5330  03CE  00AE               	movwf	??___fldiv
  5331  03CF  082E               	movf	??___fldiv,w
  5332  03D0  06B7               	xorwf	___fldiv@sign,f
  5333  03D1                     i1l2610:	
  5334  03D1  0829               	movf	___fldiv@a+3,w
  5335  03D2  00AE               	movwf	??___fldiv
  5336  03D3  072E               	addwf	??___fldiv,w
  5337  03D4  00AF               	movwf	??___fldiv+1
  5338  03D5  082F               	movf	??___fldiv+1,w
  5339  03D6  00BF               	movwf	___fldiv@aexp
  5340  03D7                     i1l2612:	
  5341  03D7  1FA8               	btfss	___fldiv@a+2,7
  5342  03D8  2BDA               	goto	u222_21
  5343  03D9  2BDB               	goto	u222_20
  5344  03DA                     u222_21:	
  5345  03DA  2BDC               	goto	i1l2616
  5346  03DB                     u222_20:	
  5347  03DB                     i1l2614:	
  5348  03DB  143F               	bsf	___fldiv@aexp,0
  5349  03DC                     i1l2616:	
  5350  03DC  083F               	movf	___fldiv@aexp,w
  5351  03DD  1903               	btfsc	3,2
  5352  03DE  2BE0               	goto	u223_21
  5353  03DF  2BE1               	goto	u223_20
  5354  03E0                     u223_21:	
  5355  03E0  2BF1               	goto	i1l2626
  5356  03E1                     u223_20:	
  5357  03E1                     i1l2618:	
  5358  03E1  0A3F               	incf	___fldiv@aexp,w
  5359  03E2  1D03               	btfss	3,2
  5360  03E3  2BE5               	goto	u224_21
  5361  03E4  2BE6               	goto	u224_20
  5362  03E5                     u224_21:	
  5363  03E5  2BEE               	goto	i1l2622
  5364  03E6                     u224_20:	
  5365  03E6                     i1l2620:	
  5366  03E6  3000               	movlw	0
  5367  03E7  00A9               	movwf	___fldiv@a+3
  5368  03E8  3000               	movlw	0
  5369  03E9  00A8               	movwf	___fldiv@a+2
  5370  03EA  3000               	movlw	0
  5371  03EB  00A7               	movwf	___fldiv@a+1
  5372  03EC  3000               	movlw	0
  5373  03ED  00A6               	movwf	___fldiv@a
  5374  03EE                     i1l2622:	
  5375  03EE  17A8               	bsf	___fldiv@a+2,7
  5376  03EF                     i1l2624:	
  5377  03EF  01A9               	clrf	___fldiv@a+3
  5378  03F0  2BF9               	goto	i1l799
  5379  03F1                     i1l2626:	
  5380  03F1  3000               	movlw	0
  5381  03F2  00A9               	movwf	___fldiv@a+3
  5382  03F3  3000               	movlw	0
  5383  03F4  00A8               	movwf	___fldiv@a+2
  5384  03F5  3000               	movlw	0
  5385  03F6  00A7               	movwf	___fldiv@a+1
  5386  03F7  3000               	movlw	0
  5387  03F8  00A6               	movwf	___fldiv@a
  5388  03F9                     i1l799:	
  5389  03F9  0829               	movf	___fldiv@a+3,w
  5390  03FA  0428               	iorwf	___fldiv@a+2,w
  5391  03FB  0427               	iorwf	___fldiv@a+1,w
  5392  03FC  0426               	iorwf	___fldiv@a,w
  5393  03FD  1D03               	skipz
  5394  03FE  2C00               	goto	u225_21
  5395  03FF  2C01               	goto	u225_20
  5396  0400                     u225_21:	
  5397  0400  2C1A               	goto	i1l2636
  5398  0401                     u225_20:	
  5399  0401                     i1l2628:	
  5400  0401  3000               	movlw	0
  5401  0402  00AD               	movwf	___fldiv@b+3
  5402  0403  3000               	movlw	0
  5403  0404  00AC               	movwf	___fldiv@b+2
  5404  0405  3000               	movlw	0
  5405  0406  00AB               	movwf	___fldiv@b+1
  5406  0407  3000               	movlw	0
  5407  0408  00AA               	movwf	___fldiv@b
  5408  0409  3080               	movlw	128
  5409  040A  04AC               	iorwf	___fldiv@b+2,f
  5410  040B  307F               	movlw	127
  5411  040C  04AD               	iorwf	___fldiv@b+3,f
  5412  040D                     i1l2630:	
  5413  040D  0837               	movf	___fldiv@sign,w
  5414  040E  00AE               	movwf	??___fldiv
  5415  040F  082E               	movf	??___fldiv,w
  5416  0410  04AD               	iorwf	___fldiv@b+3,f
  5417  0411                     i1l2632:	
  5418  0411  082D               	movf	___fldiv@b+3,w
  5419  0412  00A9               	movwf	?___fldiv+3
  5420  0413  082C               	movf	___fldiv@b+2,w
  5421  0414  00A8               	movwf	?___fldiv+2
  5422  0415  082B               	movf	___fldiv@b+1,w
  5423  0416  00A7               	movwf	?___fldiv+1
  5424  0417  082A               	movf	___fldiv@b,w
  5425  0418  00A6               	movwf	?___fldiv
  5426  0419  2D79               	goto	i1l801
  5427  041A                     i1l2636:	
  5428  041A  083E               	movf	___fldiv@bexp,w
  5429  041B  1D03               	btfss	3,2
  5430  041C  2C1E               	goto	u226_21
  5431  041D  2C1F               	goto	u226_20
  5432  041E                     u226_21:	
  5433  041E  2C28               	goto	i1l2642
  5434  041F                     u226_20:	
  5435  041F                     i1l2638:	
  5436  041F  3000               	movlw	0
  5437  0420  00A9               	movwf	?___fldiv+3
  5438  0421  3000               	movlw	0
  5439  0422  00A8               	movwf	?___fldiv+2
  5440  0423  3000               	movlw	0
  5441  0424  00A7               	movwf	?___fldiv+1
  5442  0425  3000               	movlw	0
  5443  0426  00A6               	movwf	?___fldiv
  5444  0427  2D79               	goto	i1l801
  5445  0428                     i1l2642:	
  5446  0428  083E               	movf	___fldiv@bexp,w
  5447  0429  00AE               	movwf	??___fldiv
  5448  042A  01AF               	clrf	??___fldiv+1
  5449  042B  082F               	movf	??___fldiv+1,w
  5450  042C  00B1               	movwf	??___fldiv+3
  5451  042D  083F               	movf	___fldiv@aexp,w
  5452  042E  022E               	subwf	??___fldiv,w
  5453  042F  00B0               	movwf	??___fldiv+2
  5454  0430  1C03               	skipc
  5455  0431  03B1               	decf	??___fldiv+3,f
  5456  0432  0830               	movf	??___fldiv+2,w
  5457  0433  3E7F               	addlw	127
  5458  0434  00B8               	movwf	___fldiv@new_exp
  5459  0435  0831               	movf	??___fldiv+3,w
  5460  0436  1803               	skipnc
  5461  0437  3E01               	addlw	1
  5462  0438  3E00               	addlw	0
  5463  0439  00B9               	movwf	___fldiv@new_exp+1
  5464  043A                     i1l2644:	
  5465  043A  082D               	movf	___fldiv@b+3,w
  5466  043B  00B6               	movwf	___fldiv@rem+3
  5467  043C  082C               	movf	___fldiv@b+2,w
  5468  043D  00B5               	movwf	___fldiv@rem+2
  5469  043E  082B               	movf	___fldiv@b+1,w
  5470  043F  00B4               	movwf	___fldiv@rem+1
  5471  0440  082A               	movf	___fldiv@b,w
  5472  0441  00B3               	movwf	___fldiv@rem
  5473  0442                     i1l2646:	
  5474  0442  3000               	movlw	0
  5475  0443  00AD               	movwf	___fldiv@b+3
  5476  0444  3000               	movlw	0
  5477  0445  00AC               	movwf	___fldiv@b+2
  5478  0446  3000               	movlw	0
  5479  0447  00AB               	movwf	___fldiv@b+1
  5480  0448  3000               	movlw	0
  5481  0449  00AA               	movwf	___fldiv@b
  5482  044A                     i1l2648:	
  5483  044A  3000               	movlw	0
  5484  044B  00BD               	movwf	___fldiv@grs+3
  5485  044C  3000               	movlw	0
  5486  044D  00BC               	movwf	___fldiv@grs+2
  5487  044E  3000               	movlw	0
  5488  044F  00BB               	movwf	___fldiv@grs+1
  5489  0450  3000               	movlw	0
  5490  0451  00BA               	movwf	___fldiv@grs
  5491  0452                     i1l2650:	
  5492  0452  01BF               	clrf	___fldiv@aexp
  5493  0453  2C9E               	goto	i1l2670
  5494  0454                     i1l2652:	
  5495  0454  083F               	movf	___fldiv@aexp,w
  5496  0455  1903               	btfsc	3,2
  5497  0456  2C58               	goto	u227_21
  5498  0457  2C59               	goto	u227_20
  5499  0458                     u227_21:	
  5500  0458  2C79               	goto	i1l2662
  5501  0459                     u227_20:	
  5502  0459                     i1l2654:	
  5503  0459  3001               	movlw	1
  5504  045A  00AE               	movwf	??___fldiv
  5505  045B                     u228_25:	
  5506  045B  1003               	clrc
  5507  045C  0DB3               	rlf	___fldiv@rem,f
  5508  045D  0DB4               	rlf	___fldiv@rem+1,f
  5509  045E  0DB5               	rlf	___fldiv@rem+2,f
  5510  045F  0DB6               	rlf	___fldiv@rem+3,f
  5511  0460  0BAE               	decfsz	??___fldiv,f
  5512  0461  2C5B               	goto	u228_25
  5513  0462  3001               	movlw	1
  5514  0463  00AE               	movwf	??___fldiv
  5515  0464                     u229_25:	
  5516  0464  1003               	clrc
  5517  0465  0DAA               	rlf	___fldiv@b,f
  5518  0466  0DAB               	rlf	___fldiv@b+1,f
  5519  0467  0DAC               	rlf	___fldiv@b+2,f
  5520  0468  0DAD               	rlf	___fldiv@b+3,f
  5521  0469  0BAE               	decfsz	??___fldiv,f
  5522  046A  2C64               	goto	u229_25
  5523  046B                     i1l2656:	
  5524  046B  1FBD               	btfss	___fldiv@grs+3,7
  5525  046C  2C6E               	goto	u230_21
  5526  046D  2C6F               	goto	u230_20
  5527  046E                     u230_21:	
  5528  046E  2C70               	goto	i1l2660
  5529  046F                     u230_20:	
  5530  046F                     i1l2658:	
  5531  046F  142A               	bsf	___fldiv@b,0
  5532  0470                     i1l2660:	
  5533  0470  3001               	movlw	1
  5534  0471  00AE               	movwf	??___fldiv
  5535  0472                     u231_25:	
  5536  0472  1003               	clrc
  5537  0473  0DBA               	rlf	___fldiv@grs,f
  5538  0474  0DBB               	rlf	___fldiv@grs+1,f
  5539  0475  0DBC               	rlf	___fldiv@grs+2,f
  5540  0476  0DBD               	rlf	___fldiv@grs+3,f
  5541  0477  0BAE               	decfsz	??___fldiv,f
  5542  0478  2C72               	goto	u231_25
  5543  0479                     i1l2662:	
  5544  0479  0829               	movf	___fldiv@a+3,w
  5545  047A  0236               	subwf	___fldiv@rem+3,w
  5546  047B  1D03               	skipz
  5547  047C  2C87               	goto	u232_25
  5548  047D  0828               	movf	___fldiv@a+2,w
  5549  047E  0235               	subwf	___fldiv@rem+2,w
  5550  047F  1D03               	skipz
  5551  0480  2C87               	goto	u232_25
  5552  0481  0827               	movf	___fldiv@a+1,w
  5553  0482  0234               	subwf	___fldiv@rem+1,w
  5554  0483  1D03               	skipz
  5555  0484  2C87               	goto	u232_25
  5556  0485  0826               	movf	___fldiv@a,w
  5557  0486  0233               	subwf	___fldiv@rem,w
  5558  0487                     u232_25:	
  5559  0487  1C03               	skipc
  5560  0488  2C8A               	goto	u232_21
  5561  0489  2C8B               	goto	u232_20
  5562  048A                     u232_21:	
  5563  048A  2C9A               	goto	i1l2668
  5564  048B                     u232_20:	
  5565  048B                     i1l2664:	
  5566  048B  173D               	bsf	___fldiv@grs+3,6
  5567  048C                     i1l2666:	
  5568  048C  0826               	movf	___fldiv@a,w
  5569  048D  02B3               	subwf	___fldiv@rem,f
  5570  048E  0827               	movf	___fldiv@a+1,w
  5571  048F  1C03               	skipc
  5572  0490  0F27               	incfsz	___fldiv@a+1,w
  5573  0491  02B4               	subwf	___fldiv@rem+1,f
  5574  0492  0828               	movf	___fldiv@a+2,w
  5575  0493  1C03               	skipc
  5576  0494  0F28               	incfsz	___fldiv@a+2,w
  5577  0495  02B5               	subwf	___fldiv@rem+2,f
  5578  0496  0829               	movf	___fldiv@a+3,w
  5579  0497  1C03               	skipc
  5580  0498  0F29               	incfsz	___fldiv@a+3,w
  5581  0499  02B6               	subwf	___fldiv@rem+3,f
  5582  049A                     i1l2668:	
  5583  049A  3001               	movlw	1
  5584  049B  00AE               	movwf	??___fldiv
  5585  049C  082E               	movf	??___fldiv,w
  5586  049D  07BF               	addwf	___fldiv@aexp,f
  5587  049E                     i1l2670:	
  5588  049E  301A               	movlw	26
  5589  049F  023F               	subwf	___fldiv@aexp,w
  5590  04A0  1C03               	skipc
  5591  04A1  2CA3               	goto	u233_21
  5592  04A2  2CA4               	goto	u233_20
  5593  04A3                     u233_21:	
  5594  04A3  2C54               	goto	i1l2652
  5595  04A4                     u233_20:	
  5596  04A4                     i1l2672:	
  5597  04A4  0836               	movf	___fldiv@rem+3,w
  5598  04A5  0435               	iorwf	___fldiv@rem+2,w
  5599  04A6  0434               	iorwf	___fldiv@rem+1,w
  5600  04A7  0433               	iorwf	___fldiv@rem,w
  5601  04A8  1903               	skipnz
  5602  04A9  2CAB               	goto	u234_21
  5603  04AA  2CAC               	goto	u234_20
  5604  04AB                     u234_21:	
  5605  04AB  2CCB               	goto	i1l2686
  5606  04AC                     u234_20:	
  5607  04AC                     i1l2674:	
  5608  04AC  143A               	bsf	___fldiv@grs,0
  5609  04AD  2CCB               	goto	i1l2686
  5610  04AE                     i1l2676:	
  5611  04AE  3001               	movlw	1
  5612  04AF  00AE               	movwf	??___fldiv
  5613  04B0                     u235_25:	
  5614  04B0  1003               	clrc
  5615  04B1  0DAA               	rlf	___fldiv@b,f
  5616  04B2  0DAB               	rlf	___fldiv@b+1,f
  5617  04B3  0DAC               	rlf	___fldiv@b+2,f
  5618  04B4  0DAD               	rlf	___fldiv@b+3,f
  5619  04B5  0BAE               	decfsz	??___fldiv,f
  5620  04B6  2CB0               	goto	u235_25
  5621  04B7                     i1l2678:	
  5622  04B7  1FBD               	btfss	___fldiv@grs+3,7
  5623  04B8  2CBA               	goto	u236_21
  5624  04B9  2CBB               	goto	u236_20
  5625  04BA                     u236_21:	
  5626  04BA  2CBC               	goto	i1l2682
  5627  04BB                     u236_20:	
  5628  04BB                     i1l2680:	
  5629  04BB  142A               	bsf	___fldiv@b,0
  5630  04BC                     i1l2682:	
  5631  04BC  3001               	movlw	1
  5632  04BD  00AE               	movwf	??___fldiv
  5633  04BE                     u237_25:	
  5634  04BE  1003               	clrc
  5635  04BF  0DBA               	rlf	___fldiv@grs,f
  5636  04C0  0DBB               	rlf	___fldiv@grs+1,f
  5637  04C1  0DBC               	rlf	___fldiv@grs+2,f
  5638  04C2  0DBD               	rlf	___fldiv@grs+3,f
  5639  04C3  0BAE               	decfsz	??___fldiv,f
  5640  04C4  2CBE               	goto	u237_25
  5641  04C5                     i1l2684:	
  5642  04C5  30FF               	movlw	255
  5643  04C6  07B8               	addwf	___fldiv@new_exp,f
  5644  04C7  1803               	skipnc
  5645  04C8  0AB9               	incf	___fldiv@new_exp+1,f
  5646  04C9  30FF               	movlw	255
  5647  04CA  07B9               	addwf	___fldiv@new_exp+1,f
  5648  04CB                     i1l2686:	
  5649  04CB  1FAC               	btfss	___fldiv@b+2,7
  5650  04CC  2CCE               	goto	u238_21
  5651  04CD  2CCF               	goto	u238_20
  5652  04CE                     u238_21:	
  5653  04CE  2CAE               	goto	i1l2676
  5654  04CF                     u238_20:	
  5655  04CF                     i1l2688:	
  5656  04CF  01BF               	clrf	___fldiv@aexp
  5657  04D0                     i1l2690:	
  5658  04D0  1FBD               	btfss	___fldiv@grs+3,7
  5659  04D1  2CD3               	goto	u239_21
  5660  04D2  2CD4               	goto	u239_20
  5661  04D3                     u239_21:	
  5662  04D3  2CF0               	goto	i1l2698
  5663  04D4                     u239_20:	
  5664  04D4                     i1l2692:	
  5665  04D4  30FF               	movlw	255
  5666  04D5  053A               	andwf	___fldiv@grs,w
  5667  04D6  00AE               	movwf	??___fldiv
  5668  04D7  30FF               	movlw	255
  5669  04D8  053B               	andwf	___fldiv@grs+1,w
  5670  04D9  00AF               	movwf	??___fldiv+1
  5671  04DA  30FF               	movlw	255
  5672  04DB  053C               	andwf	___fldiv@grs+2,w
  5673  04DC  00B0               	movwf	??___fldiv+2
  5674  04DD  307F               	movlw	127
  5675  04DE  053D               	andwf	___fldiv@grs+3,w
  5676  04DF  00B1               	movwf	??___fldiv+3
  5677  04E0  0831               	movf	??___fldiv+3,w
  5678  04E1  0430               	iorwf	??___fldiv+2,w
  5679  04E2  042F               	iorwf	??___fldiv+1,w
  5680  04E3  042E               	iorwf	??___fldiv,w
  5681  04E4  1903               	skipnz
  5682  04E5  2CE7               	goto	u240_21
  5683  04E6  2CE8               	goto	u240_20
  5684  04E7                     u240_21:	
  5685  04E7  2CEB               	goto	i1l815
  5686  04E8                     u240_20:	
  5687  04E8                     i1l2694:	
  5688  04E8  01BF               	clrf	___fldiv@aexp
  5689  04E9  0ABF               	incf	___fldiv@aexp,f
  5690  04EA  2CF0               	goto	i1l2698
  5691  04EB                     i1l815:	
  5692  04EB  1C2A               	btfss	___fldiv@b,0
  5693  04EC  2CEE               	goto	u241_21
  5694  04ED  2CEF               	goto	u241_20
  5695  04EE                     u241_21:	
  5696  04EE  2CF0               	goto	i1l2698
  5697  04EF                     u241_20:	
  5698  04EF  2CE8               	goto	i1l2694
  5699  04F0                     i1l2698:	
  5700  04F0  083F               	movf	___fldiv@aexp,w
  5701  04F1  1903               	btfsc	3,2
  5702  04F2  2CF4               	goto	u242_21
  5703  04F3  2CF5               	goto	u242_20
  5704  04F4                     u242_21:	
  5705  04F4  2D26               	goto	i1l2708
  5706  04F5                     u242_20:	
  5707  04F5                     i1l2700:	
  5708  04F5  3001               	movlw	1
  5709  04F6  07AA               	addwf	___fldiv@b,f
  5710  04F7  3000               	movlw	0
  5711  04F8  1803               	skipnc
  5712  04F9  3001               	movlw	1
  5713  04FA  07AB               	addwf	___fldiv@b+1,f
  5714  04FB  3000               	movlw	0
  5715  04FC  1803               	skipnc
  5716  04FD  3001               	movlw	1
  5717  04FE  07AC               	addwf	___fldiv@b+2,f
  5718  04FF  3000               	movlw	0
  5719  0500  1803               	skipnc
  5720  0501  3001               	movlw	1
  5721  0502  07AD               	addwf	___fldiv@b+3,f
  5722  0503                     i1l2702:	
  5723  0503  1C2D               	btfss	___fldiv@b+3,0
  5724  0504  2D06               	goto	u243_21
  5725  0505  2D07               	goto	u243_20
  5726  0506                     u243_21:	
  5727  0506  2D26               	goto	i1l2708
  5728  0507                     u243_20:	
  5729  0507                     i1l2704:	
  5730  0507  082A               	movf	___fldiv@b,w
  5731  0508  00AE               	movwf	??___fldiv
  5732  0509  082B               	movf	___fldiv@b+1,w
  5733  050A  00AF               	movwf	??___fldiv+1
  5734  050B  082C               	movf	___fldiv@b+2,w
  5735  050C  00B0               	movwf	??___fldiv+2
  5736  050D  082D               	movf	___fldiv@b+3,w
  5737  050E  00B1               	movwf	??___fldiv+3
  5738  050F  3001               	movlw	1
  5739  0510  00B2               	movwf	??___fldiv+4
  5740  0511                     u244_25:	
  5741  0511  0D31               	rlf	??___fldiv+3,w
  5742  0512  0CB1               	rrf	??___fldiv+3,f
  5743  0513  0CB0               	rrf	??___fldiv+2,f
  5744  0514  0CAF               	rrf	??___fldiv+1,f
  5745  0515  0CAE               	rrf	??___fldiv,f
  5746  0516                     u244_20:	
  5747  0516  0BB2               	decfsz	??___fldiv+4,f
  5748  0517  2D11               	goto	u244_25
  5749  0518  0831               	movf	??___fldiv+3,w
  5750  0519  00AD               	movwf	___fldiv@b+3
  5751  051A  0830               	movf	??___fldiv+2,w
  5752  051B  00AC               	movwf	___fldiv@b+2
  5753  051C  082F               	movf	??___fldiv+1,w
  5754  051D  00AB               	movwf	___fldiv@b+1
  5755  051E  082E               	movf	??___fldiv,w
  5756  051F  00AA               	movwf	___fldiv@b
  5757  0520                     i1l2706:	
  5758  0520  3001               	movlw	1
  5759  0521  07B8               	addwf	___fldiv@new_exp,f
  5760  0522  1803               	skipnc
  5761  0523  0AB9               	incf	___fldiv@new_exp+1,f
  5762  0524  3000               	movlw	0
  5763  0525  07B9               	addwf	___fldiv@new_exp+1,f
  5764  0526                     i1l2708:	
  5765  0526  0839               	movf	___fldiv@new_exp+1,w
  5766  0527  3A80               	xorlw	128
  5767  0528  00FF               	movwf	btemp+1
  5768  0529  3080               	movlw	128
  5769  052A  027F               	subwf	btemp+1,w
  5770  052B  1D03               	skipz
  5771  052C  2D2F               	goto	u245_25
  5772  052D  30FF               	movlw	255
  5773  052E  0238               	subwf	___fldiv@new_exp,w
  5774  052F                     u245_25:	
  5775  052F  1C03               	skipc
  5776  0530  2D32               	goto	u245_21
  5777  0531  2D33               	goto	u245_20
  5778  0532                     u245_21:	
  5779  0532  2D41               	goto	i1l2712
  5780  0533                     u245_20:	
  5781  0533                     i1l2710:	
  5782  0533  30FF               	movlw	255
  5783  0534  1283               	bcf	3,5	;RP0=0, select bank0
  5784  0535  1303               	bcf	3,6	;RP1=0, select bank0
  5785  0536  00B8               	movwf	___fldiv@new_exp
  5786  0537  3000               	movlw	0
  5787  0538  00B9               	movwf	___fldiv@new_exp+1
  5788  0539  3000               	movlw	0
  5789  053A  00AD               	movwf	___fldiv@b+3
  5790  053B  3000               	movlw	0
  5791  053C  00AC               	movwf	___fldiv@b+2
  5792  053D  3000               	movlw	0
  5793  053E  00AB               	movwf	___fldiv@b+1
  5794  053F  3000               	movlw	0
  5795  0540  00AA               	movwf	___fldiv@b
  5796  0541                     i1l2712:	
  5797  0541  1283               	bcf	3,5	;RP0=0, select bank0
  5798  0542  1303               	bcf	3,6	;RP1=0, select bank0
  5799  0543  0839               	movf	___fldiv@new_exp+1,w
  5800  0544  3A80               	xorlw	128
  5801  0545  00FF               	movwf	btemp+1
  5802  0546  3080               	movlw	128
  5803  0547  027F               	subwf	btemp+1,w
  5804  0548  1D03               	skipz
  5805  0549  2D4C               	goto	u246_25
  5806  054A  3001               	movlw	1
  5807  054B  0238               	subwf	___fldiv@new_exp,w
  5808  054C                     u246_25:	
  5809  054C  1803               	skipnc
  5810  054D  2D4F               	goto	u246_21
  5811  054E  2D50               	goto	u246_20
  5812  054F                     u246_21:	
  5813  054F  2D5D               	goto	i1l821
  5814  0550                     u246_20:	
  5815  0550                     i1l2714:	
  5816  0550  1283               	bcf	3,5	;RP0=0, select bank0
  5817  0551  1303               	bcf	3,6	;RP1=0, select bank0
  5818  0552  01B8               	clrf	___fldiv@new_exp
  5819  0553  01B9               	clrf	___fldiv@new_exp+1
  5820  0554                     i1l2716:	
  5821  0554  3000               	movlw	0
  5822  0555  00AD               	movwf	___fldiv@b+3
  5823  0556  3000               	movlw	0
  5824  0557  00AC               	movwf	___fldiv@b+2
  5825  0558  3000               	movlw	0
  5826  0559  00AB               	movwf	___fldiv@b+1
  5827  055A  3000               	movlw	0
  5828  055B  00AA               	movwf	___fldiv@b
  5829  055C                     i1l2718:	
  5830  055C  01B7               	clrf	___fldiv@sign
  5831  055D                     i1l821:	
  5832  055D  1283               	bcf	3,5	;RP0=0, select bank0
  5833  055E  1303               	bcf	3,6	;RP1=0, select bank0
  5834  055F  0838               	movf	___fldiv@new_exp,w
  5835  0560  00AE               	movwf	??___fldiv
  5836  0561  082E               	movf	??___fldiv,w
  5837  0562  00BE               	movwf	___fldiv@bexp
  5838  0563                     i1l2720:	
  5839  0563  1C3E               	btfss	___fldiv@bexp,0
  5840  0564  2D66               	goto	u247_21
  5841  0565  2D67               	goto	u247_20
  5842  0566                     u247_21:	
  5843  0566  2D69               	goto	i1l2724
  5844  0567                     u247_20:	
  5845  0567                     i1l2722:	
  5846  0567  17AC               	bsf	___fldiv@b+2,7
  5847  0568  2D6D               	goto	i1l823
  5848  0569                     i1l2724:	
  5849  0569  307F               	movlw	127
  5850  056A  00AE               	movwf	??___fldiv
  5851  056B  082E               	movf	??___fldiv,w
  5852  056C  05AC               	andwf	___fldiv@b+2,f
  5853  056D                     i1l823:	
  5854  056D  083E               	movf	___fldiv@bexp,w
  5855  056E  00AE               	movwf	??___fldiv
  5856  056F  1003               	clrc
  5857  0570  0C2E               	rrf	??___fldiv,w
  5858  0571  00AF               	movwf	??___fldiv+1
  5859  0572  082F               	movf	??___fldiv+1,w
  5860  0573  00AD               	movwf	___fldiv@b+3
  5861  0574  0837               	movf	___fldiv@sign,w
  5862  0575  00AE               	movwf	??___fldiv
  5863  0576  082E               	movf	??___fldiv,w
  5864  0577  04AD               	iorwf	___fldiv@b+3,f
  5865  0578  2C11               	goto	i1l2632
  5866  0579                     i1l801:	
  5867  0579  0008               	return
  5868  057A                     __end_of___fldiv:	
  5869                           
  5870                           	psect	text26
  5871  0B60                     __ptext26:	
  5872 ;; *************** function _ADC_Read *****************
  5873 ;; Defined at:
  5874 ;;		line 19 in file "adc_drive.c"
  5875 ;; Parameters:    Size  Location     Type
  5876 ;;  channel         1    wreg     unsigned char 
  5877 ;; Auto vars:     Size  Location     Type
  5878 ;;  channel         1    4[COMMON] unsigned char 
  5879 ;; Return value:  Size  Location     Type
  5880 ;;                  2    0[COMMON] unsigned int 
  5881 ;; Registers used:
  5882 ;;		wreg, status,2, status,0
  5883 ;; Tracked objects:
  5884 ;;		On entry : 0/0
  5885 ;;		On exit  : 0/0
  5886 ;;		Unchanged: 0/0
  5887 ;; Data sizes:     COMMON   BANK0   BANK1   BANK3   BANK2
  5888 ;;      Params:         2       0       0       0       0
  5889 ;;      Locals:         1       0       0       0       0
  5890 ;;      Temps:          2       0       0       0       0
  5891 ;;      Totals:         5       0       0       0       0
  5892 ;;Total ram usage:        5 bytes
  5893 ;; Hardware stack levels used:    1
  5894 ;; This function calls:
  5895 ;;		Nothing
  5896 ;; This function is called by:
  5897 ;;		_temp_sensor_read
  5898 ;; This function uses a non-reentrant model
  5899 ;;
  5900                           
  5901                           
  5902                           ;psect for function _ADC_Read
  5903  0B60                     _ADC_Read:	
  5904                           
  5905                           ;incstack = 0
  5906                           ; Regs used in _ADC_Read: [wreg+status,2+status,0]
  5907                           ;ADC_Read@channel stored from wreg
  5908  0B60  00F4               	movwf	ADC_Read@channel
  5909  0B61                     i1l2498:	
  5910                           
  5911                           ;adc_drive.c: 20:     (ADCON0 &= ~(1 << 3));
  5912  0B61  30F7               	movlw	247
  5913  0B62  00F2               	movwf	??_ADC_Read
  5914  0B63  0872               	movf	??_ADC_Read,w
  5915  0B64  1283               	bcf	3,5	;RP0=0, select bank0
  5916  0B65  1303               	bcf	3,6	;RP1=0, select bank0
  5917  0B66  059F               	andwf	31,f	;volatile
  5918                           
  5919                           ;adc_drive.c: 21:     (ADCON0 &= ~(1 << 4));
  5920  0B67  30EF               	movlw	239
  5921  0B68  00F2               	movwf	??_ADC_Read
  5922  0B69  0872               	movf	??_ADC_Read,w
  5923  0B6A  059F               	andwf	31,f	;volatile
  5924                           
  5925                           ;adc_drive.c: 22:     (ADCON0 &= ~(1 << 5));
  5926  0B6B  30DF               	movlw	223
  5927  0B6C  00F2               	movwf	??_ADC_Read
  5928  0B6D  0872               	movf	??_ADC_Read,w
  5929  0B6E  059F               	andwf	31,f	;volatile
  5930                           
  5931                           ;adc_drive.c: 23:     ADCON0 |= (channel << 3);
  5932  0B6F  0874               	movf	ADC_Read@channel,w	;volatile
  5933  0B70  00F2               	movwf	??_ADC_Read
  5934  0B71  3002               	movlw	2
  5935  0B72                     u204_25:	
  5936  0B72  1003               	clrc
  5937  0B73  0DF2               	rlf	??_ADC_Read,f
  5938  0B74  3EFF               	addlw	-1
  5939  0B75  1D03               	skipz
  5940  0B76  2B72               	goto	u204_25
  5941  0B77  1003               	clrc
  5942  0B78  0D72               	rlf	??_ADC_Read,w
  5943  0B79  00F3               	movwf	??_ADC_Read+1
  5944  0B7A  0873               	movf	??_ADC_Read+1,w
  5945  0B7B  049F               	iorwf	31,f	;volatile
  5946  0B7C                     i1l2500:	
  5947                           
  5948                           ;adc_drive.c: 24:     (ADCON0 |= (1 << 2));
  5949  0B7C  151F               	bsf	31,2	;volatile
  5950  0B7D                     i1l101:	
  5951                           ;adc_drive.c: 25:     while (ADCON0 & (1 << 2)){}
  5952                           
  5953  0B7D  191F               	btfsc	31,2	;volatile
  5954  0B7E  2B80               	goto	u205_21
  5955  0B7F  2B81               	goto	u205_20
  5956  0B80                     u205_21:	
  5957  0B80  2B7D               	goto	i1l101
  5958  0B81                     u205_20:	
  5959  0B81                     i1l2502:	
  5960                           
  5961                           ;adc_drive.c: 26:     return ( ADRESL + (ADRESH* 256) ) ;
  5962  0B81  081E               	movf	30,w	;volatile
  5963  0B82  00F1               	movwf	?_ADC_Read+1
  5964  0B83  1683               	bsf	3,5	;RP0=1, select bank1
  5965  0B84  1303               	bcf	3,6	;RP1=0, select bank1
  5966  0B85  081E               	movf	30,w	;volatile
  5967  0B86  00F0               	movwf	?_ADC_Read
  5968  0B87                     i1l104:	
  5969  0B87  0008               	return
  5970  0B88                     __end_of_ADC_Read:	
  5971                           
  5972                           	psect	text27
  5973  0A3C                     __ptext27:	
  5974 ;; *************** function _temp_control_off *****************
  5975 ;; Defined at:
  5976 ;;		line 62 in file "temp_control.c"
  5977 ;; Parameters:    Size  Location     Type
  5978 ;;		None
  5979 ;; Auto vars:     Size  Location     Type
  5980 ;;		None
  5981 ;; Return value:  Size  Location     Type
  5982 ;;                  1    wreg      void 
  5983 ;; Registers used:
  5984 ;;		wreg, status,2, status,0
  5985 ;; Tracked objects:
  5986 ;;		On entry : 0/0
  5987 ;;		On exit  : 0/0
  5988 ;;		Unchanged: 0/0
  5989 ;; Data sizes:     COMMON   BANK0   BANK1   BANK3   BANK2
  5990 ;;      Params:         0       0       0       0       0
  5991 ;;      Locals:         0       0       0       0       0
  5992 ;;      Temps:          1       0       0       0       0
  5993 ;;      Totals:         1       0       0       0       0
  5994 ;;Total ram usage:        1 bytes
  5995 ;; Hardware stack levels used:    1
  5996 ;; This function calls:
  5997 ;;		Nothing
  5998 ;; This function is called by:
  5999 ;;		_isr
  6000 ;; This function uses a non-reentrant model
  6001 ;;
  6002                           
  6003                           
  6004                           ;psect for function _temp_control_off
  6005  0A3C                     _temp_control_off:	
  6006  0A3C                     i1l3052:	
  6007                           ;incstack = 0
  6008                           ; Regs used in _temp_control_off: [wreg+status,2+status,0]
  6009                           
  6010                           
  6011                           ;temp_control.c: 63:      (PORTC &= ~(1 << 5));
  6012  0A3C  30DF               	movlw	223
  6013  0A3D  00F0               	movwf	??_temp_control_off
  6014  0A3E  0870               	movf	??_temp_control_off,w
  6015  0A3F  1283               	bcf	3,5	;RP0=0, select bank0
  6016  0A40  1303               	bcf	3,6	;RP1=0, select bank0
  6017  0A41  0587               	andwf	7,f	;volatile
  6018                           
  6019                           ;temp_control.c: 64:      (PORTC &= ~(1 << 2));
  6020  0A42  30FB               	movlw	251
  6021  0A43  00F0               	movwf	??_temp_control_off
  6022  0A44  0870               	movf	??_temp_control_off,w
  6023  0A45  0587               	andwf	7,f	;volatile
  6024                           
  6025                           ;temp_control.c: 65:      (PORTB &= ~(1 << 4));
  6026  0A46  30EF               	movlw	239
  6027  0A47  00F0               	movwf	??_temp_control_off
  6028  0A48  0870               	movf	??_temp_control_off,w
  6029  0A49  0586               	andwf	6,f	;volatile
  6030  0A4A                     i1l317:	
  6031  0A4A  0008               	return
  6032  0A4B                     __end_of_temp_control_off:	
  6033                           
  6034                           	psect	text28
  6035  0A7F                     __ptext28:	
  6036 ;; *************** function _switch_scan *****************
  6037 ;; Defined at:
  6038 ;;		line 20 in file "switchs.c"
  6039 ;; Parameters:    Size  Location     Type
  6040 ;;		None
  6041 ;; Auto vars:     Size  Location     Type
  6042 ;;		None
  6043 ;; Return value:  Size  Location     Type
  6044 ;;                  1    wreg      void 
  6045 ;; Registers used:
  6046 ;;		wreg, status,2, status,0
  6047 ;; Tracked objects:
  6048 ;;		On entry : 0/0
  6049 ;;		On exit  : 0/0
  6050 ;;		Unchanged: 0/0
  6051 ;; Data sizes:     COMMON   BANK0   BANK1   BANK3   BANK2
  6052 ;;      Params:         0       0       0       0       0
  6053 ;;      Locals:         0       0       0       0       0
  6054 ;;      Temps:          1       0       0       0       0
  6055 ;;      Totals:         1       0       0       0       0
  6056 ;;Total ram usage:        1 bytes
  6057 ;; Hardware stack levels used:    1
  6058 ;; This function calls:
  6059 ;;		Nothing
  6060 ;; This function is called by:
  6061 ;;		_isr
  6062 ;; This function uses a non-reentrant model
  6063 ;;
  6064                           
  6065                           
  6066                           ;psect for function _switch_scan
  6067  0A7F                     _switch_scan:	
  6068  0A7F                     i1l2976:	
  6069                           ;incstack = 0
  6070                           ; Regs used in _switch_scan: [wreg+status,2+status,0]
  6071                           
  6072                           
  6073                           ;switchs.c: 21:      switch_delay += 1 ;
  6074  0A7F  3001               	movlw	1
  6075  0A80  00F0               	movwf	??_switch_scan
  6076  0A81  0870               	movf	??_switch_scan,w
  6077  0A82  1283               	bcf	3,5	;RP0=0, select bank0
  6078  0A83  1303               	bcf	3,6	;RP1=0, select bank0
  6079  0A84  07E7               	addwf	_switch_delay,f
  6080                           
  6081                           ;switchs.c: 22:     if (switch_delay == 200){
  6082  0A85  30C8               	movlw	200
  6083  0A86  0667               	xorwf	_switch_delay,w
  6084  0A87  1D03               	btfss	3,2
  6085  0A88  2A8A               	goto	u304_21
  6086  0A89  2A8B               	goto	u304_20
  6087  0A8A                     u304_21:	
  6088  0A8A  2A97               	goto	i1l263
  6089  0A8B                     u304_20:	
  6090  0A8B                     i1l2978:	
  6091                           
  6092                           ;switchs.c: 23:        if ( !((PORTB & (1<<2)))){
  6093  0A8B  1906               	btfsc	6,2	;volatile
  6094  0A8C  2A8E               	goto	u305_21
  6095  0A8D  2A8F               	goto	u305_20
  6096  0A8E                     u305_21:	
  6097  0A8E  2A91               	goto	i1l259
  6098  0A8F                     u305_20:	
  6099  0A8F                     i1l2980:	
  6100                           
  6101                           ;switchs.c: 24:           up_sw = PRESSED ;
  6102  0A8F  01EC               	clrf	_up_sw
  6103                           
  6104                           ;switchs.c: 25:        }
  6105  0A90  2A96               	goto	i1l2984
  6106  0A91                     i1l259:	
  6107                           ;switchs.c: 26:        else if ( !((PORTB & (1<<1)))){
  6108                           
  6109  0A91  1886               	btfsc	6,1	;volatile
  6110  0A92  2A94               	goto	u306_21
  6111  0A93  2A95               	goto	u306_20
  6112  0A94                     u306_21:	
  6113  0A94  2A96               	goto	i1l2984
  6114  0A95                     u306_20:	
  6115  0A95                     i1l2982:	
  6116                           
  6117                           ;switchs.c: 27:           down_sw = PRESSED ;
  6118  0A95  01EB               	clrf	_down_sw
  6119  0A96                     i1l2984:	
  6120                           ;switchs.c: 28:        }
  6121                           
  6122                           
  6123                           ;switchs.c: 32:        switch_delay = 0 ;
  6124  0A96  01E7               	clrf	_switch_delay
  6125  0A97                     i1l263:	
  6126  0A97  0008               	return
  6127  0A98                     __end_of_switch_scan:	
  6128                           
  6129                           	psect	text29
  6130  0E81                     __ptext29:	
  6131 ;; *************** function _sw_action *****************
  6132 ;; Defined at:
  6133 ;;		line 36 in file "switchs.c"
  6134 ;; Parameters:    Size  Location     Type
  6135 ;;		None
  6136 ;; Auto vars:     Size  Location     Type
  6137 ;;		None
  6138 ;; Return value:  Size  Location     Type
  6139 ;;                  1    wreg      void 
  6140 ;; Registers used:
  6141 ;;		wreg, fsr0l, fsr0h, status,2, status,0, pclath, cstack
  6142 ;; Tracked objects:
  6143 ;;		On entry : 0/0
  6144 ;;		On exit  : 0/0
  6145 ;;		Unchanged: 0/0
  6146 ;; Data sizes:     COMMON   BANK0   BANK1   BANK3   BANK2
  6147 ;;      Params:         0       0       0       0       0
  6148 ;;      Locals:         0       0       0       0       0
  6149 ;;      Temps:          2       0       0       0       0
  6150 ;;      Totals:         2       0       0       0       0
  6151 ;;Total ram usage:        2 bytes
  6152 ;; Hardware stack levels used:    1
  6153 ;; Hardware stack levels required when called:    3
  6154 ;; This function calls:
  6155 ;;		_EEPROM_write
  6156 ;; This function is called by:
  6157 ;;		_isr
  6158 ;; This function uses a non-reentrant model
  6159 ;;
  6160                           
  6161                           
  6162                           ;psect for function _sw_action
  6163  0E81                     _sw_action:	
  6164  0E81                     i1l2986:	
  6165                           ;incstack = 0
  6166                           ; Regs used in _sw_action: [wreg-fsr0h+status,2+status,0+pclath+cstack]
  6167                           
  6168                           
  6169                           ;switchs.c: 37:      switch (mode){
  6170  0E81  2EDA               	goto	i1l3022
  6171  0E82                     i1l2988:	
  6172                           
  6173                           ;switchs.c: 39:               if ( (up_sw == PRESSED ) || (down_sw == PRESSED) ) {
  6174  0E82  086C               	movf	_up_sw,w
  6175  0E83  1903               	btfsc	3,2
  6176  0E84  2E86               	goto	u307_21
  6177  0E85  2E87               	goto	u307_20
  6178  0E86                     u307_21:	
  6179  0E86  2E8C               	goto	i1l270
  6180  0E87                     u307_20:	
  6181  0E87                     i1l2990:	
  6182  0E87  086B               	movf	_down_sw,w
  6183  0E88  1D03               	btfss	3,2
  6184  0E89  2E8B               	goto	u308_21
  6185  0E8A  2E8C               	goto	u308_20
  6186  0E8B                     u308_21:	
  6187  0E8B  2EEC               	goto	i1l280
  6188  0E8C                     u308_20:	
  6189  0E8C                     i1l270:	
  6190                           
  6191                           ;switchs.c: 40:                   mode = SETTING_MODE ;
  6192  0E8C  01E4               	clrf	_mode
  6193  0E8D  0AE4               	incf	_mode,f
  6194                           
  6195                           ;switchs.c: 41:                   up_sw = RELEASED ;
  6196  0E8E  01EC               	clrf	_up_sw
  6197  0E8F  0AEC               	incf	_up_sw,f
  6198                           
  6199                           ;switchs.c: 42:                   down_sw = RELEASED ;
  6200  0E90  01EB               	clrf	_down_sw
  6201  0E91  0AEB               	incf	_down_sw,f
  6202                           
  6203                           ;switchs.c: 43:               }
  6204  0E92  2EEC               	goto	i1l280
  6205  0E93                     i1l2992:	
  6206                           
  6207                           ;switchs.c: 49:               if (switch_wait < 5000){
  6208  0E93  3013               	movlw	19
  6209  0E94  025B               	subwf	_switch_wait+1,w
  6210  0E95  3088               	movlw	136
  6211  0E96  1903               	skipnz
  6212  0E97  025A               	subwf	_switch_wait,w
  6213  0E98  1803               	skipnc
  6214  0E99  2E9B               	goto	u309_21
  6215  0E9A  2E9C               	goto	u309_20
  6216  0E9B                     u309_21:	
  6217  0E9B  2EC9               	goto	i1l3016
  6218  0E9C                     u309_20:	
  6219  0E9C                     i1l2994:	
  6220                           
  6221                           ;switchs.c: 50:                   if ( (up_sw == PRESSED) && (set_temp < 75)){
  6222  0E9C  086C               	movf	_up_sw,w
  6223  0E9D  1D03               	btfss	3,2
  6224  0E9E  2EA0               	goto	u310_21
  6225  0E9F  2EA1               	goto	u310_20
  6226  0EA0                     u310_21:	
  6227  0EA0  2EB0               	goto	i1l3004
  6228  0EA1                     u310_20:	
  6229  0EA1                     i1l2996:	
  6230  0EA1  304B               	movlw	75
  6231  0EA2  0266               	subwf	_set_temp,w
  6232  0EA3  1803               	skipnc
  6233  0EA4  2EA6               	goto	u311_21
  6234  0EA5  2EA7               	goto	u311_20
  6235  0EA6                     u311_21:	
  6236  0EA6  2EB0               	goto	i1l3004
  6237  0EA7                     u311_20:	
  6238  0EA7                     i1l2998:	
  6239                           
  6240                           ;switchs.c: 51:                       set_temp += 5 ;
  6241  0EA7  3005               	movlw	5
  6242  0EA8  00F4               	movwf	??_sw_action
  6243  0EA9  0874               	movf	??_sw_action,w
  6244  0EAA  07E6               	addwf	_set_temp,f
  6245  0EAB                     i1l3000:	
  6246                           
  6247                           ;switchs.c: 52:                       switch_wait = 0 ;
  6248  0EAB  01DA               	clrf	_switch_wait
  6249  0EAC  01DB               	clrf	_switch_wait+1
  6250  0EAD                     i1l3002:	
  6251                           
  6252                           ;switchs.c: 53:                       up_sw = RELEASED ;
  6253  0EAD  01EC               	clrf	_up_sw
  6254  0EAE  0AEC               	incf	_up_sw,f
  6255                           
  6256                           ;switchs.c: 54:                   }
  6257  0EAF  2EEC               	goto	i1l280
  6258  0EB0                     i1l3004:	
  6259  0EB0  086B               	movf	_down_sw,w
  6260  0EB1  1D03               	btfss	3,2
  6261  0EB2  2EB4               	goto	u312_21
  6262  0EB3  2EB5               	goto	u312_20
  6263  0EB4                     u312_21:	
  6264  0EB4  2EC2               	goto	i1l3014
  6265  0EB5                     u312_20:	
  6266  0EB5                     i1l3006:	
  6267  0EB5  3024               	movlw	36
  6268  0EB6  0266               	subwf	_set_temp,w
  6269  0EB7  1C03               	skipc
  6270  0EB8  2EBA               	goto	u313_21
  6271  0EB9  2EBB               	goto	u313_20
  6272  0EBA                     u313_21:	
  6273  0EBA  2EC2               	goto	i1l3014
  6274  0EBB                     u313_20:	
  6275  0EBB                     i1l3008:	
  6276                           
  6277                           ;switchs.c: 56:                       set_temp -= 5 ;
  6278  0EBB  3005               	movlw	5
  6279  0EBC  02E6               	subwf	_set_temp,f
  6280  0EBD                     i1l3010:	
  6281                           
  6282                           ;switchs.c: 57:                       switch_wait = 0 ;
  6283  0EBD  01DA               	clrf	_switch_wait
  6284  0EBE  01DB               	clrf	_switch_wait+1
  6285  0EBF                     i1l3012:	
  6286                           
  6287                           ;switchs.c: 58:                       down_sw = RELEASED ;
  6288  0EBF  01EB               	clrf	_down_sw
  6289  0EC0  0AEB               	incf	_down_sw,f
  6290                           
  6291                           ;switchs.c: 59:                   }
  6292  0EC1  2EEC               	goto	i1l280
  6293  0EC2                     i1l3014:	
  6294                           
  6295                           ;switchs.c: 61:                       switch_wait += 1 ;
  6296  0EC2  3001               	movlw	1
  6297  0EC3  07DA               	addwf	_switch_wait,f
  6298  0EC4  1803               	skipnc
  6299  0EC5  0ADB               	incf	_switch_wait+1,f
  6300  0EC6  3000               	movlw	0
  6301  0EC7  07DB               	addwf	_switch_wait+1,f
  6302  0EC8  2EEC               	goto	i1l280
  6303  0EC9                     i1l3016:	
  6304                           
  6305                           ;switchs.c: 65:                    mode = NORMAL_MODE ;
  6306  0EC9  01E4               	clrf	_mode
  6307                           
  6308                           ;switchs.c: 66:                    switch_wait = 0 ;
  6309  0ECA  01DA               	clrf	_switch_wait
  6310  0ECB  01DB               	clrf	_switch_wait+1
  6311  0ECC                     i1l3018:	
  6312                           
  6313                           ;switchs.c: 67:                    EEPROM_write(0xff , set_temp);
  6314  0ECC  30FF               	movlw	255
  6315  0ECD  00F1               	movwf	EEPROM_write@address
  6316  0ECE  3000               	movlw	0
  6317  0ECF  00F2               	movwf	EEPROM_write@address+1
  6318  0ED0  0866               	movf	_set_temp,w
  6319  0ED1  00F4               	movwf	??_sw_action
  6320  0ED2  0874               	movf	??_sw_action,w
  6321  0ED3  00F3               	movwf	EEPROM_write@_x
  6322  0ED4  120A  158A  22B4  120A  158A  	fcall	_EEPROM_write
  6323  0ED9  2EEC               	goto	i1l280
  6324  0EDA                     i1l3022:	
  6325  0EDA  1283               	bcf	3,5	;RP0=0, select bank0
  6326  0EDB  1303               	bcf	3,6	;RP1=0, select bank0
  6327  0EDC  0864               	movf	_mode,w
  6328  0EDD  00F4               	movwf	??_sw_action
  6329  0EDE  01F5               	clrf	??_sw_action+1
  6330                           
  6331                           ; Switch on 2 bytes has been partitioned into a top level switch of size 1, and 1 sub-sw
      +                          itches
  6332                           ; Switch size 1, requested type "simple"
  6333                           ; Number of cases is 1, Range of values is 0 to 0
  6334                           ; switch strategies available:
  6335                           ; Name         Instructions Cycles
  6336                           ; simple_byte            4     3 (average)
  6337                           ; direct_byte           11     8 (fixed)
  6338                           ; jumptable            260     6 (fixed)
  6339                           ;	Chosen strategy is simple_byte
  6340  0EDF  0875               	movf	??_sw_action+1,w
  6341  0EE0  3A00               	xorlw	0	; case 0
  6342  0EE1  1903               	skipnz
  6343  0EE2  2EE4               	goto	i1l3320
  6344  0EE3  2EEC               	goto	i1l280
  6345  0EE4                     i1l3320:	
  6346                           
  6347                           ; Switch size 1, requested type "simple"
  6348                           ; Number of cases is 2, Range of values is 0 to 1
  6349                           ; switch strategies available:
  6350                           ; Name         Instructions Cycles
  6351                           ; simple_byte            7     4 (average)
  6352                           ; direct_byte           14     8 (fixed)
  6353                           ; jumptable            260     6 (fixed)
  6354                           ;	Chosen strategy is simple_byte
  6355  0EE4  0874               	movf	??_sw_action,w
  6356  0EE5  3A00               	xorlw	0	; case 0
  6357  0EE6  1903               	skipnz
  6358  0EE7  2E82               	goto	i1l2988
  6359  0EE8  3A01               	xorlw	1	; case 1
  6360  0EE9  1903               	skipnz
  6361  0EEA  2E93               	goto	i1l2992
  6362  0EEB  2EEC               	goto	i1l280
  6363  0EEC                     i1l280:	
  6364  0EEC  0008               	return
  6365  0EED                     __end_of_sw_action:	
  6366                           
  6367                           	psect	text30
  6368  0AB4                     __ptext30:	
  6369 ;; *************** function _EEPROM_write *****************
  6370 ;; Defined at:
  6371 ;;		line 7 in file "eeprom.c"
  6372 ;; Parameters:    Size  Location     Type
  6373 ;;  address         2    1[COMMON] unsigned int 
  6374 ;;  _x              1    3[COMMON] unsigned char 
  6375 ;; Auto vars:     Size  Location     Type
  6376 ;;		None
  6377 ;; Return value:  Size  Location     Type
  6378 ;;                  1    wreg      void 
  6379 ;; Registers used:
  6380 ;;		wreg, status,2, status,0, pclath, cstack
  6381 ;; Tracked objects:
  6382 ;;		On entry : 0/0
  6383 ;;		On exit  : 0/0
  6384 ;;		Unchanged: 0/0
  6385 ;; Data sizes:     COMMON   BANK0   BANK1   BANK3   BANK2
  6386 ;;      Params:         3       0       0       0       0
  6387 ;;      Locals:         0       0       0       0       0
  6388 ;;      Temps:          0       0       0       0       0
  6389 ;;      Totals:         3       0       0       0       0
  6390 ;;Total ram usage:        3 bytes
  6391 ;; Hardware stack levels used:    1
  6392 ;; Hardware stack levels required when called:    2
  6393 ;; This function calls:
  6394 ;;		i1_I2C1_Start
  6395 ;;		i1_I2C1_Stop
  6396 ;;		i1_I2C1_Wr
  6397 ;; This function is called by:
  6398 ;;		_sw_action
  6399 ;; This function uses a non-reentrant model
  6400 ;;
  6401                           
  6402                           
  6403                           ;psect for function _EEPROM_write
  6404  0AB4                     _EEPROM_write:	
  6405  0AB4                     i1l2534:	
  6406                           ;incstack = 0
  6407                           ; Regs used in _EEPROM_write: [wreg+status,2+status,0+pclath+cstack]
  6408                           
  6409                           
  6410                           ;eeprom.c: 8:     I2C1_Start();
  6411  0AB4  120A  158A  21DB  120A  158A  	fcall	i1_I2C1_Start
  6412                           
  6413                           ;eeprom.c: 9:     I2C1_Wr(0XA2);
  6414  0AB9  30A2               	movlw	162
  6415  0ABA  120A  158A  224B  120A  158A  	fcall	i1_I2C1_Wr
  6416                           
  6417                           ;eeprom.c: 10:     I2C1_Wr(address);
  6418  0ABF  0871               	movf	EEPROM_write@address,w
  6419  0AC0  120A  158A  224B  120A  158A  	fcall	i1_I2C1_Wr
  6420                           
  6421                           ;eeprom.c: 11:     I2C1_Wr(_x);
  6422  0AC5  0873               	movf	EEPROM_write@_x,w
  6423  0AC6  120A  158A  224B  120A  158A  	fcall	i1_I2C1_Wr
  6424                           
  6425                           ;eeprom.c: 12:     I2C1_Stop();
  6426  0ACB  120A  158A  21E4  120A  158A  	fcall	i1_I2C1_Stop
  6427  0AD0                     i1l158:	
  6428  0AD0  0008               	return
  6429  0AD1                     __end_of_EEPROM_write:	
  6430                           
  6431                           	psect	text31
  6432  0A4B                     __ptext31:	
  6433 ;; *************** function i1_I2C1_Wr *****************
  6434 ;; Defined at:
  6435 ;;		line 25 in file "I2C_drive.c"
  6436 ;; Parameters:    Size  Location     Type
  6437 ;;  _data           1    wreg     unsigned char 
  6438 ;; Auto vars:     Size  Location     Type
  6439 ;;  _data           1    0[COMMON] unsigned char 
  6440 ;; Return value:  Size  Location     Type
  6441 ;;                  1    wreg      void 
  6442 ;; Registers used:
  6443 ;;		wreg, status,2, status,0, pclath, cstack
  6444 ;; Tracked objects:
  6445 ;;		On entry : 0/0
  6446 ;;		On exit  : 0/0
  6447 ;;		Unchanged: 0/0
  6448 ;; Data sizes:     COMMON   BANK0   BANK1   BANK3   BANK2
  6449 ;;      Params:         0       0       0       0       0
  6450 ;;      Locals:         1       0       0       0       0
  6451 ;;      Temps:          0       0       0       0       0
  6452 ;;      Totals:         1       0       0       0       0
  6453 ;;Total ram usage:        1 bytes
  6454 ;; Hardware stack levels used:    1
  6455 ;; Hardware stack levels required when called:    1
  6456 ;; This function calls:
  6457 ;;		i1_I2C_Wait
  6458 ;; This function is called by:
  6459 ;;		_EEPROM_write
  6460 ;; This function uses a non-reentrant model
  6461 ;;
  6462                           
  6463                           
  6464                           ;psect for function i1_I2C1_Wr
  6465  0A4B                     i1_I2C1_Wr:	
  6466                           
  6467                           ;incstack = 0
  6468                           ; Regs used in i1_I2C1_Wr: [wreg+status,2+status,0+pclath+cstack]
  6469                           ;i1I2C1_Wr@_data stored from wreg
  6470  0A4B  00F0               	movwf	i1I2C1_Wr@_data
  6471  0A4C                     i1l2444:	
  6472                           
  6473                           ;I2C_drive.c: 26:     I2C_Wait();
  6474  0A4C  120A  158A  2214  120A  158A  	fcall	i1_I2C_Wait
  6475  0A51                     i1l2446:	
  6476                           
  6477                           ;I2C_drive.c: 27:     SSPBUF = _data ;
  6478  0A51  0870               	movf	i1I2C1_Wr@_data,w
  6479  0A52  1283               	bcf	3,5	;RP0=0, select bank0
  6480  0A53  1303               	bcf	3,6	;RP1=0, select bank0
  6481  0A54  0093               	movwf	19	;volatile
  6482  0A55                     i1l2448:	
  6483                           
  6484                           ;I2C_drive.c: 28:     I2C_Wait();
  6485  0A55  120A  158A  2214  120A  158A  	fcall	i1_I2C_Wait
  6486  0A5A                     i1l136:	
  6487  0A5A  0008               	return
  6488  0A5B                     __end_ofi1_I2C1_Wr:	
  6489                           
  6490                           	psect	text32
  6491  09E4                     __ptext32:	
  6492 ;; *************** function i1_I2C1_Stop *****************
  6493 ;; Defined at:
  6494 ;;		line 20 in file "I2C_drive.c"
  6495 ;; Parameters:    Size  Location     Type
  6496 ;;		None
  6497 ;; Auto vars:     Size  Location     Type
  6498 ;;		None
  6499 ;; Return value:  Size  Location     Type
  6500 ;;                  1    wreg      void 
  6501 ;; Registers used:
  6502 ;;		wreg, status,2, status,0, pclath, cstack
  6503 ;; Tracked objects:
  6504 ;;		On entry : 0/0
  6505 ;;		On exit  : 0/0
  6506 ;;		Unchanged: 0/0
  6507 ;; Data sizes:     COMMON   BANK0   BANK1   BANK3   BANK2
  6508 ;;      Params:         0       0       0       0       0
  6509 ;;      Locals:         0       0       0       0       0
  6510 ;;      Temps:          0       0       0       0       0
  6511 ;;      Totals:         0       0       0       0       0
  6512 ;;Total ram usage:        0 bytes
  6513 ;; Hardware stack levels used:    1
  6514 ;; Hardware stack levels required when called:    1
  6515 ;; This function calls:
  6516 ;;		i1_I2C_Wait
  6517 ;; This function is called by:
  6518 ;;		_EEPROM_write
  6519 ;; This function uses a non-reentrant model
  6520 ;;
  6521                           
  6522                           
  6523                           ;psect for function i1_I2C1_Stop
  6524  09E4                     i1_I2C1_Stop:	
  6525  09E4                     i1l2440:	
  6526                           ;incstack = 0
  6527                           ; Regs used in i1_I2C1_Stop: [wreg+status,2+status,0+pclath+cstack]
  6528                           
  6529                           
  6530                           ;I2C_drive.c: 21:     I2C_Wait();
  6531  09E4  120A  158A  2214  120A  158A  	fcall	i1_I2C_Wait
  6532  09E9                     i1l2442:	
  6533                           
  6534                           ;I2C_drive.c: 22:     (SSPCON2 |= (1 << 2));
  6535  09E9  1683               	bsf	3,5	;RP0=1, select bank1
  6536  09EA  1303               	bcf	3,6	;RP1=0, select bank1
  6537  09EB  1511               	bsf	17,2	;volatile
  6538  09EC                     i1l133:	
  6539  09EC  0008               	return
  6540  09ED                     __end_ofi1_I2C1_Stop:	
  6541                           
  6542                           	psect	text33
  6543  09DB                     __ptext33:	
  6544 ;; *************** function i1_I2C1_Start *****************
  6545 ;; Defined at:
  6546 ;;		line 15 in file "I2C_drive.c"
  6547 ;; Parameters:    Size  Location     Type
  6548 ;;		None
  6549 ;; Auto vars:     Size  Location     Type
  6550 ;;		None
  6551 ;; Return value:  Size  Location     Type
  6552 ;;                  1    wreg      void 
  6553 ;; Registers used:
  6554 ;;		wreg, status,2, status,0, pclath, cstack
  6555 ;; Tracked objects:
  6556 ;;		On entry : 0/0
  6557 ;;		On exit  : 0/0
  6558 ;;		Unchanged: 0/0
  6559 ;; Data sizes:     COMMON   BANK0   BANK1   BANK3   BANK2
  6560 ;;      Params:         0       0       0       0       0
  6561 ;;      Locals:         0       0       0       0       0
  6562 ;;      Temps:          0       0       0       0       0
  6563 ;;      Totals:         0       0       0       0       0
  6564 ;;Total ram usage:        0 bytes
  6565 ;; Hardware stack levels used:    1
  6566 ;; Hardware stack levels required when called:    1
  6567 ;; This function calls:
  6568 ;;		i1_I2C_Wait
  6569 ;; This function is called by:
  6570 ;;		_EEPROM_write
  6571 ;; This function uses a non-reentrant model
  6572 ;;
  6573                           
  6574                           
  6575                           ;psect for function i1_I2C1_Start
  6576  09DB                     i1_I2C1_Start:	
  6577  09DB                     i1l2436:	
  6578                           ;incstack = 0
  6579                           ; Regs used in i1_I2C1_Start: [wreg+status,2+status,0+pclath+cstack]
  6580                           
  6581                           
  6582                           ;I2C_drive.c: 16:     I2C_Wait();
  6583  09DB  120A  158A  2214  120A  158A  	fcall	i1_I2C_Wait
  6584  09E0                     i1l2438:	
  6585                           
  6586                           ;I2C_drive.c: 17:     (SSPCON2 |= (1 << 0));
  6587  09E0  1683               	bsf	3,5	;RP0=1, select bank1
  6588  09E1  1303               	bcf	3,6	;RP1=0, select bank1
  6589  09E2  1411               	bsf	17,0	;volatile
  6590  09E3                     i1l130:	
  6591  09E3  0008               	return
  6592  09E4                     __end_ofi1_I2C1_Start:	
  6593                           
  6594                           	psect	text34
  6595  0A14                     __ptext34:	
  6596 ;; *************** function i1_I2C_Wait *****************
  6597 ;; Defined at:
  6598 ;;		line 3 in file "I2C_drive.c"
  6599 ;; Parameters:    Size  Location     Type
  6600 ;;		None
  6601 ;; Auto vars:     Size  Location     Type
  6602 ;;		None
  6603 ;; Return value:  Size  Location     Type
  6604 ;;                  1    wreg      void 
  6605 ;; Registers used:
  6606 ;;		wreg, status,2
  6607 ;; Tracked objects:
  6608 ;;		On entry : 0/0
  6609 ;;		On exit  : 0/0
  6610 ;;		Unchanged: 0/0
  6611 ;; Data sizes:     COMMON   BANK0   BANK1   BANK3   BANK2
  6612 ;;      Params:         0       0       0       0       0
  6613 ;;      Locals:         0       0       0       0       0
  6614 ;;      Temps:          0       0       0       0       0
  6615 ;;      Totals:         0       0       0       0       0
  6616 ;;Total ram usage:        0 bytes
  6617 ;; Hardware stack levels used:    1
  6618 ;; This function calls:
  6619 ;;		Nothing
  6620 ;; This function is called by:
  6621 ;;		i1_I2C1_Start
  6622 ;;		i1_I2C1_Stop
  6623 ;;		i1_I2C1_Wr
  6624 ;; This function uses a non-reentrant model
  6625 ;;
  6626                           
  6627                           
  6628                           ;psect for function i1_I2C_Wait
  6629  0A14                     i1_I2C_Wait:	
  6630  0A14                     i1l2154:	
  6631                           ;incstack = 0
  6632                           ; Regs used in i1_I2C_Wait: [wreg+status,2]
  6633                           
  6634  0A14                     i1l121:	
  6635                           ;I2C_drive.c: 4:   while ((SSPSTAT & 0x04) || (SSPCON2 & 0x1F));
  6636                           
  6637  0A14  1683               	bsf	3,5	;RP0=1, select bank1
  6638  0A15  1303               	bcf	3,6	;RP1=0, select bank1
  6639  0A16  1914               	btfsc	20,2	;volatile
  6640  0A17  2A19               	goto	u160_21
  6641  0A18  2A1A               	goto	u160_20
  6642  0A19                     u160_21:	
  6643  0A19  2A14               	goto	i1l121
  6644  0A1A                     u160_20:	
  6645  0A1A                     i1l2156:	
  6646  0A1A  0811               	movf	17,w	;volatile
  6647  0A1B  391F               	andlw	31
  6648  0A1C  1D03               	btfss	3,2
  6649  0A1D  2A1F               	goto	u161_21
  6650  0A1E  2A20               	goto	u161_20
  6651  0A1F                     u161_21:	
  6652  0A1F  2A14               	goto	i1l121
  6653  0A20                     u161_20:	
  6654  0A20                     i1l124:	
  6655  0A20  0008               	return
  6656  0A21                     __end_ofi1_I2C_Wait:	
  6657                           
  6658                           	psect	text35
  6659  09C5                     __ptext35:	
  6660 ;; *************** function _stop_timer *****************
  6661 ;; Defined at:
  6662 ;;		line 15 in file "timer2.c"
  6663 ;; Parameters:    Size  Location     Type
  6664 ;;		None
  6665 ;; Auto vars:     Size  Location     Type
  6666 ;;		None
  6667 ;; Return value:  Size  Location     Type
  6668 ;;                  1    wreg      void 
  6669 ;; Registers used:
  6670 ;;		wreg, status,2, status,0
  6671 ;; Tracked objects:
  6672 ;;		On entry : 0/0
  6673 ;;		On exit  : 0/0
  6674 ;;		Unchanged: 0/0
  6675 ;; Data sizes:     COMMON   BANK0   BANK1   BANK3   BANK2
  6676 ;;      Params:         0       0       0       0       0
  6677 ;;      Locals:         0       0       0       0       0
  6678 ;;      Temps:          1       0       0       0       0
  6679 ;;      Totals:         1       0       0       0       0
  6680 ;;Total ram usage:        1 bytes
  6681 ;; Hardware stack levels used:    1
  6682 ;; This function calls:
  6683 ;;		Nothing
  6684 ;; This function is called by:
  6685 ;;		_isr
  6686 ;; This function uses a non-reentrant model
  6687 ;;
  6688                           
  6689                           
  6690                           ;psect for function _stop_timer
  6691  09C5                     _stop_timer:	
  6692  09C5                     i1l3050:	
  6693                           ;incstack = 0
  6694                           ; Regs used in _stop_timer: [wreg+status,2+status,0]
  6695                           
  6696                           
  6697                           ;timer2.c: 16:     (T2CON &= ~(1 << 2)) ;
  6698  09C5  30FB               	movlw	251
  6699  09C6  00F0               	movwf	??_stop_timer
  6700  09C7  0870               	movf	??_stop_timer,w
  6701  09C8  1283               	bcf	3,5	;RP0=0, select bank0
  6702  09C9  1303               	bcf	3,6	;RP1=0, select bank0
  6703  09CA  0592               	andwf	18,f	;volatile
  6704  09CB                     i1l361:	
  6705  09CB  0008               	return
  6706  09CC                     __end_of_stop_timer:	
  6707                           
  6708                           	psect	text36
  6709  09BF                     __ptext36:	
  6710 ;; *************** function _start_timer *****************
  6711 ;; Defined at:
  6712 ;;		line 19 in file "timer2.c"
  6713 ;; Parameters:    Size  Location     Type
  6714 ;;		None
  6715 ;; Auto vars:     Size  Location     Type
  6716 ;;		None
  6717 ;; Return value:  Size  Location     Type
  6718 ;;                  1    wreg      void 
  6719 ;; Registers used:
  6720 ;;		wreg
  6721 ;; Tracked objects:
  6722 ;;		On entry : 0/0
  6723 ;;		On exit  : 0/0
  6724 ;;		Unchanged: 0/0
  6725 ;; Data sizes:     COMMON   BANK0   BANK1   BANK3   BANK2
  6726 ;;      Params:         0       0       0       0       0
  6727 ;;      Locals:         0       0       0       0       0
  6728 ;;      Temps:          0       0       0       0       0
  6729 ;;      Totals:         0       0       0       0       0
  6730 ;;Total ram usage:        0 bytes
  6731 ;; Hardware stack levels used:    1
  6732 ;; This function calls:
  6733 ;;		Nothing
  6734 ;; This function is called by:
  6735 ;;		_isr
  6736 ;; This function uses a non-reentrant model
  6737 ;;
  6738                           
  6739                           
  6740                           ;psect for function _start_timer
  6741  09BF                     _start_timer:	
  6742  09BF                     i1l3054:	
  6743                           ;incstack = 0
  6744                           ; Regs used in _start_timer: [wreg]
  6745                           
  6746                           
  6747                           ;timer2.c: 20:     (T2CON |= (1 << 2)) ;
  6748  09BF  1283               	bcf	3,5	;RP0=0, select bank0
  6749  09C0  1303               	bcf	3,6	;RP1=0, select bank0
  6750  09C1  1512               	bsf	18,2	;volatile
  6751  09C2                     i1l3056:	
  6752                           
  6753                           ;timer2.c: 21:     TMR2 = 131 ;
  6754  09C2  3083               	movlw	131
  6755  09C3  0091               	movwf	17	;volatile
  6756  09C4                     i1l364:	
  6757  09C4  0008               	return
  6758  09C5                     __end_of_start_timer:	
  6759                           
  6760                           	psect	text37
  6761  0C8F                     __ptext37:	
  6762 ;; *************** function _ssd_blink *****************
  6763 ;; Defined at:
  6764 ;;		line 113 in file "SSD.c"
  6765 ;; Parameters:    Size  Location     Type
  6766 ;;  e_temp          1    wreg     unsigned char 
  6767 ;; Auto vars:     Size  Location     Type
  6768 ;;  e_temp          1   13[COMMON] unsigned char 
  6769 ;; Return value:  Size  Location     Type
  6770 ;;                  1    wreg      void 
  6771 ;; Registers used:
  6772 ;;		wreg, fsr0l, fsr0h, status,2, status,0, pclath, cstack
  6773 ;; Tracked objects:
  6774 ;;		On entry : 0/0
  6775 ;;		On exit  : 0/0
  6776 ;;		Unchanged: 0/0
  6777 ;; Data sizes:     COMMON   BANK0   BANK1   BANK3   BANK2
  6778 ;;      Params:         0       0       0       0       0
  6779 ;;      Locals:         1       0       0       0       0
  6780 ;;      Temps:          0       2       0       0       0
  6781 ;;      Totals:         1       2       0       0       0
  6782 ;;Total ram usage:        3 bytes
  6783 ;; Hardware stack levels used:    1
  6784 ;; Hardware stack levels required when called:    2
  6785 ;; This function calls:
  6786 ;;		_ssd_turn_off
  6787 ;;		_ssd_update
  6788 ;; This function is called by:
  6789 ;;		_isr
  6790 ;; This function uses a non-reentrant model
  6791 ;;
  6792                           
  6793                           
  6794                           ;psect for function _ssd_blink
  6795  0C8F                     _ssd_blink:	
  6796                           
  6797                           ;incstack = 0
  6798                           ; Regs used in _ssd_blink: [wreg-fsr0h+status,2+status,0+pclath+cstack]
  6799                           ;ssd_blink@e_temp stored from wreg
  6800  0C8F  00FD               	movwf	ssd_blink@e_temp
  6801  0C90                     i1l3028:	
  6802                           
  6803                           ;SSD.c: 114:      ssd_timer += 1;
  6804  0C90  3001               	movlw	1
  6805  0C91  1283               	bcf	3,5	;RP0=0, select bank0
  6806  0C92  1303               	bcf	3,6	;RP1=0, select bank0
  6807  0C93  07D8               	addwf	_ssd_timer,f
  6808  0C94  1803               	skipnc
  6809  0C95  0AD9               	incf	_ssd_timer+1,f
  6810  0C96  3000               	movlw	0
  6811  0C97  07D9               	addwf	_ssd_timer+1,f
  6812                           
  6813                           ;SSD.c: 115:      switch (blink){
  6814  0C98  2CC0               	goto	i1l3044
  6815  0C99                     i1l3030:	
  6816                           
  6817                           ;SSD.c: 117:                  if (ssd_timer < 1000){
  6818  0C99  3003               	movlw	3
  6819  0C9A  0259               	subwf	_ssd_timer+1,w
  6820  0C9B  30E8               	movlw	232
  6821  0C9C  1903               	skipnz
  6822  0C9D  0258               	subwf	_ssd_timer,w
  6823  0C9E  1803               	skipnc
  6824  0C9F  2CA1               	goto	u314_21
  6825  0CA0  2CA2               	goto	u314_20
  6826  0CA1                     u314_21:	
  6827  0CA1  2CA9               	goto	i1l223
  6828  0CA2                     u314_20:	
  6829  0CA2                     i1l3032:	
  6830                           
  6831                           ;SSD.c: 118:                      ssd_update(e_temp);
  6832  0CA2  087D               	movf	ssd_blink@e_temp,w
  6833  0CA3  120A  118A  278F  120A  158A  	fcall	_ssd_update
  6834                           
  6835                           ;SSD.c: 119:                  }
  6836  0CA8  2CD0               	goto	i1l230
  6837  0CA9                     i1l223:	
  6838                           ;SSD.c: 120:                  else{
  6839                           
  6840                           
  6841                           ;SSD.c: 121:                       blink = SSD_OFF ;
  6842  0CA9  01DF               	clrf	_blink
  6843  0CAA  0ADF               	incf	_blink,f
  6844  0CAB                     i1l3034:	
  6845                           
  6846                           ;SSD.c: 122:                       ssd_timer = 0 ;
  6847  0CAB  01D8               	clrf	_ssd_timer
  6848  0CAC  01D9               	clrf	_ssd_timer+1
  6849  0CAD                     i1l3036:	
  6850                           
  6851                           ;SSD.c: 123:                       ssd_turn_off();
  6852  0CAD  120A  158A  2208  120A  158A  	fcall	_ssd_turn_off
  6853  0CB2  2CD0               	goto	i1l230
  6854  0CB3                     i1l3038:	
  6855                           
  6856                           ;SSD.c: 127:                  if (ssd_timer == 1000){
  6857  0CB3  30E8               	movlw	232
  6858  0CB4  0658               	xorwf	_ssd_timer,w
  6859  0CB5  3003               	movlw	3
  6860  0CB6  1903               	skipnz
  6861  0CB7  0659               	xorwf	_ssd_timer+1,w
  6862  0CB8  1D03               	btfss	3,2
  6863  0CB9  2CBB               	goto	u315_21
  6864  0CBA  2CBC               	goto	u315_20
  6865  0CBB                     u315_21:	
  6866  0CBB  2CD0               	goto	i1l230
  6867  0CBC                     u315_20:	
  6868  0CBC                     i1l3040:	
  6869                           
  6870                           ;SSD.c: 128:                      blink = SSD_ON ;
  6871  0CBC  01DF               	clrf	_blink
  6872                           
  6873                           ;SSD.c: 129:                      ssd_timer = 0 ;
  6874  0CBD  01D8               	clrf	_ssd_timer
  6875  0CBE  01D9               	clrf	_ssd_timer+1
  6876                           
  6877                           ;SSD.c: 130:                  }
  6878  0CBF  2CD0               	goto	i1l230
  6879  0CC0                     i1l3044:	
  6880  0CC0  085F               	movf	_blink,w
  6881  0CC1  00A0               	movwf	??_ssd_blink
  6882  0CC2  01A1               	clrf	??_ssd_blink+1
  6883                           
  6884                           ; Switch on 2 bytes has been partitioned into a top level switch of size 1, and 1 sub-sw
      +                          itches
  6885                           ; Switch size 1, requested type "simple"
  6886                           ; Number of cases is 1, Range of values is 0 to 0
  6887                           ; switch strategies available:
  6888                           ; Name         Instructions Cycles
  6889                           ; simple_byte            4     3 (average)
  6890                           ; direct_byte           11     8 (fixed)
  6891                           ; jumptable            260     6 (fixed)
  6892                           ;	Chosen strategy is simple_byte
  6893  0CC3  0821               	movf	??_ssd_blink+1,w
  6894  0CC4  3A00               	xorlw	0	; case 0
  6895  0CC5  1903               	skipnz
  6896  0CC6  2CC8               	goto	i1l3322
  6897  0CC7  2CD0               	goto	i1l230
  6898  0CC8                     i1l3322:	
  6899                           
  6900                           ; Switch size 1, requested type "simple"
  6901                           ; Number of cases is 2, Range of values is 0 to 1
  6902                           ; switch strategies available:
  6903                           ; Name         Instructions Cycles
  6904                           ; simple_byte            7     4 (average)
  6905                           ; direct_byte           14     8 (fixed)
  6906                           ; jumptable            260     6 (fixed)
  6907                           ;	Chosen strategy is simple_byte
  6908  0CC8  0820               	movf	??_ssd_blink,w
  6909  0CC9  3A00               	xorlw	0	; case 0
  6910  0CCA  1903               	skipnz
  6911  0CCB  2C99               	goto	i1l3030
  6912  0CCC  3A01               	xorlw	1	; case 1
  6913  0CCD  1903               	skipnz
  6914  0CCE  2CB3               	goto	i1l3038
  6915  0CCF  2CD0               	goto	i1l230
  6916  0CD0                     i1l230:	
  6917  0CD0  0008               	return
  6918  0CD1                     __end_of_ssd_blink:	
  6919                           
  6920                           	psect	text38
  6921  078F                     __ptext38:	
  6922 ;; *************** function _ssd_update *****************
  6923 ;; Defined at:
  6924 ;;		line 82 in file "SSD.c"
  6925 ;; Parameters:    Size  Location     Type
  6926 ;;  temp            1    wreg     unsigned char 
  6927 ;; Auto vars:     Size  Location     Type
  6928 ;;  temp            1   12[COMMON] unsigned char 
  6929 ;; Return value:  Size  Location     Type
  6930 ;;                  1    wreg      void 
  6931 ;; Registers used:
  6932 ;;		wreg, fsr0l, fsr0h, status,2, status,0, pclath, cstack
  6933 ;; Tracked objects:
  6934 ;;		On entry : 0/0
  6935 ;;		On exit  : 0/0
  6936 ;;		Unchanged: 0/0
  6937 ;; Data sizes:     COMMON   BANK0   BANK1   BANK3   BANK2
  6938 ;;      Params:         0       0       0       0       0
  6939 ;;      Locals:         1       0       0       0       0
  6940 ;;      Temps:          3       0       0       0       0
  6941 ;;      Totals:         4       0       0       0       0
  6942 ;;Total ram usage:        4 bytes
  6943 ;; Hardware stack levels used:    1
  6944 ;; Hardware stack levels required when called:    1
  6945 ;; This function calls:
  6946 ;;		___awdiv
  6947 ;;		___awmod
  6948 ;;		_display7s
  6949 ;; This function is called by:
  6950 ;;		_isr
  6951 ;;		_ssd_blink
  6952 ;; This function uses a non-reentrant model
  6953 ;;
  6954                           
  6955                           
  6956                           ;psect for function _ssd_update
  6957  078F                     _ssd_update:	
  6958                           
  6959                           ;incstack = 0
  6960                           ; Regs used in _ssd_update: [wreg-fsr0h+status,2+status,0+pclath+cstack]
  6961                           ;ssd_update@temp stored from wreg
  6962  078F  00FC               	movwf	ssd_update@temp
  6963  0790                     i1l2450:	
  6964                           
  6965                           ;SSD.c: 83:     ssd_delay += 1;
  6966  0790  3001               	movlw	1
  6967  0791  00F9               	movwf	??_ssd_update
  6968  0792  0879               	movf	??_ssd_update,w
  6969  0793  1283               	bcf	3,5	;RP0=0, select bank0
  6970  0794  1303               	bcf	3,6	;RP1=0, select bank0
  6971  0795  07E8               	addwf	_ssd_delay,f
  6972                           
  6973                           ;SSD.c: 84:     if (ssd_delay == 50){
  6974  0796  3032               	movlw	50
  6975  0797  0668               	xorwf	_ssd_delay,w
  6976  0798  1D03               	btfss	3,2
  6977  0799  2F9B               	goto	u203_21
  6978  079A  2F9C               	goto	u203_20
  6979  079B                     u203_21:	
  6980  079B  2FFC               	goto	i1l215
  6981  079C                     u203_20:	
  6982  079C  2FEC               	goto	i1l2480
  6983  079D                     i1l2454:	
  6984                           
  6985                           ;SSD.c: 87:                 tens = temp / 10 ;
  6986  079D  300A               	movlw	10
  6987  079E  00F0               	movwf	___awdiv@divisor
  6988  079F  3000               	movlw	0
  6989  07A0  00F1               	movwf	___awdiv@divisor+1
  6990  07A1  087C               	movf	ssd_update@temp,w
  6991  07A2  00F9               	movwf	??_ssd_update
  6992  07A3  01FA               	clrf	??_ssd_update+1
  6993  07A4  0879               	movf	??_ssd_update,w
  6994  07A5  00F2               	movwf	___awdiv@dividend
  6995  07A6  087A               	movf	??_ssd_update+1,w
  6996  07A7  00F3               	movwf	___awdiv@dividend+1
  6997  07A8  120A  158A  261A  120A  118A  	fcall	___awdiv
  6998  07AD  0870               	movf	?___awdiv,w
  6999  07AE  00FB               	movwf	??_ssd_update+2
  7000  07AF  087B               	movf	??_ssd_update+2,w
  7001  07B0  1283               	bcf	3,5	;RP0=0, select bank0
  7002  07B1  1303               	bcf	3,6	;RP1=0, select bank0
  7003  07B2  00E2               	movwf	_tens
  7004  07B3                     i1l2456:	
  7005                           
  7006                           ;SSD.c: 88:                 (PORTA |= (1 << 4));
  7007  07B3  1605               	bsf	5,4	;volatile
  7008  07B4                     i1l2458:	
  7009                           
  7010                           ;SSD.c: 89:                 (PORTA &= ~(1 << 5));
  7011  07B4  30DF               	movlw	223
  7012  07B5  00F9               	movwf	??_ssd_update
  7013  07B6  0879               	movf	??_ssd_update,w
  7014  07B7  0585               	andwf	5,f	;volatile
  7015  07B8                     i1l2460:	
  7016                           
  7017                           ;SSD.c: 90:                 PORTD = display7s(tens);
  7018  07B8  0862               	movf	_tens,w
  7019  07B9  120A  158A  25BB  120A  118A  	fcall	_display7s
  7020  07BE  1283               	bcf	3,5	;RP0=0, select bank0
  7021  07BF  1303               	bcf	3,6	;RP1=0, select bank0
  7022  07C0  0088               	movwf	8	;volatile
  7023  07C1                     i1l2462:	
  7024                           
  7025                           ;SSD.c: 91:                 ssd_delay = 0 ;
  7026  07C1  01E8               	clrf	_ssd_delay
  7027  07C2                     i1l2464:	
  7028                           
  7029                           ;SSD.c: 92:                 ssd_select = SSD_RIGHT ;
  7030  07C2  01E0               	clrf	_ssd_select
  7031  07C3  0AE0               	incf	_ssd_select,f
  7032                           
  7033                           ;SSD.c: 93:                 break ;
  7034  07C4  2FFC               	goto	i1l215
  7035  07C5                     i1l2466:	
  7036                           
  7037                           ;SSD.c: 95:                  ones = temp % 10 ;
  7038  07C5  300A               	movlw	10
  7039  07C6  00F0               	movwf	___awmod@divisor
  7040  07C7  3000               	movlw	0
  7041  07C8  00F1               	movwf	___awmod@divisor+1
  7042  07C9  087C               	movf	ssd_update@temp,w
  7043  07CA  00F9               	movwf	??_ssd_update
  7044  07CB  01FA               	clrf	??_ssd_update+1
  7045  07CC  0879               	movf	??_ssd_update,w
  7046  07CD  00F2               	movwf	___awmod@dividend
  7047  07CE  087A               	movf	??_ssd_update+1,w
  7048  07CF  00F3               	movwf	___awmod@dividend+1
  7049  07D0  120A  158A  2562  120A  118A  	fcall	___awmod
  7050  07D5  0870               	movf	?___awmod,w
  7051  07D6  00FB               	movwf	??_ssd_update+2
  7052  07D7  087B               	movf	??_ssd_update+2,w
  7053  07D8  1283               	bcf	3,5	;RP0=0, select bank0
  7054  07D9  1303               	bcf	3,6	;RP1=0, select bank0
  7055  07DA  00E1               	movwf	_ones
  7056  07DB                     i1l2468:	
  7057                           
  7058                           ;SSD.c: 96:                  (PORTA |= (1 << 5));
  7059  07DB  1685               	bsf	5,5	;volatile
  7060  07DC                     i1l2470:	
  7061                           
  7062                           ;SSD.c: 97:                  (PORTA &= ~(1 << 4));
  7063  07DC  30EF               	movlw	239
  7064  07DD  00F9               	movwf	??_ssd_update
  7065  07DE  0879               	movf	??_ssd_update,w
  7066  07DF  0585               	andwf	5,f	;volatile
  7067  07E0                     i1l2472:	
  7068                           
  7069                           ;SSD.c: 98:                  PORTD = display7s(ones);
  7070  07E0  0861               	movf	_ones,w
  7071  07E1  120A  158A  25BB  120A  118A  	fcall	_display7s
  7072  07E6  1283               	bcf	3,5	;RP0=0, select bank0
  7073  07E7  1303               	bcf	3,6	;RP1=0, select bank0
  7074  07E8  0088               	movwf	8	;volatile
  7075  07E9                     i1l2474:	
  7076                           
  7077                           ;SSD.c: 99:                  ssd_delay = 0 ;
  7078  07E9  01E8               	clrf	_ssd_delay
  7079  07EA                     i1l2476:	
  7080                           
  7081                           ;SSD.c: 100:                  ssd_select = SSD_LEFT ;
  7082  07EA  01E0               	clrf	_ssd_select
  7083                           
  7084                           ;SSD.c: 101:                  break;
  7085  07EB  2FFC               	goto	i1l215
  7086  07EC                     i1l2480:	
  7087  07EC  0860               	movf	_ssd_select,w
  7088  07ED  00F9               	movwf	??_ssd_update
  7089  07EE  01FA               	clrf	??_ssd_update+1
  7090                           
  7091                           ; Switch on 2 bytes has been partitioned into a top level switch of size 1, and 1 sub-sw
      +                          itches
  7092                           ; Switch size 1, requested type "simple"
  7093                           ; Number of cases is 1, Range of values is 0 to 0
  7094                           ; switch strategies available:
  7095                           ; Name         Instructions Cycles
  7096                           ; simple_byte            4     3 (average)
  7097                           ; direct_byte           11     8 (fixed)
  7098                           ; jumptable            260     6 (fixed)
  7099                           ;	Chosen strategy is simple_byte
  7100  07EF  087A               	movf	??_ssd_update+1,w
  7101  07F0  3A00               	xorlw	0	; case 0
  7102  07F1  1903               	skipnz
  7103  07F2  2FF4               	goto	i1l3324
  7104  07F3  2FFC               	goto	i1l215
  7105  07F4                     i1l3324:	
  7106                           
  7107                           ; Switch size 1, requested type "simple"
  7108                           ; Number of cases is 2, Range of values is 0 to 1
  7109                           ; switch strategies available:
  7110                           ; Name         Instructions Cycles
  7111                           ; simple_byte            7     4 (average)
  7112                           ; direct_byte           14     8 (fixed)
  7113                           ; jumptable            260     6 (fixed)
  7114                           ;	Chosen strategy is simple_byte
  7115  07F4  0879               	movf	??_ssd_update,w
  7116  07F5  3A00               	xorlw	0	; case 0
  7117  07F6  1903               	skipnz
  7118  07F7  2F9D               	goto	i1l2454
  7119  07F8  3A01               	xorlw	1	; case 1
  7120  07F9  1903               	skipnz
  7121  07FA  2FC5               	goto	i1l2466
  7122  07FB  2FFC               	goto	i1l215
  7123  07FC                     i1l215:	
  7124  07FC  0008               	return
  7125  07FD                     __end_of_ssd_update:	
  7126                           
  7127                           	psect	text39
  7128  0DBB                     __ptext39:	
  7129 ;; *************** function _display7s *****************
  7130 ;; Defined at:
  7131 ;;		line 23 in file "SSD.c"
  7132 ;; Parameters:    Size  Location     Type
  7133 ;;  v               1    wreg     unsigned char 
  7134 ;; Auto vars:     Size  Location     Type
  7135 ;;  v               1    2[COMMON] unsigned char 
  7136 ;; Return value:  Size  Location     Type
  7137 ;;                  1    wreg      unsigned char 
  7138 ;; Registers used:
  7139 ;;		wreg, fsr0l, fsr0h, status,2, status,0
  7140 ;; Tracked objects:
  7141 ;;		On entry : 0/0
  7142 ;;		On exit  : 0/0
  7143 ;;		Unchanged: 0/0
  7144 ;; Data sizes:     COMMON   BANK0   BANK1   BANK3   BANK2
  7145 ;;      Params:         0       0       0       0       0
  7146 ;;      Locals:         1       0       0       0       0
  7147 ;;      Temps:          2       0       0       0       0
  7148 ;;      Totals:         3       0       0       0       0
  7149 ;;Total ram usage:        3 bytes
  7150 ;; Hardware stack levels used:    1
  7151 ;; This function calls:
  7152 ;;		Nothing
  7153 ;; This function is called by:
  7154 ;;		_ssd_update
  7155 ;; This function uses a non-reentrant model
  7156 ;;
  7157                           
  7158                           
  7159                           ;psect for function _display7s
  7160  0DBB                     _display7s:	
  7161                           
  7162                           ;incstack = 0
  7163                           ; Regs used in _display7s: [wreg-fsr0h+status,2+status,0]
  7164                           ;display7s@v stored from wreg
  7165  0DBB  00F2               	movwf	display7s@v
  7166  0DBC                     i1l2162:	
  7167                           
  7168                           ;SSD.c: 23: uint8_t display7s(uint8_t v);SSD.c: 24: {;SSD.c: 25:   switch(v)
  7169  0DBC  2DDF               	goto	i1l2268
  7170  0DBD                     i1l2164:	
  7171                           
  7172                           ;SSD.c: 28:       return 0x3F;
  7173  0DBD  303F               	movlw	63
  7174  0DBE  2E19               	goto	i1l189
  7175  0DBF                     i1l2170:	
  7176                           
  7177                           ;SSD.c: 31:       return 0x06;
  7178  0DBF  3006               	movlw	6
  7179  0DC0  2E19               	goto	i1l189
  7180  0DC1                     i1l2176:	
  7181                           
  7182                           ;SSD.c: 34:       return 0x5B;
  7183  0DC1  305B               	movlw	91
  7184  0DC2  2E19               	goto	i1l189
  7185  0DC3                     i1l2182:	
  7186                           
  7187                           ;SSD.c: 37:       return 0x4F;
  7188  0DC3  304F               	movlw	79
  7189  0DC4  2E19               	goto	i1l189
  7190  0DC5                     i1l2188:	
  7191                           
  7192                           ;SSD.c: 40:       return 0x66;
  7193  0DC5  3066               	movlw	102
  7194  0DC6  2E19               	goto	i1l189
  7195  0DC7                     i1l2194:	
  7196                           
  7197                           ;SSD.c: 43:       return 0x6D;
  7198  0DC7  306D               	movlw	109
  7199  0DC8  2E19               	goto	i1l189
  7200  0DC9                     i1l2200:	
  7201                           
  7202                           ;SSD.c: 46:       return 0x7D;
  7203  0DC9  307D               	movlw	125
  7204  0DCA  2E19               	goto	i1l189
  7205  0DCB                     i1l2206:	
  7206                           
  7207                           ;SSD.c: 49:       return 0x07;
  7208  0DCB  3007               	movlw	7
  7209  0DCC  2E19               	goto	i1l189
  7210  0DCD                     i1l2212:	
  7211                           
  7212                           ;SSD.c: 52:       return 0x7F;
  7213  0DCD  307F               	movlw	127
  7214  0DCE  2E19               	goto	i1l189
  7215  0DCF                     i1l2218:	
  7216                           
  7217                           ;SSD.c: 55:       return 0x6F;
  7218  0DCF  306F               	movlw	111
  7219  0DD0  2E19               	goto	i1l189
  7220  0DD1                     i1l2224:	
  7221                           
  7222                           ;SSD.c: 58:       return 0x77;
  7223  0DD1  3077               	movlw	119
  7224  0DD2  2E19               	goto	i1l189
  7225  0DD3                     i1l2230:	
  7226                           
  7227                           ;SSD.c: 61:       return 0x7c;
  7228  0DD3  307C               	movlw	124
  7229  0DD4  2E19               	goto	i1l189
  7230  0DD5                     i1l2236:	
  7231                           
  7232                           ;SSD.c: 64:       return 0x58;
  7233  0DD5  3058               	movlw	88
  7234  0DD6  2E19               	goto	i1l189
  7235  0DD7                     i1l2242:	
  7236                           
  7237                           ;SSD.c: 67:       return 0x5E;
  7238  0DD7  305E               	movlw	94
  7239  0DD8  2E19               	goto	i1l189
  7240  0DD9                     i1l2248:	
  7241                           
  7242                           ;SSD.c: 70:       return 0x79;
  7243  0DD9  3079               	movlw	121
  7244  0DDA  2E19               	goto	i1l189
  7245  0DDB                     i1l2254:	
  7246                           
  7247                           ;SSD.c: 73:       return 0x71;
  7248  0DDB  3071               	movlw	113
  7249  0DDC  2E19               	goto	i1l189
  7250  0DDD                     i1l2260:	
  7251                           
  7252                           ;SSD.c: 76:       return 0;
  7253  0DDD  3000               	movlw	0
  7254  0DDE  2E19               	goto	i1l189
  7255  0DDF                     i1l2268:	
  7256  0DDF  0872               	movf	display7s@v,w
  7257  0DE0  00F0               	movwf	??_display7s
  7258  0DE1  01F1               	clrf	??_display7s+1
  7259                           
  7260                           ; Switch on 2 bytes has been partitioned into a top level switch of size 1, and 1 sub-sw
      +                          itches
  7261                           ; Switch size 1, requested type "simple"
  7262                           ; Number of cases is 1, Range of values is 0 to 0
  7263                           ; switch strategies available:
  7264                           ; Name         Instructions Cycles
  7265                           ; simple_byte            4     3 (average)
  7266                           ; direct_byte           11     8 (fixed)
  7267                           ; jumptable            260     6 (fixed)
  7268                           ;	Chosen strategy is simple_byte
  7269  0DE2  0871               	movf	??_display7s+1,w
  7270  0DE3  3A00               	xorlw	0	; case 0
  7271  0DE4  1903               	skipnz
  7272  0DE5  2DE7               	goto	i1l3326
  7273  0DE6  2DDD               	goto	i1l2260
  7274  0DE7                     i1l3326:	
  7275                           
  7276                           ; Switch size 1, requested type "simple"
  7277                           ; Number of cases is 16, Range of values is 0 to 15
  7278                           ; switch strategies available:
  7279                           ; Name         Instructions Cycles
  7280                           ; simple_byte           49    25 (average)
  7281                           ; direct_byte           56     8 (fixed)
  7282                           ; jumptable            260     6 (fixed)
  7283                           ;	Chosen strategy is simple_byte
  7284  0DE7  0870               	movf	??_display7s,w
  7285  0DE8  3A00               	xorlw	0	; case 0
  7286  0DE9  1903               	skipnz
  7287  0DEA  2DBD               	goto	i1l2164
  7288  0DEB  3A01               	xorlw	1	; case 1
  7289  0DEC  1903               	skipnz
  7290  0DED  2DBF               	goto	i1l2170
  7291  0DEE  3A03               	xorlw	3	; case 2
  7292  0DEF  1903               	skipnz
  7293  0DF0  2DC1               	goto	i1l2176
  7294  0DF1  3A01               	xorlw	1	; case 3
  7295  0DF2  1903               	skipnz
  7296  0DF3  2DC3               	goto	i1l2182
  7297  0DF4  3A07               	xorlw	7	; case 4
  7298  0DF5  1903               	skipnz
  7299  0DF6  2DC5               	goto	i1l2188
  7300  0DF7  3A01               	xorlw	1	; case 5
  7301  0DF8  1903               	skipnz
  7302  0DF9  2DC7               	goto	i1l2194
  7303  0DFA  3A03               	xorlw	3	; case 6
  7304  0DFB  1903               	skipnz
  7305  0DFC  2DC9               	goto	i1l2200
  7306  0DFD  3A01               	xorlw	1	; case 7
  7307  0DFE  1903               	skipnz
  7308  0DFF  2DCB               	goto	i1l2206
  7309  0E00  3A0F               	xorlw	15	; case 8
  7310  0E01  1903               	skipnz
  7311  0E02  2DCD               	goto	i1l2212
  7312  0E03  3A01               	xorlw	1	; case 9
  7313  0E04  1903               	skipnz
  7314  0E05  2DCF               	goto	i1l2218
  7315  0E06  3A03               	xorlw	3	; case 10
  7316  0E07  1903               	skipnz
  7317  0E08  2DD1               	goto	i1l2224
  7318  0E09  3A01               	xorlw	1	; case 11
  7319  0E0A  1903               	skipnz
  7320  0E0B  2DD3               	goto	i1l2230
  7321  0E0C  3A07               	xorlw	7	; case 12
  7322  0E0D  1903               	skipnz
  7323  0E0E  2DD5               	goto	i1l2236
  7324  0E0F  3A01               	xorlw	1	; case 13
  7325  0E10  1903               	skipnz
  7326  0E11  2DD7               	goto	i1l2242
  7327  0E12  3A03               	xorlw	3	; case 14
  7328  0E13  1903               	skipnz
  7329  0E14  2DD9               	goto	i1l2248
  7330  0E15  3A01               	xorlw	1	; case 15
  7331  0E16  1903               	skipnz
  7332  0E17  2DDB               	goto	i1l2254
  7333  0E18  2DDD               	goto	i1l2260
  7334  0E19                     i1l189:	
  7335  0E19  0008               	return
  7336  0E1A                     __end_of_display7s:	
  7337                           
  7338                           	psect	text40
  7339  0D62                     __ptext40:	
  7340 ;; *************** function ___awmod *****************
  7341 ;; Defined at:
  7342 ;;		line 5 in file "C:\Program Files (x86)\Microchip\xc8\v2.10\pic\sources\c90\common\awmod.c"
  7343 ;; Parameters:    Size  Location     Type
  7344 ;;  divisor         2    0[COMMON] int 
  7345 ;;  dividend        2    2[COMMON] int 
  7346 ;; Auto vars:     Size  Location     Type
  7347 ;;  sign            1    6[COMMON] unsigned char 
  7348 ;;  counter         1    5[COMMON] unsigned char 
  7349 ;; Return value:  Size  Location     Type
  7350 ;;                  2    0[COMMON] int 
  7351 ;; Registers used:
  7352 ;;		wreg, status,2, status,0
  7353 ;; Tracked objects:
  7354 ;;		On entry : 0/0
  7355 ;;		On exit  : 0/0
  7356 ;;		Unchanged: 0/0
  7357 ;; Data sizes:     COMMON   BANK0   BANK1   BANK3   BANK2
  7358 ;;      Params:         4       0       0       0       0
  7359 ;;      Locals:         2       0       0       0       0
  7360 ;;      Temps:          1       0       0       0       0
  7361 ;;      Totals:         7       0       0       0       0
  7362 ;;Total ram usage:        7 bytes
  7363 ;; Hardware stack levels used:    1
  7364 ;; This function calls:
  7365 ;;		Nothing
  7366 ;; This function is called by:
  7367 ;;		_ssd_update
  7368 ;; This function uses a non-reentrant model
  7369 ;;
  7370                           
  7371                           
  7372                           ;psect for function ___awmod
  7373  0D62                     ___awmod:	
  7374  0D62                     i1l2358:	
  7375                           ;incstack = 0
  7376                           ; Regs used in ___awmod: [wreg+status,2+status,0]
  7377                           
  7378  0D62  01F6               	clrf	___awmod@sign
  7379  0D63                     i1l2360:	
  7380  0D63  1FF3               	btfss	___awmod@dividend+1,7
  7381  0D64  2D66               	goto	u184_21
  7382  0D65  2D67               	goto	u184_20
  7383  0D66                     u184_21:	
  7384  0D66  2D6E               	goto	i1l2366
  7385  0D67                     u184_20:	
  7386  0D67                     i1l2362:	
  7387  0D67  09F2               	comf	___awmod@dividend,f
  7388  0D68  09F3               	comf	___awmod@dividend+1,f
  7389  0D69  0AF2               	incf	___awmod@dividend,f
  7390  0D6A  1903               	skipnz
  7391  0D6B  0AF3               	incf	___awmod@dividend+1,f
  7392  0D6C                     i1l2364:	
  7393  0D6C  01F6               	clrf	___awmod@sign
  7394  0D6D  0AF6               	incf	___awmod@sign,f
  7395  0D6E                     i1l2366:	
  7396  0D6E  1FF1               	btfss	___awmod@divisor+1,7
  7397  0D6F  2D71               	goto	u185_21
  7398  0D70  2D72               	goto	u185_20
  7399  0D71                     u185_21:	
  7400  0D71  2D77               	goto	i1l2370
  7401  0D72                     u185_20:	
  7402  0D72                     i1l2368:	
  7403  0D72  09F0               	comf	___awmod@divisor,f
  7404  0D73  09F1               	comf	___awmod@divisor+1,f
  7405  0D74  0AF0               	incf	___awmod@divisor,f
  7406  0D75  1903               	skipnz
  7407  0D76  0AF1               	incf	___awmod@divisor+1,f
  7408  0D77                     i1l2370:	
  7409  0D77  0870               	movf	___awmod@divisor,w
  7410  0D78  0471               	iorwf	___awmod@divisor+1,w
  7411  0D79  1903               	btfsc	3,2
  7412  0D7A  2D7C               	goto	u186_21
  7413  0D7B  2D7D               	goto	u186_20
  7414  0D7C                     u186_21:	
  7415  0D7C  2DAC               	goto	i1l2388
  7416  0D7D                     u186_20:	
  7417  0D7D                     i1l2372:	
  7418  0D7D  01F5               	clrf	___awmod@counter
  7419  0D7E  0AF5               	incf	___awmod@counter,f
  7420  0D7F  2D8B               	goto	i1l2378
  7421  0D80                     i1l2374:	
  7422  0D80  3001               	movlw	1
  7423  0D81                     u187_25:	
  7424  0D81  1003               	clrc
  7425  0D82  0DF0               	rlf	___awmod@divisor,f
  7426  0D83  0DF1               	rlf	___awmod@divisor+1,f
  7427  0D84  3EFF               	addlw	-1
  7428  0D85  1D03               	skipz
  7429  0D86  2D81               	goto	u187_25
  7430  0D87                     i1l2376:	
  7431  0D87  3001               	movlw	1
  7432  0D88  00F4               	movwf	??___awmod
  7433  0D89  0874               	movf	??___awmod,w
  7434  0D8A  07F5               	addwf	___awmod@counter,f
  7435  0D8B                     i1l2378:	
  7436  0D8B  1FF1               	btfss	___awmod@divisor+1,7
  7437  0D8C  2D8E               	goto	u188_21
  7438  0D8D  2D8F               	goto	u188_20
  7439  0D8E                     u188_21:	
  7440  0D8E  2D80               	goto	i1l2374
  7441  0D8F                     u188_20:	
  7442  0D8F                     i1l2380:	
  7443  0D8F  0871               	movf	___awmod@divisor+1,w
  7444  0D90  0273               	subwf	___awmod@dividend+1,w
  7445  0D91  1D03               	skipz
  7446  0D92  2D95               	goto	u189_25
  7447  0D93  0870               	movf	___awmod@divisor,w
  7448  0D94  0272               	subwf	___awmod@dividend,w
  7449  0D95                     u189_25:	
  7450  0D95  1C03               	skipc
  7451  0D96  2D98               	goto	u189_21
  7452  0D97  2D99               	goto	u189_20
  7453  0D98                     u189_21:	
  7454  0D98  2D9F               	goto	i1l2384
  7455  0D99                     u189_20:	
  7456  0D99                     i1l2382:	
  7457  0D99  0870               	movf	___awmod@divisor,w
  7458  0D9A  02F2               	subwf	___awmod@dividend,f
  7459  0D9B  0871               	movf	___awmod@divisor+1,w
  7460  0D9C  1C03               	skipc
  7461  0D9D  03F3               	decf	___awmod@dividend+1,f
  7462  0D9E  02F3               	subwf	___awmod@dividend+1,f
  7463  0D9F                     i1l2384:	
  7464  0D9F  3001               	movlw	1
  7465  0DA0                     u190_25:	
  7466  0DA0  1003               	clrc
  7467  0DA1  0CF1               	rrf	___awmod@divisor+1,f
  7468  0DA2  0CF0               	rrf	___awmod@divisor,f
  7469  0DA3  3EFF               	addlw	-1
  7470  0DA4  1D03               	skipz
  7471  0DA5  2DA0               	goto	u190_25
  7472  0DA6                     i1l2386:	
  7473  0DA6  3001               	movlw	1
  7474  0DA7  02F5               	subwf	___awmod@counter,f
  7475  0DA8  1D03               	btfss	3,2
  7476  0DA9  2DAB               	goto	u191_21
  7477  0DAA  2DAC               	goto	u191_20
  7478  0DAB                     u191_21:	
  7479  0DAB  2D8F               	goto	i1l2380
  7480  0DAC                     u191_20:	
  7481  0DAC                     i1l2388:	
  7482  0DAC  0876               	movf	___awmod@sign,w
  7483  0DAD  1903               	btfsc	3,2
  7484  0DAE  2DB0               	goto	u192_21
  7485  0DAF  2DB1               	goto	u192_20
  7486  0DB0                     u192_21:	
  7487  0DB0  2DB6               	goto	i1l2392
  7488  0DB1                     u192_20:	
  7489  0DB1                     i1l2390:	
  7490  0DB1  09F2               	comf	___awmod@dividend,f
  7491  0DB2  09F3               	comf	___awmod@dividend+1,f
  7492  0DB3  0AF2               	incf	___awmod@dividend,f
  7493  0DB4  1903               	skipnz
  7494  0DB5  0AF3               	incf	___awmod@dividend+1,f
  7495  0DB6                     i1l2392:	
  7496  0DB6  0873               	movf	___awmod@dividend+1,w
  7497  0DB7  00F1               	movwf	?___awmod+1
  7498  0DB8  0872               	movf	___awmod@dividend,w
  7499  0DB9  00F0               	movwf	?___awmod
  7500  0DBA                     i1l616:	
  7501  0DBA  0008               	return
  7502  0DBB                     __end_of___awmod:	
  7503                           
  7504                           	psect	text41
  7505  0E1A                     __ptext41:	
  7506 ;; *************** function ___awdiv *****************
  7507 ;; Defined at:
  7508 ;;		line 5 in file "C:\Program Files (x86)\Microchip\xc8\v2.10\pic\sources\c90\common\awdiv.c"
  7509 ;; Parameters:    Size  Location     Type
  7510 ;;  divisor         2    0[COMMON] int 
  7511 ;;  dividend        2    2[COMMON] int 
  7512 ;; Auto vars:     Size  Location     Type
  7513 ;;  quotient        2    7[COMMON] int 
  7514 ;;  sign            1    6[COMMON] unsigned char 
  7515 ;;  counter         1    5[COMMON] unsigned char 
  7516 ;; Return value:  Size  Location     Type
  7517 ;;                  2    0[COMMON] int 
  7518 ;; Registers used:
  7519 ;;		wreg, status,2, status,0
  7520 ;; Tracked objects:
  7521 ;;		On entry : 0/0
  7522 ;;		On exit  : 0/0
  7523 ;;		Unchanged: 0/0
  7524 ;; Data sizes:     COMMON   BANK0   BANK1   BANK3   BANK2
  7525 ;;      Params:         4       0       0       0       0
  7526 ;;      Locals:         4       0       0       0       0
  7527 ;;      Temps:          1       0       0       0       0
  7528 ;;      Totals:         9       0       0       0       0
  7529 ;;Total ram usage:        9 bytes
  7530 ;; Hardware stack levels used:    1
  7531 ;; This function calls:
  7532 ;;		Nothing
  7533 ;; This function is called by:
  7534 ;;		_ssd_update
  7535 ;; This function uses a non-reentrant model
  7536 ;;
  7537                           
  7538                           
  7539                           ;psect for function ___awdiv
  7540  0E1A                     ___awdiv:	
  7541  0E1A                     i1l2314:	
  7542                           ;incstack = 0
  7543                           ; Regs used in ___awdiv: [wreg+status,2+status,0]
  7544                           
  7545  0E1A  01F6               	clrf	___awdiv@sign
  7546  0E1B                     i1l2316:	
  7547  0E1B  1FF1               	btfss	___awdiv@divisor+1,7
  7548  0E1C  2E1E               	goto	u174_21
  7549  0E1D  2E1F               	goto	u174_20
  7550  0E1E                     u174_21:	
  7551  0E1E  2E26               	goto	i1l2322
  7552  0E1F                     u174_20:	
  7553  0E1F                     i1l2318:	
  7554  0E1F  09F0               	comf	___awdiv@divisor,f
  7555  0E20  09F1               	comf	___awdiv@divisor+1,f
  7556  0E21  0AF0               	incf	___awdiv@divisor,f
  7557  0E22  1903               	skipnz
  7558  0E23  0AF1               	incf	___awdiv@divisor+1,f
  7559  0E24                     i1l2320:	
  7560  0E24  01F6               	clrf	___awdiv@sign
  7561  0E25  0AF6               	incf	___awdiv@sign,f
  7562  0E26                     i1l2322:	
  7563  0E26  1FF3               	btfss	___awdiv@dividend+1,7
  7564  0E27  2E29               	goto	u175_21
  7565  0E28  2E2A               	goto	u175_20
  7566  0E29                     u175_21:	
  7567  0E29  2E33               	goto	i1l2328
  7568  0E2A                     u175_20:	
  7569  0E2A                     i1l2324:	
  7570  0E2A  09F2               	comf	___awdiv@dividend,f
  7571  0E2B  09F3               	comf	___awdiv@dividend+1,f
  7572  0E2C  0AF2               	incf	___awdiv@dividend,f
  7573  0E2D  1903               	skipnz
  7574  0E2E  0AF3               	incf	___awdiv@dividend+1,f
  7575  0E2F                     i1l2326:	
  7576  0E2F  3001               	movlw	1
  7577  0E30  00F4               	movwf	??___awdiv
  7578  0E31  0874               	movf	??___awdiv,w
  7579  0E32  06F6               	xorwf	___awdiv@sign,f
  7580  0E33                     i1l2328:	
  7581  0E33  01F7               	clrf	___awdiv@quotient
  7582  0E34  01F8               	clrf	___awdiv@quotient+1
  7583  0E35                     i1l2330:	
  7584  0E35  0870               	movf	___awdiv@divisor,w
  7585  0E36  0471               	iorwf	___awdiv@divisor+1,w
  7586  0E37  1903               	btfsc	3,2
  7587  0E38  2E3A               	goto	u176_21
  7588  0E39  2E3B               	goto	u176_20
  7589  0E3A                     u176_21:	
  7590  0E3A  2E72               	goto	i1l2350
  7591  0E3B                     u176_20:	
  7592  0E3B                     i1l2332:	
  7593  0E3B  01F5               	clrf	___awdiv@counter
  7594  0E3C  0AF5               	incf	___awdiv@counter,f
  7595  0E3D  2E49               	goto	i1l2338
  7596  0E3E                     i1l2334:	
  7597  0E3E  3001               	movlw	1
  7598  0E3F                     u177_25:	
  7599  0E3F  1003               	clrc
  7600  0E40  0DF0               	rlf	___awdiv@divisor,f
  7601  0E41  0DF1               	rlf	___awdiv@divisor+1,f
  7602  0E42  3EFF               	addlw	-1
  7603  0E43  1D03               	skipz
  7604  0E44  2E3F               	goto	u177_25
  7605  0E45                     i1l2336:	
  7606  0E45  3001               	movlw	1
  7607  0E46  00F4               	movwf	??___awdiv
  7608  0E47  0874               	movf	??___awdiv,w
  7609  0E48  07F5               	addwf	___awdiv@counter,f
  7610  0E49                     i1l2338:	
  7611  0E49  1FF1               	btfss	___awdiv@divisor+1,7
  7612  0E4A  2E4C               	goto	u178_21
  7613  0E4B  2E4D               	goto	u178_20
  7614  0E4C                     u178_21:	
  7615  0E4C  2E3E               	goto	i1l2334
  7616  0E4D                     u178_20:	
  7617  0E4D                     i1l2340:	
  7618  0E4D  3001               	movlw	1
  7619  0E4E                     u179_25:	
  7620  0E4E  1003               	clrc
  7621  0E4F  0DF7               	rlf	___awdiv@quotient,f
  7622  0E50  0DF8               	rlf	___awdiv@quotient+1,f
  7623  0E51  3EFF               	addlw	-1
  7624  0E52  1D03               	skipz
  7625  0E53  2E4E               	goto	u179_25
  7626  0E54  0871               	movf	___awdiv@divisor+1,w
  7627  0E55  0273               	subwf	___awdiv@dividend+1,w
  7628  0E56  1D03               	skipz
  7629  0E57  2E5A               	goto	u180_25
  7630  0E58  0870               	movf	___awdiv@divisor,w
  7631  0E59  0272               	subwf	___awdiv@dividend,w
  7632  0E5A                     u180_25:	
  7633  0E5A  1C03               	skipc
  7634  0E5B  2E5D               	goto	u180_21
  7635  0E5C  2E5E               	goto	u180_20
  7636  0E5D                     u180_21:	
  7637  0E5D  2E65               	goto	i1l2346
  7638  0E5E                     u180_20:	
  7639  0E5E                     i1l2342:	
  7640  0E5E  0870               	movf	___awdiv@divisor,w
  7641  0E5F  02F2               	subwf	___awdiv@dividend,f
  7642  0E60  0871               	movf	___awdiv@divisor+1,w
  7643  0E61  1C03               	skipc
  7644  0E62  03F3               	decf	___awdiv@dividend+1,f
  7645  0E63  02F3               	subwf	___awdiv@dividend+1,f
  7646  0E64                     i1l2344:	
  7647  0E64  1477               	bsf	___awdiv@quotient,0
  7648  0E65                     i1l2346:	
  7649  0E65  3001               	movlw	1
  7650  0E66                     u181_25:	
  7651  0E66  1003               	clrc
  7652  0E67  0CF1               	rrf	___awdiv@divisor+1,f
  7653  0E68  0CF0               	rrf	___awdiv@divisor,f
  7654  0E69  3EFF               	addlw	-1
  7655  0E6A  1D03               	skipz
  7656  0E6B  2E66               	goto	u181_25
  7657  0E6C                     i1l2348:	
  7658  0E6C  3001               	movlw	1
  7659  0E6D  02F5               	subwf	___awdiv@counter,f
  7660  0E6E  1D03               	btfss	3,2
  7661  0E6F  2E71               	goto	u182_21
  7662  0E70  2E72               	goto	u182_20
  7663  0E71                     u182_21:	
  7664  0E71  2E4D               	goto	i1l2340
  7665  0E72                     u182_20:	
  7666  0E72                     i1l2350:	
  7667  0E72  0876               	movf	___awdiv@sign,w
  7668  0E73  1903               	btfsc	3,2
  7669  0E74  2E76               	goto	u183_21
  7670  0E75  2E77               	goto	u183_20
  7671  0E76                     u183_21:	
  7672  0E76  2E7C               	goto	i1l2354
  7673  0E77                     u183_20:	
  7674  0E77                     i1l2352:	
  7675  0E77  09F7               	comf	___awdiv@quotient,f
  7676  0E78  09F8               	comf	___awdiv@quotient+1,f
  7677  0E79  0AF7               	incf	___awdiv@quotient,f
  7678  0E7A  1903               	skipnz
  7679  0E7B  0AF8               	incf	___awdiv@quotient+1,f
  7680  0E7C                     i1l2354:	
  7681  0E7C  0878               	movf	___awdiv@quotient+1,w
  7682  0E7D  00F1               	movwf	?___awdiv+1
  7683  0E7E  0877               	movf	___awdiv@quotient,w
  7684  0E7F  00F0               	movwf	?___awdiv
  7685  0E80                     i1l603:	
  7686  0E80  0008               	return
  7687  0E81                     __end_of___awdiv:	
  7688                           
  7689                           	psect	text42
  7690  0A08                     __ptext42:	
  7691 ;; *************** function _ssd_turn_off *****************
  7692 ;; Defined at:
  7693 ;;		line 107 in file "SSD.c"
  7694 ;; Parameters:    Size  Location     Type
  7695 ;;		None
  7696 ;; Auto vars:     Size  Location     Type
  7697 ;;		None
  7698 ;; Return value:  Size  Location     Type
  7699 ;;                  1    wreg      void 
  7700 ;; Registers used:
  7701 ;;		wreg, status,2, status,0
  7702 ;; Tracked objects:
  7703 ;;		On entry : 0/0
  7704 ;;		On exit  : 0/0
  7705 ;;		Unchanged: 0/0
  7706 ;; Data sizes:     COMMON   BANK0   BANK1   BANK3   BANK2
  7707 ;;      Params:         0       0       0       0       0
  7708 ;;      Locals:         0       0       0       0       0
  7709 ;;      Temps:          1       0       0       0       0
  7710 ;;      Totals:         1       0       0       0       0
  7711 ;;Total ram usage:        1 bytes
  7712 ;; Hardware stack levels used:    1
  7713 ;; This function calls:
  7714 ;;		Nothing
  7715 ;; This function is called by:
  7716 ;;		_isr
  7717 ;;		_ssd_blink
  7718 ;; This function uses a non-reentrant model
  7719 ;;
  7720                           
  7721                           
  7722                           ;psect for function _ssd_turn_off
  7723  0A08                     _ssd_turn_off:	
  7724  0A08                     i1l2486:	
  7725                           ;incstack = 0
  7726                           ; Regs used in _ssd_turn_off: [wreg+status,2+status,0]
  7727                           
  7728                           
  7729                           ;SSD.c: 108:     (PORTD &= ~(255 << 0));
  7730  0A08  1283               	bcf	3,5	;RP0=0, select bank0
  7731  0A09  1303               	bcf	3,6	;RP1=0, select bank0
  7732  0A0A  0188               	clrf	8	;volatile
  7733  0A0B                     i1l2488:	
  7734                           
  7735                           ;SSD.c: 109:     (PORTA &= ~(1 << 4));
  7736  0A0B  30EF               	movlw	239
  7737  0A0C  00F0               	movwf	??_ssd_turn_off
  7738  0A0D  0870               	movf	??_ssd_turn_off,w
  7739  0A0E  0585               	andwf	5,f	;volatile
  7740  0A0F                     i1l2490:	
  7741                           
  7742                           ;SSD.c: 110:     (PORTA &= ~(1 << 5));
  7743  0A0F  30DF               	movlw	223
  7744  0A10  00F0               	movwf	??_ssd_turn_off
  7745  0A11  0870               	movf	??_ssd_turn_off,w
  7746  0A12  0585               	andwf	5,f	;volatile
  7747  0A13                     i1l218:	
  7748  0A13  0008               	return
  7749  0A14                     __end_of_ssd_turn_off:	
  7750                           
  7751                           	psect	text43
  7752  0BE9                     __ptext43:	
  7753 ;; *************** function _led *****************
  7754 ;; Defined at:
  7755 ;;		line 39 in file "temp_control.c"
  7756 ;; Parameters:    Size  Location     Type
  7757 ;;		None
  7758 ;; Auto vars:     Size  Location     Type
  7759 ;;		None
  7760 ;; Return value:  Size  Location     Type
  7761 ;;                  1    wreg      void 
  7762 ;; Registers used:
  7763 ;;		wreg, fsr0l, fsr0h, status,2, status,0
  7764 ;; Tracked objects:
  7765 ;;		On entry : 0/0
  7766 ;;		On exit  : 0/0
  7767 ;;		Unchanged: 0/0
  7768 ;; Data sizes:     COMMON   BANK0   BANK1   BANK3   BANK2
  7769 ;;      Params:         0       0       0       0       0
  7770 ;;      Locals:         0       0       0       0       0
  7771 ;;      Temps:          2       0       0       0       0
  7772 ;;      Totals:         2       0       0       0       0
  7773 ;;Total ram usage:        2 bytes
  7774 ;; Hardware stack levels used:    1
  7775 ;; This function calls:
  7776 ;;		Nothing
  7777 ;; This function is called by:
  7778 ;;		_isr
  7779 ;; This function uses a non-reentrant model
  7780 ;;
  7781                           
  7782                           
  7783                           ;psect for function _led
  7784  0BE9                     _led:	
  7785  0BE9                     i1l2954:	
  7786                           ;incstack = 0
  7787                           ; Regs used in _led: [wreg-fsr0h+status,2+status,0]
  7788                           
  7789                           
  7790                           ;temp_control.c: 40:      switch (state){
  7791  0BE9  2C07               	goto	i1l2970
  7792  0BEA                     i1l2956:	
  7793                           
  7794                           ;temp_control.c: 43:               led_timer += 1;
  7795  0BEA  3001               	movlw	1
  7796  0BEB  07D6               	addwf	_led_timer,f
  7797  0BEC  1803               	skipnc
  7798  0BED  0AD7               	incf	_led_timer+1,f
  7799  0BEE  3000               	movlw	0
  7800  0BEF  07D7               	addwf	_led_timer+1,f
  7801  0BF0                     i1l2958:	
  7802                           
  7803                           ;temp_control.c: 44:               if (led_timer == 1000){
  7804  0BF0  30E8               	movlw	232
  7805  0BF1  0656               	xorwf	_led_timer,w
  7806  0BF2  3003               	movlw	3
  7807  0BF3  1903               	skipnz
  7808  0BF4  0657               	xorwf	_led_timer+1,w
  7809  0BF5  1D03               	btfss	3,2
  7810  0BF6  2BF8               	goto	u303_21
  7811  0BF7  2BF9               	goto	u303_20
  7812  0BF8                     u303_21:	
  7813  0BF8  2C1C               	goto	i1l314
  7814  0BF9                     u303_20:	
  7815  0BF9                     i1l2960:	
  7816                           
  7817                           ;temp_control.c: 45:                  (PORTB ^= ( 1 << 4));
  7818  0BF9  3010               	movlw	16
  7819  0BFA  00F0               	movwf	??_led
  7820  0BFB  0870               	movf	??_led,w
  7821  0BFC  0686               	xorwf	6,f	;volatile
  7822  0BFD                     i1l2962:	
  7823                           
  7824                           ;temp_control.c: 46:                  led_timer = 0 ; }
  7825  0BFD  01D6               	clrf	_led_timer
  7826  0BFE  01D7               	clrf	_led_timer+1
  7827  0BFF  2C1C               	goto	i1l314
  7828  0C00                     i1l311:	
  7829                           ;temp_control.c: 50:          case COOLER_ON :
  7830                           
  7831                           
  7832                           ;temp_control.c: 51:                (PORTB |= (1 << 4));
  7833  0C00  1606               	bsf	6,4	;volatile
  7834  0C01  2BFD               	goto	i1l2962
  7835  0C02                     i1l2966:	
  7836  0C02  30EF               	movlw	239
  7837  0C03  00F0               	movwf	??_led
  7838  0C04  0870               	movf	??_led,w
  7839  0C05  0586               	andwf	6,f	;volatile
  7840  0C06  2C1C               	goto	i1l314
  7841  0C07                     i1l2970:	
  7842  0C07  1283               	bcf	3,5	;RP0=0, select bank0
  7843  0C08  1303               	bcf	3,6	;RP1=0, select bank0
  7844  0C09  085E               	movf	_state,w
  7845  0C0A  00F0               	movwf	??_led
  7846  0C0B  01F1               	clrf	??_led+1
  7847                           
  7848                           ; Switch on 2 bytes has been partitioned into a top level switch of size 1, and 1 sub-sw
      +                          itches
  7849                           ; Switch size 1, requested type "simple"
  7850                           ; Number of cases is 1, Range of values is 0 to 0
  7851                           ; switch strategies available:
  7852                           ; Name         Instructions Cycles
  7853                           ; simple_byte            4     3 (average)
  7854                           ; direct_byte           11     8 (fixed)
  7855                           ; jumptable            260     6 (fixed)
  7856                           ;	Chosen strategy is simple_byte
  7857  0C0C  0871               	movf	??_led+1,w
  7858  0C0D  3A00               	xorlw	0	; case 0
  7859  0C0E  1903               	skipnz
  7860  0C0F  2C11               	goto	i1l3328
  7861  0C10  2C1C               	goto	i1l314
  7862  0C11                     i1l3328:	
  7863                           
  7864                           ; Switch size 1, requested type "simple"
  7865                           ; Number of cases is 3, Range of values is 0 to 2
  7866                           ; switch strategies available:
  7867                           ; Name         Instructions Cycles
  7868                           ; simple_byte           10     6 (average)
  7869                           ; direct_byte           17     8 (fixed)
  7870                           ; jumptable            260     6 (fixed)
  7871                           ;	Chosen strategy is simple_byte
  7872  0C11  0870               	movf	??_led,w
  7873  0C12  3A00               	xorlw	0	; case 0
  7874  0C13  1903               	skipnz
  7875  0C14  2BEA               	goto	i1l2956
  7876  0C15  3A01               	xorlw	1	; case 1
  7877  0C16  1903               	skipnz
  7878  0C17  2C00               	goto	i1l311
  7879  0C18  3A03               	xorlw	3	; case 2
  7880  0C19  1903               	skipnz
  7881  0C1A  2C02               	goto	i1l2966
  7882  0C1B  2C1C               	goto	i1l314
  7883  0C1C                     i1l314:	
  7884  0C1C  0008               	return
  7885  0C1D                     __end_of_led:	
  7886  007E                     btemp	set	126	;btemp
  7887  007E                     wtemp0	set	126


Data Sizes:
    Strings     0
    Constant    0
    Data        3
    BSS         40
    Persistent  0
    Stack       0

Auto Spaces:
    Space          Size  Autos    Used
    COMMON           14     14      14
    BANK0            80     54      77
    BANK1            80     24      44
    BANK3            96      0       0
    BANK2            96      0       0

Pointer List with Targets:

    None.

Critical Paths under _main in COMMON

    None.

Critical Paths under _isr in COMMON

    _isr->_ssd_blink
    _temp_sensor_read->_average
    _average->___lwdiv
    ___xxtofl->_ADC_Read
    ___fltol->___xxtofl
    ___flmul->___xxtofl
    ___fldiv->___xxtofl
    _sw_action->_EEPROM_write
    _EEPROM_write->i1_I2C1_Wr
    _ssd_blink->_ssd_update
    _ssd_update->___awdiv

Critical Paths under _main in BANK0

    None.

Critical Paths under _isr in BANK0

    _isr->_temp_sensor_read
    _temp_sensor_read->___fltol
    ___fltol->___fldiv
    ___fltol->___flmul
    ___flmul->___xxtofl
    ___fldiv->___xxtofl

Critical Paths under _main in BANK1

    _temp_sensor_init->_ADC_Init
    _EEPROM_read->_I2C1_Wr
    _EEPROM_init->_I2C1_Init
    _I2C1_Init->___aldiv

Critical Paths under _isr in BANK1

    None.

Critical Paths under _main in BANK3

    None.

Critical Paths under _isr in BANK3

    None.

Critical Paths under _main in BANK2

    None.

Critical Paths under _isr in BANK2

    None.

Call Graph Tables:

 ---------------------------------------------------------------------------------
 (Depth) Function   	        Calls       Base Space   Used Autos Params    Refs
 ---------------------------------------------------------------------------------
 (0) _main                                                 1     1      0     770
                                             23 BANK1      1     1      0
                        _EEPROM_init
                        _EEPROM_read
                           _ssd_init
                        _switch_init
                  _temp_control_init
                   _temp_sensor_init
                        _timer2_init
 ---------------------------------------------------------------------------------
 (1) _timer2_init                                          1     1      0       0
                                              0 BANK1      1     1      0
 ---------------------------------------------------------------------------------
 (1) _temp_sensor_init                                     0     0      0       0
                           _ADC_Init
 ---------------------------------------------------------------------------------
 (2) _ADC_Init                                             1     1      0       0
                                              0 BANK1      1     1      0
 ---------------------------------------------------------------------------------
 (1) _temp_control_init                                    1     1      0       0
                                              0 BANK1      1     1      0
 ---------------------------------------------------------------------------------
 (1) _switch_init                                          0     0      0       0
 ---------------------------------------------------------------------------------
 (1) _ssd_init                                             1     1      0       0
                                              0 BANK1      1     1      0
 ---------------------------------------------------------------------------------
 (1) _EEPROM_read                                          4     2      2     220
                                              1 BANK1      4     2      2
                            _I2C1_Rd
                         _I2C1_Start
                          _I2C1_Stop
                            _I2C1_Wr
 ---------------------------------------------------------------------------------
 (2) _I2C1_Wr                                              1     1      0      22
                                              0 BANK1      1     1      0
                           _I2C_Wait
 ---------------------------------------------------------------------------------
 (2) _I2C1_Stop                                            0     0      0       0
                           _I2C_Wait
 ---------------------------------------------------------------------------------
 (2) _I2C1_Start                                           0     0      0       0
                           _I2C_Wait
 ---------------------------------------------------------------------------------
 (3) _I2C_Wait                                             0     0      0       0
 ---------------------------------------------------------------------------------
 (2) _I2C1_Rd                                              0     0      0       0
 ---------------------------------------------------------------------------------
 (1) _EEPROM_init                                          0     0      0     550
                          _I2C1_Init
 ---------------------------------------------------------------------------------
 (2) _I2C1_Init                                            8     4      4     550
                                             15 BANK1      8     4      4
                            ___aldiv
 ---------------------------------------------------------------------------------
 (3) ___aldiv                                             15     7      8     452
                                              0 BANK1     15     7      8
 ---------------------------------------------------------------------------------
 Estimated maximum stack depth 3
 ---------------------------------------------------------------------------------
 (Depth) Function   	        Calls       Base Space   Used Autos Params    Refs
 ---------------------------------------------------------------------------------
 (4) _isr                                                  6     6      0    7212
                                             48 BANK0      6     6      0
                                _led
                          _ssd_blink
                       _ssd_turn_off
                         _ssd_update
                        _start_timer
                         _stop_timer
                          _sw_action
                        _switch_scan
                   _temp_control_off
                   _temp_sensor_read
                           _temp_set
 ---------------------------------------------------------------------------------
 (5) _temp_set                                             4     4      0      44
                                              0 COMMON     4     4      0
 ---------------------------------------------------------------------------------
 (5) _temp_sensor_read                                     5     5      0    4996
                                             43 BANK0      5     5      0
                           _ADC_Read
                            ___fldiv
                            ___flmul
                            ___fltol
                           ___xxtofl
                            _average
 ---------------------------------------------------------------------------------
 (6) _average                                              6     6      0     429
                                              8 COMMON     6     6      0
                            ___lwdiv
 ---------------------------------------------------------------------------------
 (7) ___lwdiv                                              8     4      4     314
                                              0 COMMON     8     4      4
 ---------------------------------------------------------------------------------
 (6) ___xxtofl                                            14    10      4     474
                                              5 COMMON     8     4      4
                                              0 BANK0      6     6      0
                           _ADC_Read (ARG)
 ---------------------------------------------------------------------------------
 (6) ___fltol                                             11     7      4     381
                                             32 BANK0     11     7      4
                           _ADC_Read (ARG)
                            ___fldiv (ARG)
                            ___flmul (ARG)
                           ___xxtofl (ARG)
 ---------------------------------------------------------------------------------
 (6) ___flmul                                             26    18      8    2417
                                              6 BANK0     26    18      8
                           _ADC_Read (ARG)
                          __Umul8_16
                           ___xxtofl (ARG)
 ---------------------------------------------------------------------------------
 (7) __Umul8_16                                            9     7      2     799
                                              0 COMMON     9     7      2
 ---------------------------------------------------------------------------------
 (6) ___fldiv                                             26    18      8    1273
                                              6 BANK0     26    18      8
                           ___xxtofl (ARG)
 ---------------------------------------------------------------------------------
 (6) _ADC_Read                                             5     3      2      22
                                              0 COMMON     5     3      2
 ---------------------------------------------------------------------------------
 (5) _temp_control_off                                     1     1      0       0
                                              0 COMMON     1     1      0
 ---------------------------------------------------------------------------------
 (5) _switch_scan                                          1     1      0       0
                                              0 COMMON     1     1      0
 ---------------------------------------------------------------------------------
 (5) _sw_action                                            2     2      0     218
                                              4 COMMON     2     2      0
                       _EEPROM_write
 ---------------------------------------------------------------------------------
 (6) _EEPROM_write                                         3     0      3     218
                                              1 COMMON     3     0      3
                       i1_I2C1_Start
                        i1_I2C1_Stop
                          i1_I2C1_Wr
 ---------------------------------------------------------------------------------
 (7) i1_I2C1_Wr                                            1     1      0      22
                                              0 COMMON     1     1      0
                         i1_I2C_Wait
 ---------------------------------------------------------------------------------
 (7) i1_I2C1_Stop                                          0     0      0       0
                         i1_I2C_Wait
 ---------------------------------------------------------------------------------
 (7) i1_I2C1_Start                                         0     0      0       0
                         i1_I2C_Wait
 ---------------------------------------------------------------------------------
 (8) i1_I2C_Wait                                           0     0      0       0
 ---------------------------------------------------------------------------------
 (5) _stop_timer                                           1     1      0       0
                                              0 COMMON     1     1      0
 ---------------------------------------------------------------------------------
 (5) _start_timer                                          0     0      0       0
 ---------------------------------------------------------------------------------
 (5) _ssd_blink                                            3     3      0     988
                                             13 COMMON     1     1      0
                                              0 BANK0      2     2      0
                       _ssd_turn_off
                         _ssd_update
 ---------------------------------------------------------------------------------
 (5) _ssd_update                                           4     4      0     966
                                              9 COMMON     4     4      0
                            ___awdiv
                            ___awmod
                          _display7s
 ---------------------------------------------------------------------------------
 (6) _display7s                                            3     3      0      22
                                              0 COMMON     3     3      0
 ---------------------------------------------------------------------------------
 (6) ___awmod                                              7     3      4     448
                                              0 COMMON     7     3      4
 ---------------------------------------------------------------------------------
 (6) ___awdiv                                              9     5      4     452
                                              0 COMMON     9     5      4
 ---------------------------------------------------------------------------------
 (5) _ssd_turn_off                                         1     1      0       0
                                              0 COMMON     1     1      0
 ---------------------------------------------------------------------------------
 (5) _led                                                  2     2      0       0
                                              0 COMMON     2     2      0
 ---------------------------------------------------------------------------------
 Estimated maximum stack depth 8
 ---------------------------------------------------------------------------------

 Call Graph Graphs:

 _main (ROOT)
   _EEPROM_init
     _I2C1_Init
       ___aldiv
   _EEPROM_read
     _I2C1_Rd
     _I2C1_Start
       _I2C_Wait
     _I2C1_Stop
       _I2C_Wait
     _I2C1_Wr
       _I2C_Wait
   _ssd_init
   _switch_init
   _temp_control_init
   _temp_sensor_init
     _ADC_Init
   _timer2_init

 _isr (ROOT)
   _led
   _ssd_blink
     _ssd_turn_off
     _ssd_update
       ___awdiv
       ___awmod
       _display7s
   _ssd_turn_off
   _ssd_update
     ___awdiv
     ___awmod
     _display7s
   _start_timer
   _stop_timer
   _sw_action
     _EEPROM_write
       i1_I2C1_Start
         i1_I2C_Wait
       i1_I2C1_Stop
         i1_I2C_Wait
       i1_I2C1_Wr
         i1_I2C_Wait
   _switch_scan
   _temp_control_off
   _temp_sensor_read
     _ADC_Read
     ___fldiv
       ___xxtofl (ARG)
         _ADC_Read (ARG)
     ___flmul
       _ADC_Read (ARG)
       __Umul8_16 (ARG)
       ___xxtofl (ARG)
         _ADC_Read (ARG)
     ___fltol
       _ADC_Read (ARG)
       ___fldiv (ARG)
         ___xxtofl (ARG)
           _ADC_Read (ARG)
       ___flmul (ARG)
         _ADC_Read (ARG)
         __Umul8_16 (ARG)
         ___xxtofl (ARG)
           _ADC_Read (ARG)
       ___xxtofl (ARG)
         _ADC_Read (ARG)
     ___xxtofl
       _ADC_Read (ARG)
     _average
       ___lwdiv
   _temp_set

 Address spaces:
Name               Size   Autos  Total    Cost      Usage
BANK3               60      0       0       9        0.0%
BITBANK3            60      0       0       8        0.0%
SFR3                 0      0       0       4        0.0%
BITSFR3              0      0       0       4        0.0%
BANK2               60      0       0      11        0.0%
BITBANK2            60      0       0      10        0.0%
SFR2                 0      0       0       5        0.0%
BITSFR2              0      0       0       5        0.0%
BANK1               50     18      2C       7       55.0%
BITBANK1            50      0       0       6        0.0%
SFR1                 0      0       0       2        0.0%
BITSFR1              0      0       0       2        0.0%
BANK0               50     36      4D       5       96.3%
BITBANK0            50      0       0       4        0.0%
SFR0                 0      0       0       1        0.0%
BITSFR0              0      0       0       1        0.0%
COMMON               E      E       E       1      100.0%
BITCOMMON            E      0       0       0        0.0%
CODE                 0      0       0       0        0.0%
DATA                 0      0      87      12        0.0%
ABS                  0      0      87       3        0.0%
NULL                 0      0       0       0        0.0%
STACK                0      0       0       2        0.0%
EEDATA             100      0       0       0        0.0%


Microchip Technology PIC Macro Assembler V2.10 build 88905656 
Symbol Table                                                                                   Tue Jul 07 17:31:20 2020

              _ssd_turn_off 0A08                ___fldiv@aexp 003F                ___fldiv@bexp 003E  
                         _i 005D                ___fldiv@sign 0037                 __CFG_CP$OFF 0000  
                        l83 0D59                          l84 0D5E                          l85 0D5E  
                        l98 0AB3                ___awdiv@sign 0076                          fsr 0004  
        EEPROM_read@address 00A1                ?i1_I2C1_Stop 0070         __Umul8_16@word_mpld 0076  
               __CFG_LVP$ON 0000                 ?i1_I2C_Wait 0070             __end_of_I2C1_Rd 0A3C  
                       l121 0A21                         l130 09F5                         l124 0A2D  
                       l141 0A39                         l133 09FE                         l142 0A3B  
                       l127 0C50             __end_of_I2C1_Wr 0A7F                         l136 0A7E  
                       l161 0BE8                         l155 0A6A                         l139 0A34  
                       l334 0A07                         l255 09D2                         l184 0AEF  
                       l515 0706                         l525 078E                         l358 0B13  
                       l297 0B38                __CFG_CPD$OFF 0000                         _led 0BE9  
                       _isr 0F69                         fsr0 0004                         indf 0000  
               _start_timer 09BF                ___awmod@sign 0076   __size_of_temp_control_off 000F  
             ?i1_I2C1_Start 0070                ___flmul@aexp 0038                ___flmul@bexp 0039  
              ___flmul@sign 0033                ___flmul@temp 003E                ___flmul@prod 003A  
              ___fltol@exp1 004A                        l2300 0766                        l3100 0AF8  
                      l2310 0786                        l2302 0767                        l3110 0B0D  
                      l3102 0B01                        l2304 0770                        l2160 0A27  
                      l3112 0B10                        l3104 0B03                        l2306 0776  
                      l3106 0B04                        l2308 077B                        l3060 0A04  
                      l3108 0B05                        l2510 0C4E                        l2158 0A21  
                      l3070 0ADD                        l3062 0B14                        l2280 070A  
                      l2512 0C4F                        l2520 09FB                        l3080 0BB8  
                      l3072 0AE3                        l3064 09CC                        l2290 072C  
                      l2282 0715                        l2274 06F2                        l2506 0C1D  
                      l2530 0A3A                        l2514 09ED                        l2522 0A6E  
                      l3090 0BD6                        l3082 0BBD                        l3074 0AE9  
                      l3066 0AD1                        l3058 09FF                        l3170 0D2E  
                      l3162 0D15                        l2292 0739                        l2284 0719  
                      l2276 06F5                        l2508 0C21                        l3076 0A5B  
                      l2516 09F2                        l2524 0A73                        l3092 0BE0  
                      l3084 0BC3                        l3068 0AD7                        l3172 0D42  
                      l3164 0D1F                        l2294 073D                        l2286 0721  
                      l2278 06F9                        l2518 09F6                        l2526 0A79  
                      l3094 0BE5                        l3086 0BCB                        l3078 0BB8  
                      l3174 0D49                        l3166 0D24                        l2296 0746  
                      l2288 0729                        l2528 0A2E                        l3088 0BD0  
                      l3168 0D29                        l2298 0758                        l3098 0AF0  
                      l2492 0A98                        l2494 0AA0                        ?_led 0070  
                      l2496 0AB0                        ?_isr 0070                        u2060 0C31  
                      u2070 0A39                        u2071 0A38                        u2065 0C2C  
                      u1700 0758                        u1620 0A27                        u1701 0757  
                      u1621 0A26                        u1630 0A2D                        u1631 0A2C  
                      u1720 0776                        u1640 06F9                        u1721 0775  
                      u1705 0754                        u1641 06F8                        u1730 077B  
                      u1650 070A                        u1731 077A                        u1715 0768  
                      u1651 0709                        u1660 0729                        u3180 0D42  
                      u1661 0728                        u3181 0D41                        _PIE1 008C  
                      u1680 073D                        u1681 073C                        u1675 072E  
                      u1695 073F                        _PIR1 000C                        i1l74 0FCA  
                      i1l67 0FBF                        i1l77 0FF3                        _TMR2 0011  
              __CFG_WRT$OFF 0000              i1I2C1_Wr@_data 0070                        _main 0D15  
                      _mode 0064                        _ones 0061                        _temp 005C  
                      _tens 0062                        btemp 007E            __end_of_I2C_Wait 0A2E  
          __end_of_ADC_Init 0AB4            __end_of_ADC_Read 0B88          __size_ofi1_I2C1_Wr 0010  
                      start 0012             ___fldiv@new_exp 0038                 _switch_init 09CC  
               _switch_scan 0A7F                 _switch_wait 005A                       ??_led 0070  
                     ??_isr 0050        __end_of_EEPROM_write 0AD1           __end_of_I2C1_Init 0C51  
             ___fltol@sign1 0049             __end_of___aldiv 078F                       ?_main 0070  
           __end_of___fldiv 057A             __end_of___awdiv 0E81           __end_of_I2C1_Stop 09FF  
             __CFG_WDTE$OFF 0000             __end_of___awmod 0DBB             __end_of___flmul 039D  
           __end_of___fltol 0F69             ___awdiv@divisor 0070                       _T2CON 0012  
           __end_of___lwdiv 0D15                       i1l101 0B7D                       i1l104 0B87  
                     i1l121 0A14                       i1l130 09E3                       i1l124 0A20  
                     i1l133 09EC                       i1l230 0CD0                       i1l311 0C00  
                     i1l215 07FC                       i1l223 0CA9                       i1l136 0A5A  
                     i1l304 0C8E                       i1l314 0C1C                       i1l218 0A13  
                     i1l317 0A4A                       i1l158 0AD0                       i1l270 0E8C  
                     i1l263 0A97                       i1l280 0EEC                       i1l344 0635  
                     i1l361 09CB                       i1l603 0E80                       i1l259 0A91  
                     i1l339 0BB7                       i1l364 09C4                       i1l189 0E19  
                     i1l616 0DBA                       i1l801 0579                       i1l722 0D14  
                     i1l643 0F53                       i1l636 0F68                       i1l821 055D  
                     i1l646 0F68                       i1l823 056D                       i1l815 04EB  
                     i1l851 0390                       i1l845 0308                       i1l839 039C  
                     i1l890 06BB                       i1l891 06C7                       i1l883 069F  
                     i1l877 065A                       i1l799 03F9                       i1l879 06F1  
                     i1l896 0B4D                       i1l898 0B5F             ___awdiv@counter 0075  
                     _PORTA 0005                       _PORTB 0006                       _PORTC 0007  
                     _PORTD 0008                       _TRISA 0085                       _TRISB 0086  
                     _TRISC 0087                       _TRISD 0088                       _SSPIF 0063  
            ??i1_I2C1_Start 0070              EEPROM_write@_x 0073             __end_of_average 0BB8  
                     _blink 005F                       _state 005E                       _up_sw 006C  
            __CFG_BOREN$OFF 0000                       pclath 000A                       status 0003  
                     wtemp0 007E         __size_ofi1_I2C_Wait 000D             _temp_hold_array 00B8  
              ??_I2C1_Start 00A0        __size_of_EEPROM_init 0010        __size_of_EEPROM_read 0031  
           __initialization 0015                __end_of_main 0D62                   ??_I2C1_Rd 00A0  
                 ??_I2C1_Wr 00A0                _switch_delay 0067                      ??_main 00B7  
         __end_ofi1_I2C1_Wr 0A5B         EEPROM_write@address 0071                      _ADCON0 001F  
                    _ADCON1 009F          __end_of_I2C1_Start 09F6                      _ADRESH 001E  
                    _ADRESL 009E            ___awdiv@dividend 0072                      i1l2200 0DC9  
                    i1l3000 0EAB                      i1l3010 0EBD                      i1l3002 0EAD  
                    i1l2212 0DCD                      i1l3012 0EBF                      i1l3004 0EB0  
                    i1l2230 0DD3                      i1l2206 0DCB                      i1l3030 0C99  
                    i1l3006 0EB5                      i1l3014 0EC2                      i1l3022 0EDA  
                    i1l2320 0E24                      i1l2224 0DD1                      i1l3040 0CBC  
                    i1l3032 0CA2                      i1l3008 0EBB                      i1l3016 0EC9  
                    u200_20 0B47                      i1l2400 0CD9                      i1l3120 0F74  
                    u200_21 0B46                      i1l2330 0E35                      i1l2322 0E26  
                    i1l2314 0E1A                      i1l2242 0DD7                      i1l2218 0DCF  
                    i1l2170 0DBF                      i1l2162 0DBC                      i1l3034 0CAB  
                    i1l3050 09C5                      i1l2154 0A14                      i1l3018 0ECC  
                    i1l2410 0CFC                      i1l2402 0CDC                      i1l3130 0F96  
                    i1l3122 0F7E                      i1l3114 0F69                      i1l2340 0E4D  
                    i1l2332 0E3B                      i1l2324 0E2A                      i1l2316 0E1B  
                    i1l2260 0DDD                      i1l2236 0DD5                      i1l2164 0DBD  
                    i1l3036 0CAD                      i1l3044 0CC0                      i1l3028 0C90  
                    i1l2156 0A1A                      i1l3052 0A3C                      i1l2500 0B7C  
                    i1l2412 0D02                      i1l2404 0CE3                      i1l3132 0F9C  
                    i1l3124 0F84                      i1l3140 0FAF                      i1l3116 0F6B  
                    i1l2342 0E5E                      i1l2334 0E3E                      i1l2350 0E72  
                    i1l2326 0E2F                      i1l2318 0E1F                      i1l2254 0DDB  
                    i1l2182 0DC3                      i1l3038 0CB3                      i1l3054 09BF  
                    i1l2502 0B81                      i1l2430 0B56                      i1l2422 0B3A  
                    i1l2414 0D03                      i1l2406 0CE7                      i1l3142 0FC3  
                    i1l3134 0FA1                      i1l3126 0F8C                      i1l3118 0F6F  
                    i1l2352 0E77                      i1l2344 0E64                      i1l2336 0E45  
                    i1l2328 0E33                      i1l2360 0D63                      i1l2248 0DD9  
                    i1l2176 0DC1                      i1l3056 09C2                      i1l2440 09E4  
                    i1l3320 0EE4                      i1l2600 03B9                      i1l2432 0B5B  
                    i1l2424 0B3C                      i1l2416 0D0A                      i1l2408 0CEB  
                    i1l3144 0FCC                      i1l3152 0FE3                      i1l3136 0FA6  
                    i1l3128 0F91                      i1l2354 0E7C                      i1l2346 0E65  
                    i1l2338 0E49                      i1l2370 0D77                      i1l2362 0D67  
                    i1l2194 0DC7                      i1l2450 0790                      i1l3322 0CC8  
                    i1l2442 09E9                      i1l2610 03D1                      i1l2602 03C1  
                    i1l2426 0B43                      i1l2418 0D10                      i1l3146 0FDC  
                    i1l2348 0E6C                      i1l2380 0D8F                      i1l2372 0D7D  
                    i1l2364 0D6C                      i1l2188 0DC5                      i1l2268 0DDF  
                    i1l3324 07F4                      i1l2460 07B8                      i1l2436 09DB  
                    i1l2444 0A4C                      i1l2700 04F5                      i1l2620 03E6  
                    i1l2612 03D7                      i1l2604 03C2                      i1l2428 0B47  
                    i1l3148 0FDD                      i1l3316 0FB7                      u201_25 0B4E  
                    i1l2390 0DB1                      i1l2382 0D99                      i1l2374 0D80  
                    i1l2366 0D6E                      i1l2358 0D62                      i1l3326 0DE7  
                    i1l2470 07DC                      i1l2462 07C1                      i1l2454 079D  
                    i1l2438 09E0                      i1l2446 0A51                      i1l2534 0AB4  
                    i1l2710 0533                      i1l2702 0503                      i1l2630 040D  
                    i1l2622 03EE                      i1l2614 03DB                      i1l2606 03C4  
                    i1l2542 0B8C                      i1l3318 0FEB                      i1l3328 0C11  
                    i1l2392 0DB6                      i1l2384 0D9F                      i1l2376 0D87  
                    i1l2368 0D72                      i1l2472 07E0                      i1l2464 07C2  
                    i1l2456 07B3                      i1l2480 07EC                      i1l2448 0A55  
                    i1l2720 0563                      i1l2712 0541                      i1l2704 0507  
                    i1l2632 0411                      i1l2624 03EF                      i1l2616 03DC  
                    i1l2608 03CC                      u202_20 0B5B                      i1l2800 01DF  
                    i1l2560 0F18                      u210_20 0F11                      i1l2552 0EED  
                    i1l2544 0B9F                      i1l2536 0B88                      u202_21 0B5A  
                    i1l2490 0A0F                      i1l2386 0DA6                      i1l2378 0D8B  
                    i1l2474 07E9                      i1l2466 07C5                      i1l2458 07B4  
                    i1l2722 0567                      i1l2714 0550                      i1l2706 0520  
                    i1l2650 0452                      i1l2642 0428                      i1l2618 03E1  
                    i1l2626 03F1                      i1l2810 028C                      i1l2802 01FC  
                    i1l2730 003C                      i1l2562 0F19                      i1l2554 0EFA  
                    i1l2546 0BA3                      i1l2388 0DAC                      i1l2476 07EA  
                    i1l2468 07DB                      i1l2724 0569                      i1l2716 0554  
                    i1l2708 0526                      i1l2660 0470                      i1l2652 0454  
                    i1l2644 043A                      i1l2628 0401                      i1l2636 041A  
                    i1l2820 02D8                      i1l2812 02B4                      i1l2804 0229  
                    i1l2740 0053                      i1l2732 0043                      i1l2564 0F21  
                    i1l2900 06BF                      i1l2396 0CD1                      i1l2548 0BA9  
                    u210_25 0F0C                      i1l2486 0A08                      i1l2718 055C  
                    i1l2654 0459                      i1l2662 0479                      i1l2670 049E  
                    i1l2646 0442                      i1l2638 041F                      i1l2590 03A4  
                    i1l2830 02ED                      i1l2822 02D9                      i1l2814 02BD  
                    i1l2806 0239                      i1l2750 006F                      i1l2742 0058  
                    i1l2734 0049                      i1l2582 0F48                      i1l2574 0F2F  
                    i1l2566 0F23                      i1l2558 0F03                      i1l2910 06E9  
                    i1l2902 06C9                      i1l2398 0CD3                      i1l2488 0A0B  
                    u203_20 079C                      i1l2680 04BB                      i1l2672 04A4  
                    i1l2664 048B                      i1l2656 046B                      i1l2648 044A  
                    i1l2592 03AA                      i1l2840 0312                      i1l2832 02F1  
                    i1l2824 02E2                      i1l2816 02CB                      i1l2808 0266  
                    i1l2760 0084                      i1l2752 0075                      i1l2744 0060  
                    i1l2736 004D                      i1l2584 0F58                      i1l2568 0F27  
                    i1l2576 0F41                      u211_20 0F27                      i1l2904 06DF  
                    i1l2920 0622                      u203_21 079B                      u211_21 0F26  
                    i1l2498 0B61                      i1l2690 04D0                      i1l2682 04BC  
                    i1l2674 04AC                      i1l2666 048C                      i1l2658 046F  
                    i1l2594 03AE                      i1l2850 0350                      i1l2842 0320  
                    i1l2834 0305                      i1l2818 02D4                      i1l2826 02E8  
                    i1l2770 00A0                      i1l2762 008C                      i1l2754 0079  
                    i1l2746 0062                      i1l2738 004E                      i1l2586 0F5D  
                    i1l2906 06E4                      i1l2922 0623                      i1l2914 057A  
                    i1l2692 04D4                      i1l2684 04C5                      i1l2676 04AE  
                    i1l2668 049A                      i1l2596 03AF                      i1l2588 039D  
                    i1l2860 0384                      i1l2852 035B                      i1l2844 0324  
                    i1l2828 02EC                      i1l2780 00E3                      i1l2764 008E  
                    i1l2756 007A                      i1l2748 006A                      i1l2908 06E8  
                    i1l2924 0629                      i1l2916 0586                      i1l2940 0C66  
                    i1l2694 04E8                      i1l2678 04B7                      i1l2686 04CB  
                    i1l2598 03B4                      i1l2862 0388                      i1l2854 036A  
                    i1l2846 033D                      i1l2838 030D                      i1l2790 016C  
                    i1l2782 00FF                      i1l2774 00A9                      i1l2766 0096  
                    i1l2758 007F                      i1l2870 0639                      i1l2926 062A  
                    i1l2918 061E                      i1l2950 0C88                      i1l2942 0C69  
                    i1l2960 0BF9                      i1l2688 04CF                      u220_20 03B4  
                    i1l2864 0389                      i1l2856 0374                      i1l2848 0343  
                    i1l2792 017C                      i1l2784 012B                      i1l2776 00B9  
                    i1l2768 009B                      u212_20 0F2E                      i1l2872 063E  
                    u300_20 0629                      i1l2928 0634                      i1l2952 0C8C  
                    i1l2944 0C6D                      u220_21 03B3                      u212_21 0F2D  
                    u300_21 0628                      i1l2962 0BFD                      i1l2970 0C07  
                    i1l2954 0BE9                      i1l2698 04F0                      i1l2866 0394  
                    i1l2858 0376                      i1l2794 0199                      i1l2786 0147  
                    i1l2778 00C6                      i1l2890 0688                      i1l2882 066B  
                    i1l2874 0642                      i1l2946 0C6F                      i1l2938 0C52  
                    i1l2956 0BEA                      i1l2980 0A8F                      i1l2796 01A9  
                    i1l2788 0163                      i1l2892 0696                      i1l2884 0670  
                    i1l2876 0652                      i1l2948 0C85                      u204_25 0B72  
                    i1l2966 0C02                      i1l2958 0BF0                      i1l2990 0E87  
                    i1l2982 0A95                      i1l2798 01C6                      i1l2894 06A6  
                    i1l2886 067D                      i1l2878 0662                      i1l2992 0E93  
                    i1l2984 0A96                      i1l2976 0A7F                      u205_20 0B81  
                    u221_20 03B9                      i1l2896 06B1                      i1l2888 0684  
                    u301_20 0C66                      u205_21 0B80                      u221_21 03B8  
                    u301_21 0C65                      i1l2994 0E9C                      i1l2986 0E81  
                    i1l2978 0A8B                      i1l2898 06B5                      i1l2996 0EA1  
                    i1l2988 0E82                      u213_25 0F30                      u301_25 0C62  
                    i1l2998 0EA7                      u310_20 0EA1                      u230_20 046F  
                    u222_20 03DB                      u214_20 0F40                      u302_20 0C85  
                    u310_21 0EA0                      u230_21 046E                      u222_21 03DA  
                    u214_21 0F3F                      u302_21 0C84                      u302_25 0C81  
                    u303_20 0BF9                      u311_20 0EA7                      u223_20 03E1  
                    u215_20 0F47                      u303_21 0BF8                      u311_21 0EA6  
                    u223_21 03E0                      u215_21 0F46                      u231_25 0472  
                    u160_20 0A1A                      u312_20 0EB5                      u304_20 0A8B  
                    u240_20 04E8                      u232_20 048B                      u224_20 03E6  
                    u208_20 0BA9                      u160_21 0A19                      u312_21 0EB4  
                    u304_21 0A8A                      u240_21 04E7                      u232_21 048A  
                    u224_21 03E5                      u208_21 0BA8                      u232_25 0487  
                    u216_25 0F4A                      u161_20 0A20                      u313_20 0EBB  
                    u305_20 0A8F                      u241_20 04EF                      u233_20 04A4  
                    u225_20 0401                      u217_20 0F58                      u209_20 0EFA  
                    _INTCON 000B                      u161_21 0A1F                      u313_21 0EBA  
                    u305_21 0A8E                      u241_21 04EE                      u233_21 04A3  
                    u225_21 0400                      u217_21 0F57                      u209_21 0EF9  
                    u314_20 0CA2                      u306_20 0A95                      u242_20 04F5  
                    u234_20 04AC                      u226_20 041F                      u250_20 0058  
                    u218_20 0F5D                      u314_21 0CA1                      u306_21 0A94  
                    u242_21 04F4                      u234_21 04AB                      u226_21 041E  
                    u250_21 0057                      u218_21 0F5C                      u315_20 0CBC  
                    u307_20 0E87                      u243_20 0507                      u227_20 0459  
                    u219_20 03AE                      u251_20 0079                      u315_21 0CBB  
                    u307_21 0E86                      u243_21 0506                      u227_21 0458  
                    u219_21 03AD                      u251_21 0078                      u235_25 04B0  
                    u180_20 0E5E                      u308_20 0E8C                      u244_20 0516  
                    u236_20 04BB                      u252_20 007F                      u316_20 0F6F  
                    u180_21 0E5D                      u308_21 0E8B                      u236_21 04BA  
                    u252_21 007E                      u316_21 0F6E                      u180_25 0E5A  
                    u244_25 0511                      u228_25 045B                      u260_25 0165  
                    u309_20 0E9C                      u245_20 0533                      u253_20 0084  
                    u317_20 0FC3                      u309_21 0E9B                      u245_21 0532  
                    u261_21 018B                      u253_21 0083                      u317_21 0FC2  
                    u261_22 0192                      u261_23 0199                      u181_25 0E66  
                    u245_25 052F                      u237_25 04BE                      u229_25 0464  
                    u182_20 0E72                      u174_20 0E1F                      u246_20 0550  
                    u238_20 04CF                      u254_20 009B                      u182_21 0E71  
                    u174_21 0E1E                      u246_21 054F                      u238_21 04CE  
                    u270_21 02A6                      u262_21 01B8                      u254_21 009A  
                    u270_22 02AD                      u262_22 01BF                      u270_23 02B4  
                    u262_23 01C6                      u190_25 0DA0                      u246_25 054C  
                    u183_20 0E77                      u175_20 0E2A                      u191_20 0DAC  
                    u247_20 0567                      u239_20 04D4                      u255_20 00A0  
                    u183_21 0E76                      u175_21 0E29                      u191_21 0DAB  
                    u247_21 0566                      u239_21 04D3                      u255_21 009F  
                    u271_25 02B6                      u263_25 01C8                      u176_20 0E3B  
                    u192_20 0DB1                      u184_20 0D67                      u280_20 0324  
                    u248_20 004D                      u176_21 0E3A                      u192_21 0DB0  
                    u184_21 0D66                      u280_21 0323                      u264_21 01EE  
                    u256_21 00F1                      u248_21 004C                      u264_22 01F5  
                    u256_22 00F8                      u264_23 01FC                      u256_23 00FF  
                    u272_25 02CD                      u185_20 0D72                      u281_20 0333  
                    u273_20 02D8                      u249_20 0053                      u193_20 0CD9  
                    u185_21 0D71                      u273_21 02D7                      u265_21 021B  
                    u257_21 010D                      u249_21 0052                      u193_21 0CD8  
                    u265_22 0222                      u257_22 0114                      u265_23 0229  
                    u257_23 011B                      u177_25 0E3F                      u281_25 032E  
                    u178_20 0E4D                      u186_20 0D7D                      u282_20 0350  
                    u178_21 0E4C                      u186_21 0D7C                      u282_21 034F  
                    u266_21 0248                      u258_21 0139                      u266_22 024F  
                    u258_22 0140                      u266_23 0256                      u258_23 0147  
                    u282_25 034C                      u274_25 02DB                      u290_25 0697  
                    u194_25 0CDD                      u283_20 036A                      u275_20 02EC  
                    u267_20 0272                      u291_20 06A5                      u195_20 0CEB  
                    u283_21 0369                      u275_21 02EB                      u259_21 0155  
                    u291_21 06A4                      u195_21 0CEA                      u259_22 015C  
                    u259_23 0163                      u179_25 0E4E                      u187_25 0D81  
                    u283_25 0366                      u267_25 026D                      u188_20 0D8F  
                    u284_20 0388                      u276_20 02F1                      u188_21 0D8E  
                    u284_21 0387                      u276_21 02F0                      u268_21 027E  
                    u268_22 0285                      u268_23 028C                      u292_25 06AA  
                    u196_25 0CEC                      u189_20 0D99                      u277_20 0305  
                    u269_20 029A                      u293_20 06B5                      u285_20 063E  
                    u197_20 0CFC                      u189_21 0D98                      u277_21 0304  
                    u293_21 06B4                      u285_21 063D                      u197_21 0CFB  
                    u189_25 0D95                      u269_25 0295                      u197_25 0CF8  
                    u278_20 030C                      u294_20 06BB                      u286_20 0642  
                    u278_21 030B                      u294_21 06BA                      u286_21 0641  
                    u198_25 0D04                      u279_20 0312                      u295_20 06BF  
                    u287_20 0662                      u199_20 0D10                      u279_21 0311  
                    u295_21 06BE                      u287_21 0661                      u199_21 0D0F  
                    u296_20 06D4                      u296_25 06CF                      u288_25 0675  
                    u297_20 06E4                      u289_20 0683                      u297_21 06E3  
                    u289_21 0682                      u298_20 06E8                      u298_21 06E7  
                    u299_20 0586                      u299_21 0585                      _SSPADD 0093  
                    _SSPCON 0014                      _SSPBUF 0013            __end_of___xxtofl 06F2  
            __CFG_PWRTE$OFF 0000                   ??___aldiv 00A8                   ??___fldiv 002E  
                 ??___awdiv 0074                   ??___awmod 0074                   ??___flmul 002E  
                 ??___fltol 0044                   ??___lwdiv 0074                ?_timer2_init 0070  
           ADC_Read@channel 0074   __size_of_temp_sensor_init 0009   __size_of_temp_sensor_read 00BC  
          ___awdiv@quotient 0077             ___awmod@divisor 0070             ___awmod@counter 0075  
                 ??_average 0078        __size_ofi1_I2C1_Stop 0009                   ?_I2C_Wait 0070  
        __size_of__Umul8_16 0027            __end_of_temp_set 0C8F                   ?_ADC_Init 0070  
                 ?_ADC_Read 0070                      saved_w 007E            _temp_control_off 0A3C  
          __end_of_ssd_init 0AF0                ___xxtofl@arg 0022             __CFG_FOSC$EXTRC 0000  
              ___xxtofl@exp 0021                ___xxtofl@val 0075     __end_of__initialization 0038  
                ___fltol@f1 0040        __end_ofi1_I2C1_Start 09E4              __pcstackCOMMON 0070  
     __size_of_EEPROM_write 001D                __pidataBANK0 07FD                ??i1_I2C_Wait 0070  
              ?_start_timer 0070                  ??_I2C_Wait 00A0                  ??_ADC_Init 00A0  
                ??_ADC_Read 0072          __size_of_display7s 005F                  __pbssBANK0 0056  
                __pbssBANK1 00B8             ssd_blink@e_temp 007D                _EEPROM_write 0AB4  
        __end_ofi1_I2C_Wait 0A21           __end_of__Umul8_16 0B60                  __pmaintext 0D15  
              ?_switch_init 0070                ?_switch_scan 0070                     _I2C1_Rd 0A2E  
                   _I2C1_Wr 0A6B                  __pintentry 0004                   ?___xxtofl 0075  
        __size_of_ssd_blink 0042                   _I2C1_Init 0C1D                   _I2C1_Stop 09F6  
        __size_of_sw_action 006C                     _SSPCON2 0091                     _SSPSTAT 0094  
                 ?_temp_set 0070                     ___aldiv 06F2           __end_of_display7s 0E1A  
                 ?_ssd_init 0070                     ___fldiv 039D                     ___awdiv 0E1A  
                   ___awmod 0D62                     ___flmul 003C                     ___fltol 0EED  
                   ___lwdiv 0CD1            _temp_sensor_init 09FF            _temp_sensor_read 057A  
                   __ptext1 0AF0                     __ptext2 09FF                     __ptext3 0A98  
                   __ptext4 0B14                     __ptext5 09CC                     __ptext6 0AD1  
                   __ptext7 0BB8                     __ptext8 0A6B                     __ptext9 09F6  
      __size_of_timer2_init 0024                     _average 0B88                     _down_sw 006B  
              __size_of_led 0034                __size_of_isr 0097                  ??___xxtofl 0079  
          ___awmod@dividend 0072            ___aldiv@dividend 00A4                  ?_I2C1_Init 00AF  
                ?_I2C1_Stop 0070                   i1_I2C1_Wr 0A4B                     clrloop0 09D4  
      end_of_initialization 0038       __size_ofi1_I2C1_Start 0009               ??_EEPROM_init 00B7  
             ??_EEPROM_read 00A3           _temp_control_init 0B14           __end_of_ssd_blink 0CD1  
  __end_of_temp_control_off 0A4B                  ??_temp_set 0070            ___aldiv@quotient 00AB  
         __end_of_sw_action 0EED          ?_temp_control_init 0070                  ??_ssd_init 00A0  
                _temp_timer 0069              ssd_update@temp 007C         ??_temp_control_init 00A0  
                _ssd_select 0060               ___xxtofl@sign 0020                  _power_mode 0063  
                _ssd_update 078F                i1_I2C1_Start 09DB        __size_of_start_timer 0006  
               ___fldiv@grs 003A                 ___fldiv@rem 0033                  ?i1_I2C1_Wr 0070  
         __size_of_I2C_Wait 000D           __size_of_ADC_Init 001C           __size_of_ADC_Read 0028  
                average@sum 007B                 ___flmul@grs 0034   __end_of_temp_control_init 0B39  
                display7s@v 0072               EEPROM_read@_x 00A4                  _stop_timer 09C5  
             ?_ssd_turn_off 0070         __end_of_EEPROM_init 0A6B         __end_of_EEPROM_read 0BE9  
             ??i1_I2C1_Stop 0070        __size_of_switch_init 0007        __size_of_switch_scan 0019  
       start_initialization 0015                 ??_I2C1_Init 00B3                 ??_I2C1_Stop 00A0  
               __end_of_led 0C1D                 __end_of_isr 1000              ??_ssd_turn_off 0070  
                  ?_I2C1_Rd 0070                    ?_I2C1_Wr 0070                   __Umul8_16 0B39  
               __pdataBANK0 006A                   ___fldiv@a 0026                   ___fldiv@b 002A  
                 ___flmul@a 002A                   ___flmul@b 0026                   ___latbits 0002  
               ?_ssd_update 0070               __pcstackBANK0 0020               __pcstackBANK1 00A0  
       __end_ofi1_I2C1_Stop 09ED                 ??i1_I2C1_Wr 0070           __size_of___xxtofl 00BC  
  __end_of_temp_sensor_init 0A08    __end_of_temp_sensor_read 0636  __size_of_temp_control_init 0025  
               _EEPROM_init 0A5B                 _EEPROM_read 0BB8            ___lwdiv@dividend 0072  
               ?_stop_timer 0070                    ?___aldiv 00A0                    ?___fldiv 0026  
                  ?___awdiv 0070                    ?___awmod 0070                    ?___flmul 0026  
                  ?___fltol 0040                  ?__Umul8_16 0070                    ?___lwdiv 0070  
         __size_of_temp_set 003E           __size_of_ssd_init 001F                   _display7s 0DBB  
                  ?_average 0070                   _led_timer 0056                    _I2C_Wait 0A21  
                  _ADC_Init 0A98                    _ADC_Read 0B60                   _hold_temp 0065  
          ___lwdiv@quotient 0075             ___aldiv@divisor 00A0           interrupt_function 0004  
           ___aldiv@counter 00A9                   clear_ram0 09D3                  _I2C1_Start 09ED  
         ?_temp_control_off 0070         __size_of_ssd_update 006E               ??_timer2_init 00A0  
        ??_temp_control_off 0070                   _ssd_delay 0068                   _ssd_blink 0C8F  
          __size_of_I2C1_Rd 000E            __size_of_I2C1_Wr 0014                   _ssd_timer 0058  
                 _sw_action 0E81                 i1_I2C1_Stop 09E4                  ?_display7s 0070  
      __end_of_ssd_turn_off 0A14         __size_of_stop_timer 0007                 ??__Umul8_16 0072  
          __size_of___aldiv 009D                  ?_ssd_blink 0070            __size_of___fldiv 01DD  
          __size_of___awdiv 0067            __size_of___awmod 0059            __size_of___flmul 0361  
          __size_of___fltol 007C            __size_of___lwdiv 0044                  ?_sw_action 0070  
             ??_start_timer 0070            __size_of_average 0030         __end_of_timer2_init 0B14  
                  ___xxtofl 0636             ___lwdiv@divisor 0070             ___lwdiv@counter 0077  
                  __ptext10 09ED                    __ptext11 0A21                    __ptext20 0CD1  
                  __ptext12 0A2E                    __ptext21 0636                    __ptext13 0A5B  
                  __ptext30 0AB4                    __ptext22 0EED                    __ptext14 0C1D  
                  __ptext31 0A4B                    __ptext23 003C                    __ptext15 06F2  
                  __ptext40 0D62                    __ptext32 09E4                    __ptext24 0B39  
                  __ptext16 0F69                    __ptext41 0E1A                    __ptext33 09DB  
                  __ptext25 039D                    __ptext17 0C51                    __ptext42 0A08  
                  __ptext34 0A14                    __ptext26 0B60                    __ptext18 057A  
                  __ptext43 0BE9                    __ptext35 09C5                    __ptext27 0A3C  
                  __ptext19 0B88                    __ptext36 09BF                    __ptext28 0A7F  
                  __ptext37 0C8F                    __ptext29 0E81                    __ptext38 078F  
                  __ptext39 0DBB               ?_EEPROM_write 0071               __size_of_main 004D  
               ?_I2C1_Start 0070                    _set_temp 0066                    _temp_set 0C51  
             ??_switch_init 00A0               ??_switch_scan 0070                    _ssd_init 0AD1  
                  _power_sw 006A                    average@i 007D                 ??_display7s 0070  
                i1_I2C_Wait 0A14                ??_ssd_update 0079         __end_of_start_timer 09C5  
                  intlevel1 0000              ??_EEPROM_write 0074           ?_temp_sensor_init 0070  
         ?_temp_sensor_read 0070                ?_EEPROM_init 0070                ?_EEPROM_read 00A1  
        ??_temp_sensor_init 00A1          ??_temp_sensor_read 004B                temp_set@temp 0073  
             I2C1_Init@freq 00AF                ??_stop_timer 0070          __end_of_ssd_update 07FD  
               ??_ssd_blink 0020                 _timer2_init 0AF0                 ??_sw_action 0074  
    __Umul8_16@multiplicand 0070         __end_of_switch_init 09D3         __end_of_switch_scan 0A98  
     __size_of_ssd_turn_off 000C                ___aldiv@sign 00AA         __size_of_I2C1_Start 0009  
        __end_of_stop_timer 09CC                I2C1_Wr@_data 00A0          __size_of_I2C1_Init 0034  
        __size_of_I2C1_Stop 0009        __Umul8_16@multiplier 0078           __Umul8_16@product 0074  
