

Microchip MPLAB XC8 Assembler V2.10 build 88905656 
                                                                                               Tue Jul 07 21:12:50 2020

Microchip MPLAB XC8 C Compiler v2.10 (Free license) build 20190730164152 Og1 
     1                           	processor	16F877A
     2                           	opt	pw 120
     3                           	opt	flic
     4                           	psect	idataBANK0,global,class=CODE,delta=2
     5                           	psect	cinit,global,class=CODE,merge=1,delta=2
     6                           	psect	bssBANK0,global,class=BANK0,space=1,delta=1
     7                           	psect	dataBANK0,global,class=BANK0,space=1,delta=1
     8                           	psect	bssBANK1,global,class=BANK1,space=1,delta=1
     9                           	psect	clrtext,global,class=CODE,delta=2
    10                           	psect	cstackBANK1,global,class=BANK1,space=1,delta=1
    11                           	psect	cstackCOMMON,global,class=COMMON,space=1,delta=1
    12                           	psect	cstackBANK0,global,class=BANK0,space=1,delta=1
    13                           	psect	maintext,global,class=CODE,split=1,delta=2
    14                           	psect	text1,local,class=CODE,merge=1,delta=2
    15                           	psect	text2,local,class=CODE,merge=1,delta=2
    16                           	psect	text3,local,class=CODE,merge=1,delta=2
    17                           	psect	text4,local,class=CODE,merge=1,delta=2
    18                           	psect	text5,local,class=CODE,merge=1,delta=2
    19                           	psect	text6,local,class=CODE,merge=1,delta=2
    20                           	psect	text7,local,class=CODE,merge=1,delta=2
    21                           	psect	text8,local,class=CODE,merge=1,delta=2
    22                           	psect	text9,local,class=CODE,merge=1,delta=2
    23                           	psect	text10,local,class=CODE,merge=1,delta=2
    24                           	psect	text11,local,class=CODE,merge=1,delta=2
    25                           	psect	text12,local,class=CODE,merge=1,delta=2
    26                           	psect	text13,local,class=CODE,merge=1,delta=2
    27                           	psect	text14,local,class=CODE,merge=1,delta=2
    28                           	psect	text15,local,class=CODE,merge=1,delta=2,group=1
    29                           	psect	text16,local,class=CODE,merge=1,delta=2
    30                           	psect	intentry,global,class=CODE,delta=2
    31                           	psect	text17,local,class=CODE,merge=1,delta=2
    32                           	psect	text18,local,class=CODE,merge=1,delta=2
    33                           	psect	text19,local,class=CODE,merge=1,delta=2
    34                           	psect	text20,local,class=CODE,merge=1,delta=2,group=1
    35                           	psect	text21,local,class=CODE,merge=1,delta=2,group=1
    36                           	psect	text22,local,class=CODE,merge=1,delta=2,group=1
    37                           	psect	text23,local,class=CODE,merge=1,delta=2,group=1
    38                           	psect	text24,local,class=CODE,merge=1,delta=2,group=1
    39                           	psect	text25,local,class=CODE,merge=1,delta=2,group=1
    40                           	psect	text26,local,class=CODE,merge=1,delta=2
    41                           	psect	text27,local,class=CODE,merge=1,delta=2
    42                           	psect	text28,local,class=CODE,merge=1,delta=2
    43                           	psect	text29,local,class=CODE,merge=1,delta=2
    44                           	psect	text30,local,class=CODE,merge=1,delta=2
    45                           	psect	text31,local,class=CODE,merge=1,delta=2
    46                           	psect	text32,local,class=CODE,merge=1,delta=2
    47                           	psect	text33,local,class=CODE,merge=1,delta=2
    48                           	psect	text34,local,class=CODE,merge=1,delta=2
    49                           	psect	text35,local,class=CODE,merge=1,delta=2
    50                           	psect	text36,local,class=CODE,merge=1,delta=2
    51                           	psect	text37,local,class=CODE,merge=1,delta=2
    52                           	psect	text38,local,class=CODE,merge=1,delta=2
    53                           	psect	text39,local,class=CODE,merge=1,delta=2
    54                           	psect	text40,local,class=CODE,merge=1,delta=2,group=1
    55                           	psect	text41,local,class=CODE,merge=1,delta=2,group=1
    56                           	psect	text42,local,class=CODE,merge=1,delta=2
    57                           	psect	text43,local,class=CODE,merge=1,delta=2
    58                           	dabs	1,0x7E,2
    59  0000                     
    60                           ; Version 2.10
    61                           ; Generated 31/07/2019 GMT
    62                           ; 
    63                           ; Copyright © 2019, Microchip Technology Inc. and its subsidiaries ("Microchip")
    64                           ; All rights reserved.
    65                           ; 
    66                           ; This software is developed by Microchip Technology Inc. and its subsidiaries ("Microch
      +                          ip").
    67                           ; 
    68                           ; Redistribution and use in source and binary forms, with or without modification, are
    69                           ; permitted provided that the following conditions are met:
    70                           ; 
    71                           ;     1. Redistributions of source code must retain the above copyright notice, this lis
      +                          t of
    72                           ;        conditions and the following disclaimer.
    73                           ; 
    74                           ;     2. Redistributions in binary form must reproduce the above copyright notice, this 
      +                          list
    75                           ;        of conditions and the following disclaimer in the documentation and/or other
    76                           ;        materials provided with the distribution.
    77                           ; 
    78                           ;     3. Microchip's name may not be used to endorse or promote products derived from th
      +                          is
    79                           ;        software without specific prior written permission.
    80                           ; 
    81                           ; THIS SOFTWARE IS PROVIDED BY MICROCHIP "AS IS" AND ANY EXPRESS OR IMPLIED WARRANTIES,
    82                           ; INCLUDING, BUT NOT LIMITED TO, THE IMPLIED WARRANTIES OF MERCHANTABILITY AND FITNESS F
      +                          OR
    83                           ; PURPOSE ARE DISCLAIMED.  IN NO EVENT SHALL MICROCHIP BE LIABLE FOR ANY DIRECT, INDIREC
      +                          T,
    84                           ; INCIDENTAL, SPECIAL, EXEMPLARY, OR CONSEQUENTIAL DAMAGES (INCLUDING BUT NOT LIMITED TO
    85                           ; PROCUREMENT OF SUBSTITUTE GOODS OR SERVICES; LOSS OF USE, DATA OR PROFITS; OR BUSINESS
    86                           ; INTERRUPTION) HOWSOEVER CAUSED AND ON ANY THEORY OF LIABILITY, WHETHER IN CONTRACT, ST
      +                          RICT
    87                           ; LIABILITY, OR TORT (INCLUDING NEGLIGENCE OR OTHERWISE) ARISING IN ANY WAY OUT OF THE U
      +                          SE OF
    88                           ; THIS SOFTWARE, EVEN IF ADVISED OF THE POSSIBILITY OF SUCH DAMAGE.
    89                           ; 
    90                           ; 
    91                           ; Code-generator required, PIC16F877A Definitions
    92                           ; 
    93                           ; SFR Addresses
    94  0000                     	;# 
    95  0001                     	;# 
    96  0002                     	;# 
    97  0003                     	;# 
    98  0004                     	;# 
    99  0005                     	;# 
   100  0006                     	;# 
   101  0007                     	;# 
   102  0008                     	;# 
   103  0009                     	;# 
   104  000A                     	;# 
   105  000B                     	;# 
   106  000C                     	;# 
   107  000D                     	;# 
   108  000E                     	;# 
   109  000E                     	;# 
   110  000F                     	;# 
   111  0010                     	;# 
   112  0011                     	;# 
   113  0012                     	;# 
   114  0013                     	;# 
   115  0014                     	;# 
   116  0015                     	;# 
   117  0015                     	;# 
   118  0016                     	;# 
   119  0017                     	;# 
   120  0018                     	;# 
   121  0019                     	;# 
   122  001A                     	;# 
   123  001B                     	;# 
   124  001B                     	;# 
   125  001C                     	;# 
   126  001D                     	;# 
   127  001E                     	;# 
   128  001F                     	;# 
   129  0081                     	;# 
   130  0085                     	;# 
   131  0086                     	;# 
   132  0087                     	;# 
   133  0088                     	;# 
   134  0089                     	;# 
   135  008C                     	;# 
   136  008D                     	;# 
   137  008E                     	;# 
   138  0091                     	;# 
   139  0092                     	;# 
   140  0093                     	;# 
   141  0094                     	;# 
   142  0098                     	;# 
   143  0099                     	;# 
   144  009C                     	;# 
   145  009D                     	;# 
   146  009E                     	;# 
   147  009F                     	;# 
   148  010C                     	;# 
   149  010D                     	;# 
   150  010E                     	;# 
   151  010F                     	;# 
   152  018C                     	;# 
   153  018D                     	;# 
   154  0000                     	;# 
   155  0001                     	;# 
   156  0002                     	;# 
   157  0003                     	;# 
   158  0004                     	;# 
   159  0005                     	;# 
   160  0006                     	;# 
   161  0007                     	;# 
   162  0008                     	;# 
   163  0009                     	;# 
   164  000A                     	;# 
   165  000B                     	;# 
   166  000C                     	;# 
   167  000D                     	;# 
   168  000E                     	;# 
   169  000E                     	;# 
   170  000F                     	;# 
   171  0010                     	;# 
   172  0011                     	;# 
   173  0012                     	;# 
   174  0013                     	;# 
   175  0014                     	;# 
   176  0015                     	;# 
   177  0015                     	;# 
   178  0016                     	;# 
   179  0017                     	;# 
   180  0018                     	;# 
   181  0019                     	;# 
   182  001A                     	;# 
   183  001B                     	;# 
   184  001B                     	;# 
   185  001C                     	;# 
   186  001D                     	;# 
   187  001E                     	;# 
   188  001F                     	;# 
   189  0081                     	;# 
   190  0085                     	;# 
   191  0086                     	;# 
   192  0087                     	;# 
   193  0088                     	;# 
   194  0089                     	;# 
   195  008C                     	;# 
   196  008D                     	;# 
   197  008E                     	;# 
   198  0091                     	;# 
   199  0092                     	;# 
   200  0093                     	;# 
   201  0094                     	;# 
   202  0098                     	;# 
   203  0099                     	;# 
   204  009C                     	;# 
   205  009D                     	;# 
   206  009E                     	;# 
   207  009F                     	;# 
   208  010C                     	;# 
   209  010D                     	;# 
   210  010E                     	;# 
   211  010F                     	;# 
   212  018C                     	;# 
   213  018D                     	;# 
   214  0000                     	;# 
   215  0001                     	;# 
   216  0002                     	;# 
   217  0003                     	;# 
   218  0004                     	;# 
   219  0005                     	;# 
   220  0006                     	;# 
   221  0007                     	;# 
   222  0008                     	;# 
   223  0009                     	;# 
   224  000A                     	;# 
   225  000B                     	;# 
   226  000C                     	;# 
   227  000D                     	;# 
   228  000E                     	;# 
   229  000E                     	;# 
   230  000F                     	;# 
   231  0010                     	;# 
   232  0011                     	;# 
   233  0012                     	;# 
   234  0013                     	;# 
   235  0014                     	;# 
   236  0015                     	;# 
   237  0015                     	;# 
   238  0016                     	;# 
   239  0017                     	;# 
   240  0018                     	;# 
   241  0019                     	;# 
   242  001A                     	;# 
   243  001B                     	;# 
   244  001B                     	;# 
   245  001C                     	;# 
   246  001D                     	;# 
   247  001E                     	;# 
   248  001F                     	;# 
   249  0081                     	;# 
   250  0085                     	;# 
   251  0086                     	;# 
   252  0087                     	;# 
   253  0088                     	;# 
   254  0089                     	;# 
   255  008C                     	;# 
   256  008D                     	;# 
   257  008E                     	;# 
   258  0091                     	;# 
   259  0092                     	;# 
   260  0093                     	;# 
   261  0094                     	;# 
   262  0098                     	;# 
   263  0099                     	;# 
   264  009C                     	;# 
   265  009D                     	;# 
   266  009E                     	;# 
   267  009F                     	;# 
   268  010C                     	;# 
   269  010D                     	;# 
   270  010E                     	;# 
   271  010F                     	;# 
   272  018C                     	;# 
   273  018D                     	;# 
   274  0000                     	;# 
   275  0001                     	;# 
   276  0002                     	;# 
   277  0003                     	;# 
   278  0004                     	;# 
   279  0005                     	;# 
   280  0006                     	;# 
   281  0007                     	;# 
   282  0008                     	;# 
   283  0009                     	;# 
   284  000A                     	;# 
   285  000B                     	;# 
   286  000C                     	;# 
   287  000D                     	;# 
   288  000E                     	;# 
   289  000E                     	;# 
   290  000F                     	;# 
   291  0010                     	;# 
   292  0011                     	;# 
   293  0012                     	;# 
   294  0013                     	;# 
   295  0014                     	;# 
   296  0015                     	;# 
   297  0015                     	;# 
   298  0016                     	;# 
   299  0017                     	;# 
   300  0018                     	;# 
   301  0019                     	;# 
   302  001A                     	;# 
   303  001B                     	;# 
   304  001B                     	;# 
   305  001C                     	;# 
   306  001D                     	;# 
   307  001E                     	;# 
   308  001F                     	;# 
   309  0081                     	;# 
   310  0085                     	;# 
   311  0086                     	;# 
   312  0087                     	;# 
   313  0088                     	;# 
   314  0089                     	;# 
   315  008C                     	;# 
   316  008D                     	;# 
   317  008E                     	;# 
   318  0091                     	;# 
   319  0092                     	;# 
   320  0093                     	;# 
   321  0094                     	;# 
   322  0098                     	;# 
   323  0099                     	;# 
   324  009C                     	;# 
   325  009D                     	;# 
   326  009E                     	;# 
   327  009F                     	;# 
   328  010C                     	;# 
   329  010D                     	;# 
   330  010E                     	;# 
   331  010F                     	;# 
   332  018C                     	;# 
   333  018D                     	;# 
   334  0000                     	;# 
   335  0001                     	;# 
   336  0002                     	;# 
   337  0003                     	;# 
   338  0004                     	;# 
   339  0005                     	;# 
   340  0006                     	;# 
   341  0007                     	;# 
   342  0008                     	;# 
   343  0009                     	;# 
   344  000A                     	;# 
   345  000B                     	;# 
   346  000C                     	;# 
   347  000D                     	;# 
   348  000E                     	;# 
   349  000E                     	;# 
   350  000F                     	;# 
   351  0010                     	;# 
   352  0011                     	;# 
   353  0012                     	;# 
   354  0013                     	;# 
   355  0014                     	;# 
   356  0015                     	;# 
   357  0015                     	;# 
   358  0016                     	;# 
   359  0017                     	;# 
   360  0018                     	;# 
   361  0019                     	;# 
   362  001A                     	;# 
   363  001B                     	;# 
   364  001B                     	;# 
   365  001C                     	;# 
   366  001D                     	;# 
   367  001E                     	;# 
   368  001F                     	;# 
   369  0081                     	;# 
   370  0085                     	;# 
   371  0086                     	;# 
   372  0087                     	;# 
   373  0088                     	;# 
   374  0089                     	;# 
   375  008C                     	;# 
   376  008D                     	;# 
   377  008E                     	;# 
   378  0091                     	;# 
   379  0092                     	;# 
   380  0093                     	;# 
   381  0094                     	;# 
   382  0098                     	;# 
   383  0099                     	;# 
   384  009C                     	;# 
   385  009D                     	;# 
   386  009E                     	;# 
   387  009F                     	;# 
   388  010C                     	;# 
   389  010D                     	;# 
   390  010E                     	;# 
   391  010F                     	;# 
   392  018C                     	;# 
   393  018D                     	;# 
   394  0000                     	;# 
   395  0001                     	;# 
   396  0002                     	;# 
   397  0003                     	;# 
   398  0004                     	;# 
   399  0005                     	;# 
   400  0006                     	;# 
   401  0007                     	;# 
   402  0008                     	;# 
   403  0009                     	;# 
   404  000A                     	;# 
   405  000B                     	;# 
   406  000C                     	;# 
   407  000D                     	;# 
   408  000E                     	;# 
   409  000E                     	;# 
   410  000F                     	;# 
   411  0010                     	;# 
   412  0011                     	;# 
   413  0012                     	;# 
   414  0013                     	;# 
   415  0014                     	;# 
   416  0015                     	;# 
   417  0015                     	;# 
   418  0016                     	;# 
   419  0017                     	;# 
   420  0018                     	;# 
   421  0019                     	;# 
   422  001A                     	;# 
   423  001B                     	;# 
   424  001B                     	;# 
   425  001C                     	;# 
   426  001D                     	;# 
   427  001E                     	;# 
   428  001F                     	;# 
   429  0081                     	;# 
   430  0085                     	;# 
   431  0086                     	;# 
   432  0087                     	;# 
   433  0088                     	;# 
   434  0089                     	;# 
   435  008C                     	;# 
   436  008D                     	;# 
   437  008E                     	;# 
   438  0091                     	;# 
   439  0092                     	;# 
   440  0093                     	;# 
   441  0094                     	;# 
   442  0098                     	;# 
   443  0099                     	;# 
   444  009C                     	;# 
   445  009D                     	;# 
   446  009E                     	;# 
   447  009F                     	;# 
   448  010C                     	;# 
   449  010D                     	;# 
   450  010E                     	;# 
   451  010F                     	;# 
   452  018C                     	;# 
   453  018D                     	;# 
   454  0000                     	;# 
   455  0001                     	;# 
   456  0002                     	;# 
   457  0003                     	;# 
   458  0004                     	;# 
   459  0005                     	;# 
   460  0006                     	;# 
   461  0007                     	;# 
   462  0008                     	;# 
   463  0009                     	;# 
   464  000A                     	;# 
   465  000B                     	;# 
   466  000C                     	;# 
   467  000D                     	;# 
   468  000E                     	;# 
   469  000E                     	;# 
   470  000F                     	;# 
   471  0010                     	;# 
   472  0011                     	;# 
   473  0012                     	;# 
   474  0013                     	;# 
   475  0014                     	;# 
   476  0015                     	;# 
   477  0015                     	;# 
   478  0016                     	;# 
   479  0017                     	;# 
   480  0018                     	;# 
   481  0019                     	;# 
   482  001A                     	;# 
   483  001B                     	;# 
   484  001B                     	;# 
   485  001C                     	;# 
   486  001D                     	;# 
   487  001E                     	;# 
   488  001F                     	;# 
   489  0081                     	;# 
   490  0085                     	;# 
   491  0086                     	;# 
   492  0087                     	;# 
   493  0088                     	;# 
   494  0089                     	;# 
   495  008C                     	;# 
   496  008D                     	;# 
   497  008E                     	;# 
   498  0091                     	;# 
   499  0092                     	;# 
   500  0093                     	;# 
   501  0094                     	;# 
   502  0098                     	;# 
   503  0099                     	;# 
   504  009C                     	;# 
   505  009D                     	;# 
   506  009E                     	;# 
   507  009F                     	;# 
   508  010C                     	;# 
   509  010D                     	;# 
   510  010E                     	;# 
   511  010F                     	;# 
   512  018C                     	;# 
   513  018D                     	;# 
   514  0000                     	;# 
   515  0001                     	;# 
   516  0002                     	;# 
   517  0003                     	;# 
   518  0004                     	;# 
   519  0005                     	;# 
   520  0006                     	;# 
   521  0007                     	;# 
   522  0008                     	;# 
   523  0009                     	;# 
   524  000A                     	;# 
   525  000B                     	;# 
   526  000C                     	;# 
   527  000D                     	;# 
   528  000E                     	;# 
   529  000E                     	;# 
   530  000F                     	;# 
   531  0010                     	;# 
   532  0011                     	;# 
   533  0012                     	;# 
   534  0013                     	;# 
   535  0014                     	;# 
   536  0015                     	;# 
   537  0015                     	;# 
   538  0016                     	;# 
   539  0017                     	;# 
   540  0018                     	;# 
   541  0019                     	;# 
   542  001A                     	;# 
   543  001B                     	;# 
   544  001B                     	;# 
   545  001C                     	;# 
   546  001D                     	;# 
   547  001E                     	;# 
   548  001F                     	;# 
   549  0081                     	;# 
   550  0085                     	;# 
   551  0086                     	;# 
   552  0087                     	;# 
   553  0088                     	;# 
   554  0089                     	;# 
   555  008C                     	;# 
   556  008D                     	;# 
   557  008E                     	;# 
   558  0091                     	;# 
   559  0092                     	;# 
   560  0093                     	;# 
   561  0094                     	;# 
   562  0098                     	;# 
   563  0099                     	;# 
   564  009C                     	;# 
   565  009D                     	;# 
   566  009E                     	;# 
   567  009F                     	;# 
   568  010C                     	;# 
   569  010D                     	;# 
   570  010E                     	;# 
   571  010F                     	;# 
   572  018C                     	;# 
   573  018D                     	;# 
   574  0000                     	;# 
   575  0001                     	;# 
   576  0002                     	;# 
   577  0003                     	;# 
   578  0004                     	;# 
   579  0005                     	;# 
   580  0006                     	;# 
   581  0007                     	;# 
   582  0008                     	;# 
   583  0009                     	;# 
   584  000A                     	;# 
   585  000B                     	;# 
   586  000C                     	;# 
   587  000D                     	;# 
   588  000E                     	;# 
   589  000E                     	;# 
   590  000F                     	;# 
   591  0010                     	;# 
   592  0011                     	;# 
   593  0012                     	;# 
   594  0013                     	;# 
   595  0014                     	;# 
   596  0015                     	;# 
   597  0015                     	;# 
   598  0016                     	;# 
   599  0017                     	;# 
   600  0018                     	;# 
   601  0019                     	;# 
   602  001A                     	;# 
   603  001B                     	;# 
   604  001B                     	;# 
   605  001C                     	;# 
   606  001D                     	;# 
   607  001E                     	;# 
   608  001F                     	;# 
   609  0081                     	;# 
   610  0085                     	;# 
   611  0086                     	;# 
   612  0087                     	;# 
   613  0088                     	;# 
   614  0089                     	;# 
   615  008C                     	;# 
   616  008D                     	;# 
   617  008E                     	;# 
   618  0091                     	;# 
   619  0092                     	;# 
   620  0093                     	;# 
   621  0094                     	;# 
   622  0098                     	;# 
   623  0099                     	;# 
   624  009C                     	;# 
   625  009D                     	;# 
   626  009E                     	;# 
   627  009F                     	;# 
   628  010C                     	;# 
   629  010D                     	;# 
   630  010E                     	;# 
   631  010F                     	;# 
   632  018C                     	;# 
   633  018D                     	;# 
   634  0000                     	;# 
   635  0001                     	;# 
   636  0002                     	;# 
   637  0003                     	;# 
   638  0004                     	;# 
   639  0005                     	;# 
   640  0006                     	;# 
   641  0007                     	;# 
   642  0008                     	;# 
   643  0009                     	;# 
   644  000A                     	;# 
   645  000B                     	;# 
   646  000C                     	;# 
   647  000D                     	;# 
   648  000E                     	;# 
   649  000E                     	;# 
   650  000F                     	;# 
   651  0010                     	;# 
   652  0011                     	;# 
   653  0012                     	;# 
   654  0013                     	;# 
   655  0014                     	;# 
   656  0015                     	;# 
   657  0015                     	;# 
   658  0016                     	;# 
   659  0017                     	;# 
   660  0018                     	;# 
   661  0019                     	;# 
   662  001A                     	;# 
   663  001B                     	;# 
   664  001B                     	;# 
   665  001C                     	;# 
   666  001D                     	;# 
   667  001E                     	;# 
   668  001F                     	;# 
   669  0081                     	;# 
   670  0085                     	;# 
   671  0086                     	;# 
   672  0087                     	;# 
   673  0088                     	;# 
   674  0089                     	;# 
   675  008C                     	;# 
   676  008D                     	;# 
   677  008E                     	;# 
   678  0091                     	;# 
   679  0092                     	;# 
   680  0093                     	;# 
   681  0094                     	;# 
   682  0098                     	;# 
   683  0099                     	;# 
   684  009C                     	;# 
   685  009D                     	;# 
   686  009E                     	;# 
   687  009F                     	;# 
   688  010C                     	;# 
   689  010D                     	;# 
   690  010E                     	;# 
   691  010F                     	;# 
   692  018C                     	;# 
   693  018D                     	;# 
   694                           
   695                           	psect	idataBANK0
   696  09E1                     __pidataBANK0:	
   697                           
   698                           ;initializer for _down_sw
   699  09E1  3401               	retlw	1
   700                           
   701                           ;initializer for _up_sw
   702  09E2  3401               	retlw	1
   703  0012                     _T2CON	set	18
   704  0007                     _PORTC	set	7
   705  0006                     _PORTB	set	6
   706  0005                     _PORTA	set	5
   707  0008                     _PORTD	set	8
   708  0013                     _SSPBUF	set	19
   709  0014                     _SSPCON	set	20
   710  001E                     _ADRESH	set	30
   711  001F                     _ADCON0	set	31
   712  000B                     _INTCON	set	11
   713  000C                     _PIR1	set	12
   714  0011                     _TMR2	set	17
   715  0063                     _SSPIF	set	99
   716  008C                     _PIE1	set	140
   717  0086                     _TRISB	set	134
   718  0085                     _TRISA	set	133
   719  0088                     _TRISD	set	136
   720  0087                     _TRISC	set	135
   721  0093                     _SSPADD	set	147
   722  0091                     _SSPCON2	set	145
   723  0094                     _SSPSTAT	set	148
   724  009E                     _ADRESL	set	158
   725  009F                     _ADCON1	set	159
   726                           
   727                           ; #config settings
   728  0000                     
   729                           	psect	cinit
   730  0015                     start_initialization:	
   731  0015                     __initialization:	
   732                           
   733                           ; Initialize objects allocated to BANK0
   734  0015  120A  158A  21E1  120A  118A  	fcall	__pidataBANK0	;fetch initializer
   735  001A  00EA               	movwf	__pdataBANK0& (0+127)
   736  001B  120A  158A  21E2  120A  118A  	fcall	__pidataBANK0+1	;fetch initializer
   737  0020  00EB               	movwf	(__pdataBANK0+1)& (0+127)
   738                           
   739                           ; Clear objects allocated to BANK1
   740  0021  1383               	bcf	3,7	;select IRP bank0
   741  0022  30B7               	movlw	low __pbssBANK1
   742  0023  0084               	movwf	4
   743  0024  30CB               	movlw	low (__pbssBANK1+20)
   744  0025  120A  158A  21F7  120A  118A  	fcall	clear_ram0
   745                           
   746                           ; Clear objects allocated to BANK0
   747  002A  3056               	movlw	low __pbssBANK0
   748  002B  0084               	movwf	4
   749  002C  306A               	movlw	low (__pbssBANK0+20)
   750  002D  120A  158A  21F7  120A  118A  	fcall	clear_ram0
   751  0032                     end_of_initialization:	
   752                           ;End of C runtime variable initialization code
   753                           
   754  0032                     __end_of__initialization:	
   755  0032  0183               	clrf	3
   756  0033  120A  158A  2CFE   	ljmp	_main	;jump to C main() function
   757                           
   758                           	psect	bssBANK0
   759  0056                     __pbssBANK0:	
   760  0056                     _led_timer:	
   761  0056                     	ds	2
   762  0058                     _ssd_timer:	
   763  0058                     	ds	2
   764  005A                     _switch_wait:	
   765  005A                     	ds	2
   766  005C                     _temp:	
   767  005C                     	ds	1
   768  005D                     _i:	
   769  005D                     	ds	1
   770  005E                     _state:	
   771  005E                     	ds	1
   772  005F                     _blink:	
   773  005F                     	ds	1
   774  0060                     _ssd_select:	
   775  0060                     	ds	1
   776  0061                     _ones:	
   777  0061                     	ds	1
   778  0062                     _tens:	
   779  0062                     	ds	1
   780  0063                     _power_mode:	
   781  0063                     	ds	1
   782  0064                     _mode:	
   783  0064                     	ds	1
   784  0065                     _hold_temp:	
   785  0065                     	ds	1
   786  0066                     _set_temp:	
   787  0066                     	ds	1
   788  0067                     _switch_delay:	
   789  0067                     	ds	1
   790  0068                     _ssd_delay:	
   791  0068                     	ds	1
   792  0069                     _temp_timer:	
   793  0069                     	ds	1
   794                           
   795                           	psect	dataBANK0
   796  006A                     __pdataBANK0:	
   797  006A                     _down_sw:	
   798  006A                     	ds	1
   799  006B                     _up_sw:	
   800  006B                     	ds	1
   801                           
   802                           	psect	bssBANK1
   803  00B7                     __pbssBANK1:	
   804  00B7                     _temp_hold_array:	
   805  00B7                     	ds	20
   806                           
   807                           	psect	clrtext
   808  09F7                     clear_ram0:	
   809                           ;	Called with FSR containing the base address, and
   810                           ;	W with the last address+1
   811                           
   812  09F7  0064               	clrwdt	;clear the watchdog before getting into this loop
   813  09F8                     clrloop0:	
   814  09F8  0180               	clrf	0	;clear RAM location pointed to by FSR
   815  09F9  0A84               	incf	4,f	;increment pointer
   816  09FA  0604               	xorwf	4,w	;XOR with final address
   817  09FB  1903               	btfsc	3,2	;have we reached the end yet?
   818  09FC  3400               	retlw	0	;all done for this memory range, return
   819  09FD  0604               	xorwf	4,w	;XOR again to restore value
   820  09FE  29F8               	goto	clrloop0	;do the next byte
   821                           
   822                           	psect	cstackBANK1
   823  00A0                     __pcstackBANK1:	
   824  00A0                     ??_temp_control_init:	
   825  00A0                     ??_switch_init:	
   826                           ; 1 bytes @ 0x0
   827                           
   828  00A0                     ??_ssd_init:	
   829                           ; 1 bytes @ 0x0
   830                           
   831  00A0                     ??_timer2_init:	
   832                           ; 1 bytes @ 0x0
   833                           
   834  00A0                     ??_ADC_Init:	
   835                           ; 1 bytes @ 0x0
   836                           
   837  00A0                     ??_I2C_Wait:	
   838                           ; 1 bytes @ 0x0
   839                           
   840  00A0                     ??_I2C1_Start:	
   841                           ; 1 bytes @ 0x0
   842                           
   843  00A0                     ??_I2C1_Stop:	
   844                           ; 1 bytes @ 0x0
   845                           
   846  00A0                     ??_I2C1_Wr:	
   847                           ; 1 bytes @ 0x0
   848                           
   849  00A0                     ??_I2C1_Rd:	
   850                           ; 1 bytes @ 0x0
   851                           
   852  00A0                     ?___lldiv:	
   853                           ; 1 bytes @ 0x0
   854                           
   855  00A0                     I2C1_Wr@_data:	
   856                           ; 4 bytes @ 0x0
   857                           
   858  00A0                     ___lldiv@divisor:	
   859                           ; 1 bytes @ 0x0
   860                           
   861                           
   862                           ; 4 bytes @ 0x0
   863  00A0                     	ds	1
   864  00A1                     ??_temp_sensor_init:	
   865  00A1                     ?_EEPROM_read:	
   866                           ; 1 bytes @ 0x1
   867                           
   868  00A1                     EEPROM_read@address:	
   869                           ; 1 bytes @ 0x1
   870                           
   871                           
   872                           ; 2 bytes @ 0x1
   873  00A1                     	ds	2
   874  00A3                     ??_EEPROM_read:	
   875                           
   876                           ; 1 bytes @ 0x3
   877  00A3                     	ds	1
   878  00A4                     EEPROM_read@_x:	
   879  00A4                     ___lldiv@dividend:	
   880                           ; 1 bytes @ 0x4
   881                           
   882                           
   883                           ; 4 bytes @ 0x4
   884  00A4                     	ds	4
   885  00A8                     ??___lldiv:	
   886                           
   887                           ; 1 bytes @ 0x8
   888  00A8                     	ds	1
   889  00A9                     ___lldiv@quotient:	
   890                           
   891                           ; 4 bytes @ 0x9
   892  00A9                     	ds	4
   893  00AD                     ___lldiv@counter:	
   894                           
   895                           ; 1 bytes @ 0xD
   896  00AD                     	ds	1
   897  00AE                     ?_I2C1_Init:	
   898  00AE                     I2C1_Init@freq:	
   899                           ; 1 bytes @ 0xE
   900                           
   901                           
   902                           ; 4 bytes @ 0xE
   903  00AE                     	ds	4
   904  00B2                     ??_I2C1_Init:	
   905                           
   906                           ; 1 bytes @ 0x12
   907  00B2                     	ds	4
   908  00B6                     ??_EEPROM_init:	
   909  00B6                     ??_main:	
   910                           ; 1 bytes @ 0x16
   911                           
   912                           
   913                           ; 1 bytes @ 0x16
   914  00B6                     	ds	1
   915                           
   916                           	psect	cstackCOMMON
   917  0070                     __pcstackCOMMON:	
   918  0070                     ?_temp_sensor_read:	
   919  0070                     ?_ssd_update:	
   920                           ; 1 bytes @ 0x0
   921                           
   922  0070                     ?_temp_set:	
   923                           ; 1 bytes @ 0x0
   924                           
   925  0070                     ??_temp_set:	
   926                           ; 1 bytes @ 0x0
   927                           
   928  0070                     ?_led:	
   929                           ; 1 bytes @ 0x0
   930                           
   931  0070                     ??_led:	
   932                           ; 1 bytes @ 0x0
   933                           
   934  0070                     ?_switch_scan:	
   935                           ; 1 bytes @ 0x0
   936                           
   937  0070                     ??_switch_scan:	
   938                           ; 1 bytes @ 0x0
   939                           
   940  0070                     ?_sw_action:	
   941                           ; 1 bytes @ 0x0
   942                           
   943  0070                     ?_ssd_blink:	
   944                           ; 1 bytes @ 0x0
   945                           
   946  0070                     ?_stop_timer:	
   947                           ; 1 bytes @ 0x0
   948                           
   949  0070                     ??_stop_timer:	
   950                           ; 1 bytes @ 0x0
   951                           
   952  0070                     ?_ssd_turn_off:	
   953                           ; 1 bytes @ 0x0
   954                           
   955  0070                     ??_ssd_turn_off:	
   956                           ; 1 bytes @ 0x0
   957                           
   958  0070                     ?_temp_control_off:	
   959                           ; 1 bytes @ 0x0
   960                           
   961  0070                     ??_temp_control_off:	
   962                           ; 1 bytes @ 0x0
   963                           
   964  0070                     ?_start_timer:	
   965                           ; 1 bytes @ 0x0
   966                           
   967  0070                     ??_start_timer:	
   968                           ; 1 bytes @ 0x0
   969                           
   970  0070                     ?_temp_sensor_init:	
   971                           ; 1 bytes @ 0x0
   972                           
   973  0070                     ?_temp_control_init:	
   974                           ; 1 bytes @ 0x0
   975                           
   976  0070                     ?_switch_init:	
   977                           ; 1 bytes @ 0x0
   978                           
   979  0070                     ?_ssd_init:	
   980                           ; 1 bytes @ 0x0
   981                           
   982  0070                     ?_EEPROM_init:	
   983                           ; 1 bytes @ 0x0
   984                           
   985  0070                     ?_timer2_init:	
   986                           ; 1 bytes @ 0x0
   987                           
   988  0070                     ?_isr:	
   989                           ; 1 bytes @ 0x0
   990                           
   991  0070                     ?_main:	
   992                           ; 1 bytes @ 0x0
   993                           
   994  0070                     ?_ADC_Init:	
   995                           ; 1 bytes @ 0x0
   996                           
   997  0070                     ?_I2C_Wait:	
   998                           ; 1 bytes @ 0x0
   999                           
  1000  0070                     ?_I2C1_Start:	
  1001                           ; 1 bytes @ 0x0
  1002                           
  1003  0070                     ?_I2C1_Stop:	
  1004                           ; 1 bytes @ 0x0
  1005                           
  1006  0070                     ?_I2C1_Wr:	
  1007                           ; 1 bytes @ 0x0
  1008                           
  1009  0070                     ?_I2C1_Rd:	
  1010                           ; 1 bytes @ 0x0
  1011                           
  1012  0070                     ?_display7s:	
  1013                           ; 1 bytes @ 0x0
  1014                           
  1015  0070                     ??_display7s:	
  1016                           ; 1 bytes @ 0x0
  1017                           
  1018  0070                     ?_average:	
  1019                           ; 1 bytes @ 0x0
  1020                           
  1021  0070                     ?i1_I2C_Wait:	
  1022                           ; 1 bytes @ 0x0
  1023                           
  1024  0070                     ??i1_I2C_Wait:	
  1025                           ; 1 bytes @ 0x0
  1026                           
  1027  0070                     ?i1_I2C1_Start:	
  1028                           ; 1 bytes @ 0x0
  1029                           
  1030  0070                     ??i1_I2C1_Start:	
  1031                           ; 1 bytes @ 0x0
  1032                           
  1033  0070                     ?i1_I2C1_Stop:	
  1034                           ; 1 bytes @ 0x0
  1035                           
  1036  0070                     ??i1_I2C1_Stop:	
  1037                           ; 1 bytes @ 0x0
  1038                           
  1039  0070                     ?i1_I2C1_Wr:	
  1040                           ; 1 bytes @ 0x0
  1041                           
  1042  0070                     ??i1_I2C1_Wr:	
  1043                           ; 1 bytes @ 0x0
  1044                           
  1045  0070                     ?__Umul8_16:	
  1046                           ; 1 bytes @ 0x0
  1047                           
  1048  0070                     ?_ADC_Read:	
  1049                           ; 2 bytes @ 0x0
  1050                           
  1051  0070                     ?___awdiv:	
  1052                           ; 2 bytes @ 0x0
  1053                           
  1054  0070                     ?___awmod:	
  1055                           ; 2 bytes @ 0x0
  1056                           
  1057  0070                     ?___lwdiv:	
  1058                           ; 2 bytes @ 0x0
  1059                           
  1060  0070                     __Umul8_16@multiplicand:	
  1061                           ; 2 bytes @ 0x0
  1062                           
  1063  0070                     i1I2C1_Wr@_data:	
  1064                           ; 1 bytes @ 0x0
  1065                           
  1066  0070                     ___awdiv@divisor:	
  1067                           ; 1 bytes @ 0x0
  1068                           
  1069  0070                     ___awmod@divisor:	
  1070                           ; 2 bytes @ 0x0
  1071                           
  1072  0070                     ___lwdiv@divisor:	
  1073                           ; 2 bytes @ 0x0
  1074                           
  1075                           
  1076                           ; 2 bytes @ 0x0
  1077  0070                     	ds	1
  1078  0071                     ?_EEPROM_write:	
  1079  0071                     EEPROM_write@address:	
  1080                           ; 1 bytes @ 0x1
  1081                           
  1082                           
  1083                           ; 2 bytes @ 0x1
  1084  0071                     	ds	1
  1085  0072                     ??__Umul8_16:	
  1086  0072                     ??_ADC_Read:	
  1087                           ; 1 bytes @ 0x2
  1088                           
  1089  0072                     display7s@v:	
  1090                           ; 1 bytes @ 0x2
  1091                           
  1092  0072                     ___awdiv@dividend:	
  1093                           ; 1 bytes @ 0x2
  1094                           
  1095  0072                     ___awmod@dividend:	
  1096                           ; 2 bytes @ 0x2
  1097                           
  1098  0072                     ___lwdiv@dividend:	
  1099                           ; 2 bytes @ 0x2
  1100                           
  1101                           
  1102                           ; 2 bytes @ 0x2
  1103  0072                     	ds	1
  1104  0073                     EEPROM_write@_x:	
  1105  0073                     temp_set@temp:	
  1106                           ; 1 bytes @ 0x3
  1107                           
  1108                           
  1109                           ; 1 bytes @ 0x3
  1110  0073                     	ds	1
  1111  0074                     ??_sw_action:	
  1112  0074                     ??_EEPROM_write:	
  1113                           ; 1 bytes @ 0x4
  1114                           
  1115  0074                     ??___awdiv:	
  1116                           ; 1 bytes @ 0x4
  1117                           
  1118  0074                     ??___awmod:	
  1119                           ; 1 bytes @ 0x4
  1120                           
  1121  0074                     ??___lwdiv:	
  1122                           ; 1 bytes @ 0x4
  1123                           
  1124  0074                     ADC_Read@channel:	
  1125                           ; 1 bytes @ 0x4
  1126                           
  1127  0074                     __Umul8_16@product:	
  1128                           ; 1 bytes @ 0x4
  1129                           
  1130                           
  1131                           ; 2 bytes @ 0x4
  1132  0074                     	ds	1
  1133  0075                     ?___xxtofl:	
  1134  0075                     ___awdiv@counter:	
  1135                           ; 4 bytes @ 0x5
  1136                           
  1137  0075                     ___awmod@counter:	
  1138                           ; 1 bytes @ 0x5
  1139                           
  1140  0075                     ___lwdiv@quotient:	
  1141                           ; 1 bytes @ 0x5
  1142                           
  1143  0075                     ___xxtofl@val:	
  1144                           ; 2 bytes @ 0x5
  1145                           
  1146                           
  1147                           ; 4 bytes @ 0x5
  1148  0075                     	ds	1
  1149  0076                     ___awdiv@sign:	
  1150  0076                     ___awmod@sign:	
  1151                           ; 1 bytes @ 0x6
  1152                           
  1153  0076                     __Umul8_16@word_mpld:	
  1154                           ; 1 bytes @ 0x6
  1155                           
  1156                           
  1157                           ; 2 bytes @ 0x6
  1158  0076                     	ds	1
  1159  0077                     ___lwdiv@counter:	
  1160  0077                     ___awdiv@quotient:	
  1161                           ; 1 bytes @ 0x7
  1162                           
  1163                           
  1164                           ; 2 bytes @ 0x7
  1165  0077                     	ds	1
  1166  0078                     ??_average:	
  1167  0078                     __Umul8_16@multiplier:	
  1168                           ; 1 bytes @ 0x8
  1169                           
  1170                           
  1171                           ; 1 bytes @ 0x8
  1172  0078                     	ds	1
  1173  0079                     ??_ssd_update:	
  1174  0079                     ??___xxtofl:	
  1175                           ; 1 bytes @ 0x9
  1176                           
  1177                           
  1178                           ; 1 bytes @ 0x9
  1179  0079                     	ds	2
  1180  007B                     average@sum:	
  1181                           
  1182                           ; 2 bytes @ 0xB
  1183  007B                     	ds	1
  1184  007C                     ssd_update@temp:	
  1185                           
  1186                           ; 1 bytes @ 0xC
  1187  007C                     	ds	1
  1188  007D                     ssd_blink@e_temp:	
  1189  007D                     average@i:	
  1190                           ; 1 bytes @ 0xD
  1191                           
  1192                           
  1193                           ; 1 bytes @ 0xD
  1194  007D                     	ds	1
  1195                           
  1196                           	psect	cstackBANK0
  1197  0020                     __pcstackBANK0:	
  1198  0020                     ??_ssd_blink:	
  1199  0020                     ___xxtofl@sign:	
  1200                           ; 1 bytes @ 0x0
  1201                           
  1202                           
  1203                           ; 1 bytes @ 0x0
  1204  0020                     	ds	1
  1205  0021                     ___xxtofl@exp:	
  1206                           
  1207                           ; 1 bytes @ 0x1
  1208  0021                     	ds	1
  1209  0022                     ___xxtofl@arg:	
  1210                           
  1211                           ; 4 bytes @ 0x2
  1212  0022                     	ds	4
  1213  0026                     ?___fldiv:	
  1214  0026                     ?___flmul:	
  1215                           ; 4 bytes @ 0x6
  1216                           
  1217  0026                     ___fldiv@a:	
  1218                           ; 4 bytes @ 0x6
  1219                           
  1220  0026                     ___flmul@b:	
  1221                           ; 4 bytes @ 0x6
  1222                           
  1223                           
  1224                           ; 4 bytes @ 0x6
  1225  0026                     	ds	4
  1226  002A                     ___fldiv@b:	
  1227  002A                     ___flmul@a:	
  1228                           ; 4 bytes @ 0xA
  1229                           
  1230                           
  1231                           ; 4 bytes @ 0xA
  1232  002A                     	ds	4
  1233  002E                     ??___fldiv:	
  1234  002E                     ??___flmul:	
  1235                           ; 1 bytes @ 0xE
  1236                           
  1237                           
  1238                           ; 1 bytes @ 0xE
  1239  002E                     	ds	5
  1240  0033                     ___flmul@sign:	
  1241  0033                     ___fldiv@rem:	
  1242                           ; 1 bytes @ 0x13
  1243                           
  1244                           
  1245                           ; 4 bytes @ 0x13
  1246  0033                     	ds	1
  1247  0034                     ___flmul@grs:	
  1248                           
  1249                           ; 4 bytes @ 0x14
  1250  0034                     	ds	3
  1251  0037                     ___fldiv@sign:	
  1252                           
  1253                           ; 1 bytes @ 0x17
  1254  0037                     	ds	1
  1255  0038                     ___flmul@aexp:	
  1256  0038                     ___fldiv@new_exp:	
  1257                           ; 1 bytes @ 0x18
  1258                           
  1259                           
  1260                           ; 2 bytes @ 0x18
  1261  0038                     	ds	1
  1262  0039                     ___flmul@bexp:	
  1263                           
  1264                           ; 1 bytes @ 0x19
  1265  0039                     	ds	1
  1266  003A                     ___fldiv@grs:	
  1267  003A                     ___flmul@prod:	
  1268                           ; 4 bytes @ 0x1A
  1269                           
  1270                           
  1271                           ; 4 bytes @ 0x1A
  1272  003A                     	ds	4
  1273  003E                     ___fldiv@bexp:	
  1274  003E                     ___flmul@temp:	
  1275                           ; 1 bytes @ 0x1E
  1276                           
  1277                           
  1278                           ; 2 bytes @ 0x1E
  1279  003E                     	ds	1
  1280  003F                     ___fldiv@aexp:	
  1281                           
  1282                           ; 1 bytes @ 0x1F
  1283  003F                     	ds	1
  1284  0040                     ?___fltol:	
  1285  0040                     ___fltol@f1:	
  1286                           ; 4 bytes @ 0x20
  1287                           
  1288                           
  1289                           ; 4 bytes @ 0x20
  1290  0040                     	ds	4
  1291  0044                     ??___fltol:	
  1292                           
  1293                           ; 1 bytes @ 0x24
  1294  0044                     	ds	5
  1295  0049                     ___fltol@sign1:	
  1296                           
  1297                           ; 1 bytes @ 0x29
  1298  0049                     	ds	1
  1299  004A                     ___fltol@exp1:	
  1300                           
  1301                           ; 1 bytes @ 0x2A
  1302  004A                     	ds	1
  1303  004B                     ??_temp_sensor_read:	
  1304                           
  1305                           ; 1 bytes @ 0x2B
  1306  004B                     	ds	5
  1307  0050                     ??_isr:	
  1308                           
  1309                           ; 1 bytes @ 0x30
  1310  0050                     	ds	6
  1311                           
  1312                           	psect	maintext
  1313  0CFE                     __pmaintext:	
  1314 ;;
  1315 ;;Main: autosize = 0, tempsize = 1, incstack = 0, save=0
  1316 ;;
  1317 ;; *************** function _main *****************
  1318 ;; Defined at:
  1319 ;;		line 124 in file "main_app.c"
  1320 ;; Parameters:    Size  Location     Type
  1321 ;;		None
  1322 ;; Auto vars:     Size  Location     Type
  1323 ;;		None
  1324 ;; Return value:  Size  Location     Type
  1325 ;;                  1    wreg      void 
  1326 ;; Registers used:
  1327 ;;		wreg, status,2, status,0, pclath, cstack
  1328 ;; Tracked objects:
  1329 ;;		On entry : B00/0
  1330 ;;		On exit  : 0/0
  1331 ;;		Unchanged: 0/0
  1332 ;; Data sizes:     COMMON   BANK0   BANK1   BANK3   BANK2
  1333 ;;      Params:         0       0       0       0       0
  1334 ;;      Locals:         0       0       0       0       0
  1335 ;;      Temps:          0       0       1       0       0
  1336 ;;      Totals:         0       0       1       0       0
  1337 ;;Total ram usage:        1 bytes
  1338 ;; Hardware stack levels required when called:    8
  1339 ;; This function calls:
  1340 ;;		_EEPROM_init
  1341 ;;		_EEPROM_read
  1342 ;;		_ssd_init
  1343 ;;		_switch_init
  1344 ;;		_temp_control_init
  1345 ;;		_temp_sensor_init
  1346 ;;		_timer2_init
  1347 ;; This function is called by:
  1348 ;;		Startup code after reset
  1349 ;; This function uses a non-reentrant model
  1350 ;;
  1351                           
  1352                           
  1353                           ;psect for function _main
  1354  0CFE                     _main:	
  1355  0CFE                     l3148:	
  1356                           ;incstack = 0
  1357                           ; Regs used in _main: [wreg+status,2+status,0+pclath+cstack]
  1358                           
  1359                           
  1360                           ;main_app.c: 126:     temp_sensor_init();
  1361  0CFE  120A  158A  2223  120A  158A  	fcall	_temp_sensor_init
  1362                           
  1363                           ;main_app.c: 127:     temp_control_init();
  1364  0D03  120A  158A  233B  120A  158A  	fcall	_temp_control_init
  1365  0D08                     l3150:	
  1366                           
  1367                           ;main_app.c: 128:     switch_init();
  1368  0D08  120A  158A  21F0  120A  158A  	fcall	_switch_init
  1369  0D0D                     l3152:	
  1370                           
  1371                           ;main_app.c: 129:     ssd_init();
  1372  0D0D  120A  158A  22F8  120A  158A  	fcall	_ssd_init
  1373  0D12                     l3154:	
  1374                           
  1375                           ;main_app.c: 130:     EEPROM_init();
  1376  0D12  120A  158A  2271  120A  158A  	fcall	_EEPROM_init
  1377  0D17                     l3156:	
  1378                           
  1379                           ;main_app.c: 133:     if (EEPROM_read(0xff) > 100){
  1380  0D17  30FF               	movlw	255
  1381  0D18  1683               	bsf	3,5	;RP0=1, select bank1
  1382  0D19  1303               	bcf	3,6	;RP1=0, select bank1
  1383  0D1A  00A1               	movwf	EEPROM_read@address^(0+128)
  1384  0D1B  3000               	movlw	0
  1385  0D1C  00A2               	movwf	(EEPROM_read@address^(0+128)+1)
  1386  0D1D  120A  158A  23DF  120A  158A  	fcall	_EEPROM_read
  1387  0D22  1683               	bsf	3,5	;RP0=1, select bank1
  1388  0D23  1303               	bcf	3,6	;RP1=0, select bank1
  1389  0D24  00B6               	movwf	??_main^(0+128)
  1390  0D25  3065               	movlw	101
  1391  0D26  0236               	subwf	??_main^(0+128),w
  1392  0D27  1C03               	skipc
  1393  0D28  2D2A               	goto	u3141
  1394  0D29  2D2B               	goto	u3140
  1395  0D2A                     u3141:	
  1396  0D2A  2D32               	goto	l3160
  1397  0D2B                     u3140:	
  1398  0D2B                     l3158:	
  1399                           
  1400                           ;main_app.c: 134:        set_temp = 60 ;
  1401  0D2B  303C               	movlw	60
  1402  0D2C  00B6               	movwf	??_main^(0+128)
  1403  0D2D  0836               	movf	??_main^(0+128),w
  1404  0D2E  1283               	bcf	3,5	;RP0=0, select bank0
  1405  0D2F  1303               	bcf	3,6	;RP1=0, select bank0
  1406  0D30  00E6               	movwf	_set_temp
  1407                           
  1408                           ;main_app.c: 135:     }
  1409  0D31  2D42               	goto	l84
  1410  0D32                     l3160:	
  1411                           
  1412                           ;main_app.c: 137:        set_temp = EEPROM_read(0xff) ;
  1413  0D32  30FF               	movlw	255
  1414  0D33  00A1               	movwf	EEPROM_read@address^(0+128)
  1415  0D34  3000               	movlw	0
  1416  0D35  00A2               	movwf	(EEPROM_read@address^(0+128)+1)
  1417  0D36  120A  158A  23DF  120A  158A  	fcall	_EEPROM_read
  1418  0D3B  1683               	bsf	3,5	;RP0=1, select bank1
  1419  0D3C  1303               	bcf	3,6	;RP1=0, select bank1
  1420  0D3D  00B6               	movwf	??_main^(0+128)
  1421  0D3E  0836               	movf	??_main^(0+128),w
  1422  0D3F  1283               	bcf	3,5	;RP0=0, select bank0
  1423  0D40  1303               	bcf	3,6	;RP1=0, select bank0
  1424  0D41  00E6               	movwf	_set_temp
  1425  0D42                     l84:	
  1426                           ;main_app.c: 138:     }
  1427                           
  1428                           
  1429                           ;main_app.c: 139:     timer2_init();
  1430  0D42  120A  158A  2317  120A  158A  	fcall	_timer2_init
  1431  0D47                     l85:	
  1432                           ;main_app.c: 142:     while(1){
  1433                           
  1434  0D47                     l86:	
  1435                           ;main_app.c: 144:     }
  1436                           
  1437  0D47  2D47               	goto	l85
  1438  0D48  120A  118A  2812   	ljmp	start
  1439  0D4B                     __end_of_main:	
  1440                           
  1441                           	psect	text1
  1442  0B17                     __ptext1:	
  1443 ;; *************** function _timer2_init *****************
  1444 ;; Defined at:
  1445 ;;		line 8 in file "timer2.c"
  1446 ;; Parameters:    Size  Location     Type
  1447 ;;		None
  1448 ;; Auto vars:     Size  Location     Type
  1449 ;;		None
  1450 ;; Return value:  Size  Location     Type
  1451 ;;                  1    wreg      void 
  1452 ;; Registers used:
  1453 ;;		wreg, status,2, status,0
  1454 ;; Tracked objects:
  1455 ;;		On entry : 0/0
  1456 ;;		On exit  : 0/0
  1457 ;;		Unchanged: 0/0
  1458 ;; Data sizes:     COMMON   BANK0   BANK1   BANK3   BANK2
  1459 ;;      Params:         0       0       0       0       0
  1460 ;;      Locals:         0       0       0       0       0
  1461 ;;      Temps:          0       0       1       0       0
  1462 ;;      Totals:         0       0       1       0       0
  1463 ;;Total ram usage:        1 bytes
  1464 ;; Hardware stack levels used:    1
  1465 ;; Hardware stack levels required when called:    5
  1466 ;; This function calls:
  1467 ;;		Nothing
  1468 ;; This function is called by:
  1469 ;;		_main
  1470 ;; This function uses a non-reentrant model
  1471 ;;
  1472                           
  1473                           
  1474                           ;psect for function _timer2_init
  1475  0B17                     _timer2_init:	
  1476  0B17                     l3084:	
  1477                           ;incstack = 0
  1478                           ; Regs used in _timer2_init: [wreg+status,2+status,0]
  1479                           
  1480                           
  1481                           ;timer2.c: 9:     (T2CON &= ~(1 << 2)) ;
  1482  0B17  30FB               	movlw	251
  1483  0B18  1683               	bsf	3,5	;RP0=1, select bank1
  1484  0B19  1303               	bcf	3,6	;RP1=0, select bank1
  1485  0B1A  00A0               	movwf	??_timer2_init^(0+128)
  1486  0B1B  0820               	movf	??_timer2_init^(0+128),w
  1487  0B1C  1283               	bcf	3,5	;RP0=0, select bank0
  1488  0B1D  1303               	bcf	3,6	;RP1=0, select bank0
  1489  0B1E  0592               	andwf	18,f	;volatile
  1490  0B1F                     l3086:	
  1491                           
  1492                           ;timer2.c: 10:     (T2CON |= (1 << 1));
  1493  0B1F  1492               	bsf	18,1	;volatile
  1494                           
  1495                           ;timer2.c: 11:     (T2CON &= ~(1 << 0));
  1496  0B20  30FE               	movlw	254
  1497  0B21  1683               	bsf	3,5	;RP0=1, select bank1
  1498  0B22  1303               	bcf	3,6	;RP1=0, select bank1
  1499  0B23  00A0               	movwf	??_timer2_init^(0+128)
  1500  0B24  0820               	movf	??_timer2_init^(0+128),w
  1501  0B25  1283               	bcf	3,5	;RP0=0, select bank0
  1502  0B26  1303               	bcf	3,6	;RP1=0, select bank0
  1503  0B27  0592               	andwf	18,f	;volatile
  1504  0B28                     l3088:	
  1505                           
  1506                           ;timer2.c: 12:     TMR2 = 131 ;
  1507  0B28  3083               	movlw	131
  1508  0B29  0091               	movwf	17	;volatile
  1509  0B2A                     l3090:	
  1510                           
  1511                           ;timer2.c: 13:     (INTCON |= (1 << 7));
  1512  0B2A  178B               	bsf	11,7	;volatile
  1513  0B2B                     l3092:	
  1514                           
  1515                           ;timer2.c: 14:     (INTCON |= (1 << 6));
  1516  0B2B  170B               	bsf	11,6	;volatile
  1517  0B2C                     l3094:	
  1518                           
  1519                           ;timer2.c: 15:     (PIR1 &= ~(1 << 1));
  1520  0B2C  30FD               	movlw	253
  1521  0B2D  1683               	bsf	3,5	;RP0=1, select bank1
  1522  0B2E  1303               	bcf	3,6	;RP1=0, select bank1
  1523  0B2F  00A0               	movwf	??_timer2_init^(0+128)
  1524  0B30  0820               	movf	??_timer2_init^(0+128),w
  1525  0B31  1283               	bcf	3,5	;RP0=0, select bank0
  1526  0B32  1303               	bcf	3,6	;RP1=0, select bank0
  1527  0B33  058C               	andwf	12,f	;volatile
  1528  0B34                     l3096:	
  1529                           
  1530                           ;timer2.c: 16:     (PIE1 |= (1 << 1));
  1531  0B34  1683               	bsf	3,5	;RP0=1, select bank1
  1532  0B35  1303               	bcf	3,6	;RP1=0, select bank1
  1533  0B36  148C               	bsf	12,1	;volatile
  1534  0B37                     l3098:	
  1535                           
  1536                           ;timer2.c: 17:     (T2CON |= (1 << 2)) ;
  1537  0B37  1283               	bcf	3,5	;RP0=0, select bank0
  1538  0B38  1303               	bcf	3,6	;RP1=0, select bank0
  1539  0B39  1512               	bsf	18,2	;volatile
  1540  0B3A                     l360:	
  1541  0B3A  0008               	return
  1542  0B3B                     __end_of_timer2_init:	
  1543                           
  1544                           	psect	text2
  1545  0A23                     __ptext2:	
  1546 ;; *************** function _temp_sensor_init *****************
  1547 ;; Defined at:
  1548 ;;		line 13 in file "temp_sensor.c"
  1549 ;; Parameters:    Size  Location     Type
  1550 ;;		None
  1551 ;; Auto vars:     Size  Location     Type
  1552 ;;		None
  1553 ;; Return value:  Size  Location     Type
  1554 ;;                  1    wreg      void 
  1555 ;; Registers used:
  1556 ;;		wreg, status,2, status,0, pclath, cstack
  1557 ;; Tracked objects:
  1558 ;;		On entry : 0/0
  1559 ;;		On exit  : 0/0
  1560 ;;		Unchanged: 0/0
  1561 ;; Data sizes:     COMMON   BANK0   BANK1   BANK3   BANK2
  1562 ;;      Params:         0       0       0       0       0
  1563 ;;      Locals:         0       0       0       0       0
  1564 ;;      Temps:          0       0       0       0       0
  1565 ;;      Totals:         0       0       0       0       0
  1566 ;;Total ram usage:        0 bytes
  1567 ;; Hardware stack levels used:    1
  1568 ;; Hardware stack levels required when called:    6
  1569 ;; This function calls:
  1570 ;;		_ADC_Init
  1571 ;; This function is called by:
  1572 ;;		_main
  1573 ;; This function uses a non-reentrant model
  1574 ;;
  1575                           
  1576                           
  1577                           ;psect for function _temp_sensor_init
  1578  0A23                     _temp_sensor_init:	
  1579  0A23                     l3044:	
  1580                           ;incstack = 0
  1581                           ; Regs used in _temp_sensor_init: [wreg+status,2+status,0+pclath+cstack]
  1582                           
  1583                           
  1584                           ;temp_sensor.c: 14:     ADC_Init();
  1585  0A23  120A  158A  22BF  120A  158A  	fcall	_ADC_Init
  1586  0A28                     l3046:	
  1587                           
  1588                           ;temp_sensor.c: 15:     (TRISA |= (1 << 2));
  1589  0A28  1683               	bsf	3,5	;RP0=1, select bank1
  1590  0A29  1303               	bcf	3,6	;RP1=0, select bank1
  1591  0A2A  1505               	bsf	5,2	;volatile
  1592  0A2B                     l336:	
  1593  0A2B  0008               	return
  1594  0A2C                     __end_of_temp_sensor_init:	
  1595                           
  1596                           	psect	text3
  1597  0ABF                     __ptext3:	
  1598 ;; *************** function _ADC_Init *****************
  1599 ;; Defined at:
  1600 ;;		line 8 in file "adc_drive.c"
  1601 ;; Parameters:    Size  Location     Type
  1602 ;;		None
  1603 ;; Auto vars:     Size  Location     Type
  1604 ;;		None
  1605 ;; Return value:  Size  Location     Type
  1606 ;;                  1    wreg      void 
  1607 ;; Registers used:
  1608 ;;		wreg, status,2, status,0
  1609 ;; Tracked objects:
  1610 ;;		On entry : 0/0
  1611 ;;		On exit  : 0/0
  1612 ;;		Unchanged: 0/0
  1613 ;; Data sizes:     COMMON   BANK0   BANK1   BANK3   BANK2
  1614 ;;      Params:         0       0       0       0       0
  1615 ;;      Locals:         0       0       0       0       0
  1616 ;;      Temps:          0       0       1       0       0
  1617 ;;      Totals:         0       0       1       0       0
  1618 ;;Total ram usage:        1 bytes
  1619 ;; Hardware stack levels used:    1
  1620 ;; Hardware stack levels required when called:    5
  1621 ;; This function calls:
  1622 ;;		Nothing
  1623 ;; This function is called by:
  1624 ;;		_temp_sensor_init
  1625 ;; This function uses a non-reentrant model
  1626 ;;
  1627                           
  1628                           
  1629                           ;psect for function _ADC_Init
  1630  0ABF                     _ADC_Init:	
  1631  0ABF                     l2470:	
  1632                           ;incstack = 0
  1633                           ; Regs used in _ADC_Init: [wreg+status,2+status,0]
  1634                           
  1635                           
  1636                           ;adc_drive.c: 10:     (ADCON0 |= (1 << 7));
  1637  0ABF  1283               	bcf	3,5	;RP0=0, select bank0
  1638  0AC0  1303               	bcf	3,6	;RP1=0, select bank0
  1639  0AC1  179F               	bsf	31,7	;volatile
  1640                           
  1641                           ;adc_drive.c: 11:     (ADCON0 |= (1 << 6));
  1642  0AC2  171F               	bsf	31,6	;volatile
  1643                           
  1644                           ;adc_drive.c: 12:     (ADCON1 |= (1 << 6));
  1645  0AC3  1683               	bsf	3,5	;RP0=1, select bank1
  1646  0AC4  1303               	bcf	3,6	;RP1=0, select bank1
  1647  0AC5  171F               	bsf	31,6	;volatile
  1648                           
  1649                           ;adc_drive.c: 14:     (ADCON1 |= (1 << 7));
  1650  0AC6  179F               	bsf	31,7	;volatile
  1651  0AC7                     l2472:	
  1652                           
  1653                           ;adc_drive.c: 16:     (ADCON1 &= ~(1 << 0));
  1654  0AC7  30FE               	movlw	254
  1655  0AC8  00A0               	movwf	??_ADC_Init^(0+128)
  1656  0AC9  0820               	movf	??_ADC_Init^(0+128),w
  1657  0ACA  059F               	andwf	31,f	;volatile
  1658                           
  1659                           ;adc_drive.c: 17:     (ADCON1 &= ~(1 << 1));
  1660  0ACB  30FD               	movlw	253
  1661  0ACC  00A0               	movwf	??_ADC_Init^(0+128)
  1662  0ACD  0820               	movf	??_ADC_Init^(0+128),w
  1663  0ACE  059F               	andwf	31,f	;volatile
  1664                           
  1665                           ;adc_drive.c: 18:     (ADCON1 &= ~(1 << 2));
  1666  0ACF  30FB               	movlw	251
  1667  0AD0  00A0               	movwf	??_ADC_Init^(0+128)
  1668  0AD1  0820               	movf	??_ADC_Init^(0+128),w
  1669  0AD2  059F               	andwf	31,f	;volatile
  1670                           
  1671                           ;adc_drive.c: 19:     (ADCON1 &= ~(1 << 3));
  1672  0AD3  30F7               	movlw	247
  1673  0AD4  00A0               	movwf	??_ADC_Init^(0+128)
  1674  0AD5  0820               	movf	??_ADC_Init^(0+128),w
  1675  0AD6  059F               	andwf	31,f	;volatile
  1676  0AD7                     l2474:	
  1677                           
  1678                           ;adc_drive.c: 21:     (ADCON0 |= (1 << 0));
  1679  0AD7  1283               	bcf	3,5	;RP0=0, select bank0
  1680  0AD8  1303               	bcf	3,6	;RP1=0, select bank0
  1681  0AD9  141F               	bsf	31,0	;volatile
  1682  0ADA                     l99:	
  1683  0ADA  0008               	return
  1684  0ADB                     __end_of_ADC_Init:	
  1685                           
  1686                           	psect	text4
  1687  0B3B                     __ptext4:	
  1688 ;; *************** function _temp_control_init *****************
  1689 ;; Defined at:
  1690 ;;		line 13 in file "temp_control.c"
  1691 ;; Parameters:    Size  Location     Type
  1692 ;;		None
  1693 ;; Auto vars:     Size  Location     Type
  1694 ;;		None
  1695 ;; Return value:  Size  Location     Type
  1696 ;;                  1    wreg      void 
  1697 ;; Registers used:
  1698 ;;		wreg, status,2, status,0
  1699 ;; Tracked objects:
  1700 ;;		On entry : 0/0
  1701 ;;		On exit  : 0/0
  1702 ;;		Unchanged: 0/0
  1703 ;; Data sizes:     COMMON   BANK0   BANK1   BANK3   BANK2
  1704 ;;      Params:         0       0       0       0       0
  1705 ;;      Locals:         0       0       0       0       0
  1706 ;;      Temps:          0       0       1       0       0
  1707 ;;      Totals:         0       0       1       0       0
  1708 ;;Total ram usage:        1 bytes
  1709 ;; Hardware stack levels used:    1
  1710 ;; Hardware stack levels required when called:    5
  1711 ;; This function calls:
  1712 ;;		Nothing
  1713 ;; This function is called by:
  1714 ;;		_main
  1715 ;; This function uses a non-reentrant model
  1716 ;;
  1717                           
  1718                           
  1719                           ;psect for function _temp_control_init
  1720  0B3B                     _temp_control_init:	
  1721  0B3B                     l3048:	
  1722                           ;incstack = 0
  1723                           ; Regs used in _temp_control_init: [wreg+status,2+status,0]
  1724                           
  1725                           
  1726                           ;temp_control.c: 15:      (TRISC &= ~(1 << 5));
  1727  0B3B  30DF               	movlw	223
  1728  0B3C  1683               	bsf	3,5	;RP0=1, select bank1
  1729  0B3D  1303               	bcf	3,6	;RP1=0, select bank1
  1730  0B3E  00A0               	movwf	??_temp_control_init^(0+128)
  1731  0B3F  0820               	movf	??_temp_control_init^(0+128),w
  1732  0B40  0587               	andwf	7,f	;volatile
  1733                           
  1734                           ;temp_control.c: 16:      (PORTC &= ~(1 << 5));
  1735  0B41  30DF               	movlw	223
  1736  0B42  00A0               	movwf	??_temp_control_init^(0+128)
  1737  0B43  0820               	movf	??_temp_control_init^(0+128),w
  1738  0B44  1283               	bcf	3,5	;RP0=0, select bank0
  1739  0B45  1303               	bcf	3,6	;RP1=0, select bank0
  1740  0B46  0587               	andwf	7,f	;volatile
  1741                           
  1742                           ;temp_control.c: 19:      (TRISC &= ~(1 << 2));
  1743  0B47  30FB               	movlw	251
  1744  0B48  1683               	bsf	3,5	;RP0=1, select bank1
  1745  0B49  1303               	bcf	3,6	;RP1=0, select bank1
  1746  0B4A  00A0               	movwf	??_temp_control_init^(0+128)
  1747  0B4B  0820               	movf	??_temp_control_init^(0+128),w
  1748  0B4C  0587               	andwf	7,f	;volatile
  1749                           
  1750                           ;temp_control.c: 20:      (PORTC &= ~(1 << 2));
  1751  0B4D  30FB               	movlw	251
  1752  0B4E  00A0               	movwf	??_temp_control_init^(0+128)
  1753  0B4F  0820               	movf	??_temp_control_init^(0+128),w
  1754  0B50  1283               	bcf	3,5	;RP0=0, select bank0
  1755  0B51  1303               	bcf	3,6	;RP1=0, select bank0
  1756  0B52  0587               	andwf	7,f	;volatile
  1757                           
  1758                           ;temp_control.c: 23:      (TRISB &= ~(1 << 4));
  1759  0B53  30EF               	movlw	239
  1760  0B54  1683               	bsf	3,5	;RP0=1, select bank1
  1761  0B55  1303               	bcf	3,6	;RP1=0, select bank1
  1762  0B56  00A0               	movwf	??_temp_control_init^(0+128)
  1763  0B57  0820               	movf	??_temp_control_init^(0+128),w
  1764  0B58  0586               	andwf	6,f	;volatile
  1765                           
  1766                           ;temp_control.c: 24:      (PORTB &= ~(1 << 4));
  1767  0B59  30EF               	movlw	239
  1768  0B5A  00A0               	movwf	??_temp_control_init^(0+128)
  1769  0B5B  0820               	movf	??_temp_control_init^(0+128),w
  1770  0B5C  1283               	bcf	3,5	;RP0=0, select bank0
  1771  0B5D  1303               	bcf	3,6	;RP1=0, select bank0
  1772  0B5E  0586               	andwf	6,f	;volatile
  1773  0B5F                     l297:	
  1774  0B5F  0008               	return
  1775  0B60                     __end_of_temp_control_init:	
  1776                           
  1777                           	psect	text5
  1778  09F0                     __ptext5:	
  1779 ;; *************** function _switch_init *****************
  1780 ;; Defined at:
  1781 ;;		line 15 in file "switchs.c"
  1782 ;; Parameters:    Size  Location     Type
  1783 ;;		None
  1784 ;; Auto vars:     Size  Location     Type
  1785 ;;		None
  1786 ;; Return value:  Size  Location     Type
  1787 ;;                  1    wreg      void 
  1788 ;; Registers used:
  1789 ;;		None
  1790 ;; Tracked objects:
  1791 ;;		On entry : 0/0
  1792 ;;		On exit  : 0/0
  1793 ;;		Unchanged: 0/0
  1794 ;; Data sizes:     COMMON   BANK0   BANK1   BANK3   BANK2
  1795 ;;      Params:         0       0       0       0       0
  1796 ;;      Locals:         0       0       0       0       0
  1797 ;;      Temps:          0       0       0       0       0
  1798 ;;      Totals:         0       0       0       0       0
  1799 ;;Total ram usage:        0 bytes
  1800 ;; Hardware stack levels used:    1
  1801 ;; Hardware stack levels required when called:    5
  1802 ;; This function calls:
  1803 ;;		Nothing
  1804 ;; This function is called by:
  1805 ;;		_main
  1806 ;; This function uses a non-reentrant model
  1807 ;;
  1808                           
  1809                           
  1810                           ;psect for function _switch_init
  1811  09F0                     _switch_init:	
  1812  09F0                     l3050:	
  1813                           ;incstack = 0
  1814                           ; Regs used in _switch_init: []
  1815                           
  1816                           
  1817                           ;switchs.c: 17:      (TRISB |= (1 << 2));
  1818  09F0  1683               	bsf	3,5	;RP0=1, select bank1
  1819  09F1  1303               	bcf	3,6	;RP1=0, select bank1
  1820  09F2  1506               	bsf	6,2	;volatile
  1821                           
  1822                           ;switchs.c: 18:      (TRISB |= (1 << 1));
  1823  09F3  1486               	bsf	6,1	;volatile
  1824                           
  1825                           ;switchs.c: 19:      (TRISB |= (1 << 0));
  1826  09F4  1406               	bsf	6,0	;volatile
  1827                           
  1828                           ;switchs.c: 20:      (INTCON |= (1 << 4));
  1829  09F5  160B               	bsf	11,4	;volatile
  1830  09F6                     l254:	
  1831  09F6  0008               	return
  1832  09F7                     __end_of_switch_init:	
  1833                           
  1834                           	psect	text6
  1835  0AF8                     __ptext6:	
  1836 ;; *************** function _ssd_init *****************
  1837 ;; Defined at:
  1838 ;;		line 15 in file "SSD.c"
  1839 ;; Parameters:    Size  Location     Type
  1840 ;;		None
  1841 ;; Auto vars:     Size  Location     Type
  1842 ;;		None
  1843 ;; Return value:  Size  Location     Type
  1844 ;;                  1    wreg      void 
  1845 ;; Registers used:
  1846 ;;		wreg, status,2, status,0
  1847 ;; Tracked objects:
  1848 ;;		On entry : 0/0
  1849 ;;		On exit  : 0/0
  1850 ;;		Unchanged: 0/0
  1851 ;; Data sizes:     COMMON   BANK0   BANK1   BANK3   BANK2
  1852 ;;      Params:         0       0       0       0       0
  1853 ;;      Locals:         0       0       0       0       0
  1854 ;;      Temps:          0       0       1       0       0
  1855 ;;      Totals:         0       0       1       0       0
  1856 ;;Total ram usage:        1 bytes
  1857 ;; Hardware stack levels used:    1
  1858 ;; Hardware stack levels required when called:    5
  1859 ;; This function calls:
  1860 ;;		Nothing
  1861 ;; This function is called by:
  1862 ;;		_main
  1863 ;; This function uses a non-reentrant model
  1864 ;;
  1865                           
  1866                           
  1867                           ;psect for function _ssd_init
  1868  0AF8                     _ssd_init:	
  1869  0AF8                     l3052:	
  1870                           ;incstack = 0
  1871                           ; Regs used in _ssd_init: [wreg+status,2+status,0]
  1872                           
  1873                           
  1874                           ;SSD.c: 17:      (TRISD &= ~(255 << 0));
  1875  0AF8  1683               	bsf	3,5	;RP0=1, select bank1
  1876  0AF9  1303               	bcf	3,6	;RP1=0, select bank1
  1877  0AFA  0188               	clrf	8	;volatile
  1878                           
  1879                           ;SSD.c: 18:      (PORTD &= ~(255 << 0));
  1880  0AFB  1283               	bcf	3,5	;RP0=0, select bank0
  1881  0AFC  1303               	bcf	3,6	;RP1=0, select bank0
  1882  0AFD  0188               	clrf	8	;volatile
  1883  0AFE                     l3054:	
  1884                           
  1885                           ;SSD.c: 20:      (TRISA &= ~(1 << 4));
  1886  0AFE  30EF               	movlw	239
  1887  0AFF  1683               	bsf	3,5	;RP0=1, select bank1
  1888  0B00  1303               	bcf	3,6	;RP1=0, select bank1
  1889  0B01  00A0               	movwf	??_ssd_init^(0+128)
  1890  0B02  0820               	movf	??_ssd_init^(0+128),w
  1891  0B03  0585               	andwf	5,f	;volatile
  1892  0B04                     l3056:	
  1893                           
  1894                           ;SSD.c: 21:      (PORTA &= ~(1 << 4));
  1895  0B04  30EF               	movlw	239
  1896  0B05  00A0               	movwf	??_ssd_init^(0+128)
  1897  0B06  0820               	movf	??_ssd_init^(0+128),w
  1898  0B07  1283               	bcf	3,5	;RP0=0, select bank0
  1899  0B08  1303               	bcf	3,6	;RP1=0, select bank0
  1900  0B09  0585               	andwf	5,f	;volatile
  1901  0B0A                     l3058:	
  1902                           
  1903                           ;SSD.c: 22:      (TRISA &= ~(1 << 5));
  1904  0B0A  30DF               	movlw	223
  1905  0B0B  1683               	bsf	3,5	;RP0=1, select bank1
  1906  0B0C  1303               	bcf	3,6	;RP1=0, select bank1
  1907  0B0D  00A0               	movwf	??_ssd_init^(0+128)
  1908  0B0E  0820               	movf	??_ssd_init^(0+128),w
  1909  0B0F  0585               	andwf	5,f	;volatile
  1910  0B10                     l3060:	
  1911                           
  1912                           ;SSD.c: 23:      (PORTA &= ~(1 << 5));
  1913  0B10  30DF               	movlw	223
  1914  0B11  00A0               	movwf	??_ssd_init^(0+128)
  1915  0B12  0820               	movf	??_ssd_init^(0+128),w
  1916  0B13  1283               	bcf	3,5	;RP0=0, select bank0
  1917  0B14  1303               	bcf	3,6	;RP1=0, select bank0
  1918  0B15  0585               	andwf	5,f	;volatile
  1919  0B16                     l185:	
  1920  0B16  0008               	return
  1921  0B17                     __end_of_ssd_init:	
  1922                           
  1923                           	psect	text7
  1924  0BDF                     __ptext7:	
  1925 ;; *************** function _EEPROM_read *****************
  1926 ;; Defined at:
  1927 ;;		line 31 in file "eeprom.c"
  1928 ;; Parameters:    Size  Location     Type
  1929 ;;  address         2    1[BANK1 ] unsigned int 
  1930 ;; Auto vars:     Size  Location     Type
  1931 ;;  _x              1    4[BANK1 ] unsigned char 
  1932 ;; Return value:  Size  Location     Type
  1933 ;;                  1    wreg      unsigned char 
  1934 ;; Registers used:
  1935 ;;		wreg, status,2, status,0, pclath, cstack
  1936 ;; Tracked objects:
  1937 ;;		On entry : 0/0
  1938 ;;		On exit  : 0/0
  1939 ;;		Unchanged: 0/0
  1940 ;; Data sizes:     COMMON   BANK0   BANK1   BANK3   BANK2
  1941 ;;      Params:         0       0       2       0       0
  1942 ;;      Locals:         0       0       1       0       0
  1943 ;;      Temps:          0       0       1       0       0
  1944 ;;      Totals:         0       0       4       0       0
  1945 ;;Total ram usage:        4 bytes
  1946 ;; Hardware stack levels used:    1
  1947 ;; Hardware stack levels required when called:    7
  1948 ;; This function calls:
  1949 ;;		_I2C1_Rd
  1950 ;;		_I2C1_Start
  1951 ;;		_I2C1_Stop
  1952 ;;		_I2C1_Wr
  1953 ;; This function is called by:
  1954 ;;		_main
  1955 ;; This function uses a non-reentrant model
  1956 ;;
  1957                           
  1958                           
  1959                           ;psect for function _EEPROM_read
  1960  0BDF                     _EEPROM_read:	
  1961  0BDF                     l3064:	
  1962                           ;incstack = 0
  1963                           ; Regs used in _EEPROM_read: [wreg+status,2+status,0+pclath+cstack]
  1964                           
  1965  0BDF                     l3066:	
  1966                           
  1967                           ;eeprom.c: 33:     I2C1_Start();
  1968  0BDF  120A  158A  2211  120A  158A  	fcall	_I2C1_Start
  1969  0BE4                     l3068:	
  1970                           
  1971                           ;eeprom.c: 34:     I2C1_Wr(0XA2);
  1972  0BE4  30A2               	movlw	162
  1973  0BE5  120A  158A  2292  120A  158A  	fcall	_I2C1_Wr
  1974  0BEA                     l3070:	
  1975                           
  1976                           ;eeprom.c: 35:     I2C1_Wr(address);
  1977  0BEA  1683               	bsf	3,5	;RP0=1, select bank1
  1978  0BEB  1303               	bcf	3,6	;RP1=0, select bank1
  1979  0BEC  0821               	movf	EEPROM_read@address^(0+128),w
  1980  0BED  120A  158A  2292  120A  158A  	fcall	_I2C1_Wr
  1981  0BF2                     l3072:	
  1982                           
  1983                           ;eeprom.c: 36:     I2C1_Start();
  1984  0BF2  120A  158A  2211  120A  158A  	fcall	_I2C1_Start
  1985  0BF7                     l3074:	
  1986                           
  1987                           ;eeprom.c: 37:     I2C1_Wr(0XA3);
  1988  0BF7  30A3               	movlw	163
  1989  0BF8  120A  158A  2292  120A  158A  	fcall	_I2C1_Wr
  1990  0BFD                     l3076:	
  1991                           
  1992                           ;eeprom.c: 38:     _x = I2C1_Rd();
  1993  0BFD  120A  158A  2253  120A  158A  	fcall	_I2C1_Rd
  1994  0C02  1683               	bsf	3,5	;RP0=1, select bank1
  1995  0C03  1303               	bcf	3,6	;RP1=0, select bank1
  1996  0C04  00A3               	movwf	??_EEPROM_read^(0+128)
  1997  0C05  0823               	movf	??_EEPROM_read^(0+128),w
  1998  0C06  00A4               	movwf	EEPROM_read@_x^(0+128)
  1999  0C07                     l3078:	
  2000                           
  2001                           ;eeprom.c: 39:     I2C1_Stop();
  2002  0C07  120A  158A  221A  120A  158A  	fcall	_I2C1_Stop
  2003  0C0C                     l3080:	
  2004                           
  2005                           ;eeprom.c: 40:     return _x ;
  2006  0C0C  1683               	bsf	3,5	;RP0=1, select bank1
  2007  0C0D  1303               	bcf	3,6	;RP1=0, select bank1
  2008  0C0E  0824               	movf	EEPROM_read@_x^(0+128),w
  2009  0C0F                     l162:	
  2010  0C0F  0008               	return
  2011  0C10                     __end_of_EEPROM_read:	
  2012                           
  2013                           	psect	text8
  2014  0A92                     __ptext8:	
  2015 ;; *************** function _I2C1_Wr *****************
  2016 ;; Defined at:
  2017 ;;		line 51 in file "I2C_drive.c"
  2018 ;; Parameters:    Size  Location     Type
  2019 ;;  _data           1    wreg     unsigned char 
  2020 ;; Auto vars:     Size  Location     Type
  2021 ;;  _data           1    0[BANK1 ] unsigned char 
  2022 ;; Return value:  Size  Location     Type
  2023 ;;                  1    wreg      void 
  2024 ;; Registers used:
  2025 ;;		wreg, status,2, status,0, pclath, cstack
  2026 ;; Tracked objects:
  2027 ;;		On entry : 0/0
  2028 ;;		On exit  : 0/0
  2029 ;;		Unchanged: 0/0
  2030 ;; Data sizes:     COMMON   BANK0   BANK1   BANK3   BANK2
  2031 ;;      Params:         0       0       0       0       0
  2032 ;;      Locals:         0       0       1       0       0
  2033 ;;      Temps:          0       0       0       0       0
  2034 ;;      Totals:         0       0       1       0       0
  2035 ;;Total ram usage:        1 bytes
  2036 ;; Hardware stack levels used:    1
  2037 ;; Hardware stack levels required when called:    6
  2038 ;; This function calls:
  2039 ;;		_I2C_Wait
  2040 ;; This function is called by:
  2041 ;;		_EEPROM_read
  2042 ;; This function uses a non-reentrant model
  2043 ;;
  2044                           
  2045                           
  2046                           ;psect for function _I2C1_Wr
  2047  0A92                     _I2C1_Wr:	
  2048                           
  2049                           ;incstack = 0
  2050                           ; Regs used in _I2C1_Wr: [wreg+status,2+status,0+pclath+cstack]
  2051                           ;I2C1_Wr@_data stored from wreg
  2052  0A92  1683               	bsf	3,5	;RP0=1, select bank1
  2053  0A93  1303               	bcf	3,6	;RP1=0, select bank1
  2054  0A94  00A0               	movwf	I2C1_Wr@_data^(0+128)
  2055  0A95                     l2500:	
  2056                           
  2057                           ;I2C_drive.c: 52:     I2C_Wait();
  2058  0A95  120A  158A  2246  120A  158A  	fcall	_I2C_Wait
  2059  0A9A                     l2502:	
  2060                           
  2061                           ;I2C_drive.c: 53:     SSPBUF = _data ;
  2062  0A9A  1683               	bsf	3,5	;RP0=1, select bank1
  2063  0A9B  1303               	bcf	3,6	;RP1=0, select bank1
  2064  0A9C  0820               	movf	I2C1_Wr@_data^(0+128),w
  2065  0A9D  1283               	bcf	3,5	;RP0=0, select bank0
  2066  0A9E  1303               	bcf	3,6	;RP1=0, select bank0
  2067  0A9F  0093               	movwf	19	;volatile
  2068  0AA0                     l2504:	
  2069                           
  2070                           ;I2C_drive.c: 54:     I2C_Wait();
  2071  0AA0  120A  158A  2246  120A  158A  	fcall	_I2C_Wait
  2072  0AA5                     l137:	
  2073  0AA5  0008               	return
  2074  0AA6                     __end_of_I2C1_Wr:	
  2075                           
  2076                           	psect	text9
  2077  0A1A                     __ptext9:	
  2078 ;; *************** function _I2C1_Stop *****************
  2079 ;; Defined at:
  2080 ;;		line 41 in file "I2C_drive.c"
  2081 ;; Parameters:    Size  Location     Type
  2082 ;;		None
  2083 ;; Auto vars:     Size  Location     Type
  2084 ;;		None
  2085 ;; Return value:  Size  Location     Type
  2086 ;;                  1    wreg      void 
  2087 ;; Registers used:
  2088 ;;		wreg, status,2, status,0, pclath, cstack
  2089 ;; Tracked objects:
  2090 ;;		On entry : 0/0
  2091 ;;		On exit  : 0/0
  2092 ;;		Unchanged: 0/0
  2093 ;; Data sizes:     COMMON   BANK0   BANK1   BANK3   BANK2
  2094 ;;      Params:         0       0       0       0       0
  2095 ;;      Locals:         0       0       0       0       0
  2096 ;;      Temps:          0       0       0       0       0
  2097 ;;      Totals:         0       0       0       0       0
  2098 ;;Total ram usage:        0 bytes
  2099 ;; Hardware stack levels used:    1
  2100 ;; Hardware stack levels required when called:    6
  2101 ;; This function calls:
  2102 ;;		_I2C_Wait
  2103 ;; This function is called by:
  2104 ;;		_EEPROM_read
  2105 ;; This function uses a non-reentrant model
  2106 ;;
  2107                           
  2108                           
  2109                           ;psect for function _I2C1_Stop
  2110  0A1A                     _I2C1_Stop:	
  2111  0A1A                     l2496:	
  2112                           ;incstack = 0
  2113                           ; Regs used in _I2C1_Stop: [wreg+status,2+status,0+pclath+cstack]
  2114                           
  2115                           
  2116                           ;I2C_drive.c: 42:     I2C_Wait();
  2117  0A1A  120A  158A  2246  120A  158A  	fcall	_I2C_Wait
  2118  0A1F                     l2498:	
  2119                           
  2120                           ;I2C_drive.c: 43:     (SSPCON2 |= (1 << 2));
  2121  0A1F  1683               	bsf	3,5	;RP0=1, select bank1
  2122  0A20  1303               	bcf	3,6	;RP1=0, select bank1
  2123  0A21  1511               	bsf	17,2	;volatile
  2124  0A22                     l134:	
  2125  0A22  0008               	return
  2126  0A23                     __end_of_I2C1_Stop:	
  2127                           
  2128                           	psect	text10
  2129  0A11                     __ptext10:	
  2130 ;; *************** function _I2C1_Start *****************
  2131 ;; Defined at:
  2132 ;;		line 31 in file "I2C_drive.c"
  2133 ;; Parameters:    Size  Location     Type
  2134 ;;		None
  2135 ;; Auto vars:     Size  Location     Type
  2136 ;;		None
  2137 ;; Return value:  Size  Location     Type
  2138 ;;                  1    wreg      void 
  2139 ;; Registers used:
  2140 ;;		wreg, status,2, status,0, pclath, cstack
  2141 ;; Tracked objects:
  2142 ;;		On entry : 0/0
  2143 ;;		On exit  : 0/0
  2144 ;;		Unchanged: 0/0
  2145 ;; Data sizes:     COMMON   BANK0   BANK1   BANK3   BANK2
  2146 ;;      Params:         0       0       0       0       0
  2147 ;;      Locals:         0       0       0       0       0
  2148 ;;      Temps:          0       0       0       0       0
  2149 ;;      Totals:         0       0       0       0       0
  2150 ;;Total ram usage:        0 bytes
  2151 ;; Hardware stack levels used:    1
  2152 ;; Hardware stack levels required when called:    6
  2153 ;; This function calls:
  2154 ;;		_I2C_Wait
  2155 ;; This function is called by:
  2156 ;;		_EEPROM_read
  2157 ;; This function uses a non-reentrant model
  2158 ;;
  2159                           
  2160                           
  2161                           ;psect for function _I2C1_Start
  2162  0A11                     _I2C1_Start:	
  2163  0A11                     l2492:	
  2164                           ;incstack = 0
  2165                           ; Regs used in _I2C1_Start: [wreg+status,2+status,0+pclath+cstack]
  2166                           
  2167                           
  2168                           ;I2C_drive.c: 32:     I2C_Wait();
  2169  0A11  120A  158A  2246  120A  158A  	fcall	_I2C_Wait
  2170  0A16                     l2494:	
  2171                           
  2172                           ;I2C_drive.c: 33:     (SSPCON2 |= (1 << 0));
  2173  0A16  1683               	bsf	3,5	;RP0=1, select bank1
  2174  0A17  1303               	bcf	3,6	;RP1=0, select bank1
  2175  0A18  1411               	bsf	17,0	;volatile
  2176  0A19                     l131:	
  2177  0A19  0008               	return
  2178  0A1A                     __end_of_I2C1_Start:	
  2179                           
  2180                           	psect	text11
  2181  0A46                     __ptext11:	
  2182 ;; *************** function _I2C_Wait *****************
  2183 ;; Defined at:
  2184 ;;		line 8 in file "I2C_drive.c"
  2185 ;; Parameters:    Size  Location     Type
  2186 ;;		None
  2187 ;; Auto vars:     Size  Location     Type
  2188 ;;		None
  2189 ;; Return value:  Size  Location     Type
  2190 ;;                  1    wreg      void 
  2191 ;; Registers used:
  2192 ;;		wreg, status,2
  2193 ;; Tracked objects:
  2194 ;;		On entry : 0/0
  2195 ;;		On exit  : 0/0
  2196 ;;		Unchanged: 0/0
  2197 ;; Data sizes:     COMMON   BANK0   BANK1   BANK3   BANK2
  2198 ;;      Params:         0       0       0       0       0
  2199 ;;      Locals:         0       0       0       0       0
  2200 ;;      Temps:          0       0       0       0       0
  2201 ;;      Totals:         0       0       0       0       0
  2202 ;;Total ram usage:        0 bytes
  2203 ;; Hardware stack levels used:    1
  2204 ;; Hardware stack levels required when called:    5
  2205 ;; This function calls:
  2206 ;;		Nothing
  2207 ;; This function is called by:
  2208 ;;		_I2C1_Start
  2209 ;;		_I2C1_Stop
  2210 ;;		_I2C1_Wr
  2211 ;; This function uses a non-reentrant model
  2212 ;;
  2213                           
  2214                           
  2215                           ;psect for function _I2C_Wait
  2216  0A46                     _I2C_Wait:	
  2217  0A46                     l2152:	
  2218                           ;incstack = 0
  2219                           ; Regs used in _I2C_Wait: [wreg+status,2]
  2220                           
  2221  0A46                     l122:	
  2222                           ;I2C_drive.c: 9:   while ((SSPSTAT & 0x04) || (SSPCON2 & 0x1F));
  2223                           
  2224  0A46  1683               	bsf	3,5	;RP0=1, select bank1
  2225  0A47  1303               	bcf	3,6	;RP1=0, select bank1
  2226  0A48  1914               	btfsc	20,2	;volatile
  2227  0A49  2A4B               	goto	u1601
  2228  0A4A  2A4C               	goto	u1600
  2229  0A4B                     u1601:	
  2230  0A4B  2A46               	goto	l122
  2231  0A4C                     u1600:	
  2232  0A4C                     l2154:	
  2233  0A4C  0811               	movf	17,w	;volatile
  2234  0A4D  391F               	andlw	31
  2235  0A4E  1D03               	btfss	3,2
  2236  0A4F  2A51               	goto	u1611
  2237  0A50  2A52               	goto	u1610
  2238  0A51                     u1611:	
  2239  0A51  2A46               	goto	l122
  2240  0A52                     u1610:	
  2241  0A52                     l125:	
  2242  0A52  0008               	return
  2243  0A53                     __end_of_I2C_Wait:	
  2244                           
  2245                           	psect	text12
  2246  0A53                     __ptext12:	
  2247 ;; *************** function _I2C1_Rd *****************
  2248 ;; Defined at:
  2249 ;;		line 62 in file "I2C_drive.c"
  2250 ;; Parameters:    Size  Location     Type
  2251 ;;		None
  2252 ;; Auto vars:     Size  Location     Type
  2253 ;;		None
  2254 ;; Return value:  Size  Location     Type
  2255 ;;                  1    wreg      unsigned char 
  2256 ;; Registers used:
  2257 ;;		wreg
  2258 ;; Tracked objects:
  2259 ;;		On entry : 0/0
  2260 ;;		On exit  : 0/0
  2261 ;;		Unchanged: 0/0
  2262 ;; Data sizes:     COMMON   BANK0   BANK1   BANK3   BANK2
  2263 ;;      Params:         0       0       0       0       0
  2264 ;;      Locals:         0       0       0       0       0
  2265 ;;      Temps:          0       0       0       0       0
  2266 ;;      Totals:         0       0       0       0       0
  2267 ;;Total ram usage:        0 bytes
  2268 ;; Hardware stack levels used:    1
  2269 ;; Hardware stack levels required when called:    5
  2270 ;; This function calls:
  2271 ;;		Nothing
  2272 ;; This function is called by:
  2273 ;;		_EEPROM_read
  2274 ;; This function uses a non-reentrant model
  2275 ;;
  2276                           
  2277                           
  2278                           ;psect for function _I2C1_Rd
  2279  0A53                     _I2C1_Rd:	
  2280  0A53                     l2506:	
  2281                           ;incstack = 0
  2282                           ; Regs used in _I2C1_Rd: [wreg]
  2283                           
  2284                           
  2285                           ;I2C_drive.c: 63:     SSPIF = 0;
  2286  0A53  1283               	bcf	3,5	;RP0=0, select bank0
  2287  0A54  1303               	bcf	3,6	;RP1=0, select bank0
  2288  0A55  118C               	bcf	12,3	;volatile
  2289                           
  2290                           ;I2C_drive.c: 64:     (SSPCON2 |= (1 << 3));
  2291  0A56  1683               	bsf	3,5	;RP0=1, select bank1
  2292  0A57  1303               	bcf	3,6	;RP1=0, select bank1
  2293  0A58  1591               	bsf	17,3	;volatile
  2294  0A59                     l140:	
  2295                           ;I2C_drive.c: 65:     while(!SSPIF);
  2296                           
  2297  0A59  1283               	bcf	3,5	;RP0=0, select bank0
  2298  0A5A  1D8C               	btfss	12,3	;volatile
  2299  0A5B  2A5D               	goto	u2021
  2300  0A5C  2A5E               	goto	u2020
  2301  0A5D                     u2021:	
  2302  0A5D  2A59               	goto	l140
  2303  0A5E                     u2020:	
  2304  0A5E                     l142:	
  2305                           
  2306                           ;I2C_drive.c: 66:     SSPIF = 0;
  2307  0A5E  118C               	bcf	12,3	;volatile
  2308  0A5F                     l2508:	
  2309                           
  2310                           ;I2C_drive.c: 67:     return SSPBUF;
  2311  0A5F  0813               	movf	19,w	;volatile
  2312  0A60                     l143:	
  2313  0A60  0008               	return
  2314  0A61                     __end_of_I2C1_Rd:	
  2315                           
  2316                           	psect	text13
  2317  0A71                     __ptext13:	
  2318 ;; *************** function _EEPROM_init *****************
  2319 ;; Defined at:
  2320 ;;		line 8 in file "eeprom.c"
  2321 ;; Parameters:    Size  Location     Type
  2322 ;;		None
  2323 ;; Auto vars:     Size  Location     Type
  2324 ;;		None
  2325 ;; Return value:  Size  Location     Type
  2326 ;;                  1    wreg      void 
  2327 ;; Registers used:
  2328 ;;		wreg, status,2, status,0, pclath, cstack
  2329 ;; Tracked objects:
  2330 ;;		On entry : 0/0
  2331 ;;		On exit  : 0/0
  2332 ;;		Unchanged: 0/0
  2333 ;; Data sizes:     COMMON   BANK0   BANK1   BANK3   BANK2
  2334 ;;      Params:         0       0       0       0       0
  2335 ;;      Locals:         0       0       0       0       0
  2336 ;;      Temps:          0       0       0       0       0
  2337 ;;      Totals:         0       0       0       0       0
  2338 ;;Total ram usage:        0 bytes
  2339 ;; Hardware stack levels used:    1
  2340 ;; Hardware stack levels required when called:    7
  2341 ;; This function calls:
  2342 ;;		_I2C1_Init
  2343 ;; This function is called by:
  2344 ;;		_main
  2345 ;; This function uses a non-reentrant model
  2346 ;;
  2347                           
  2348                           
  2349                           ;psect for function _EEPROM_init
  2350  0A71                     _EEPROM_init:	
  2351  0A71                     l3062:	
  2352                           ;incstack = 0
  2353                           ; Regs used in _EEPROM_init: [wreg+status,2+status,0+pclath+cstack]
  2354                           
  2355                           
  2356                           ;eeprom.c: 9:      I2C1_Init(100000);
  2357  0A71  3000               	movlw	0
  2358  0A72  1683               	bsf	3,5	;RP0=1, select bank1
  2359  0A73  1303               	bcf	3,6	;RP1=0, select bank1
  2360  0A74  00B1               	movwf	(I2C1_Init@freq+3)^(0+128)
  2361  0A75  3001               	movlw	1
  2362  0A76  00B0               	movwf	(I2C1_Init@freq+2)^(0+128)
  2363  0A77  3086               	movlw	134
  2364  0A78  00AF               	movwf	(I2C1_Init@freq+1)^(0+128)
  2365  0A79  30A0               	movlw	160
  2366  0A7A  00AE               	movwf	I2C1_Init@freq^(0+128)
  2367  0A7B  120A  158A  2444  120A  158A  	fcall	_I2C1_Init
  2368  0A80                     l156:	
  2369  0A80  0008               	return
  2370  0A81                     __end_of_EEPROM_init:	
  2371                           
  2372                           	psect	text14
  2373  0C44                     __ptext14:	
  2374 ;; *************** function _I2C1_Init *****************
  2375 ;; Defined at:
  2376 ;;		line 17 in file "I2C_drive.c"
  2377 ;; Parameters:    Size  Location     Type
  2378 ;;  freq            4   14[BANK1 ] unsigned long 
  2379 ;; Auto vars:     Size  Location     Type
  2380 ;;		None
  2381 ;; Return value:  Size  Location     Type
  2382 ;;                  1    wreg      void 
  2383 ;; Registers used:
  2384 ;;		wreg, status,2, status,0, pclath, cstack
  2385 ;; Tracked objects:
  2386 ;;		On entry : 0/0
  2387 ;;		On exit  : 0/0
  2388 ;;		Unchanged: 0/0
  2389 ;; Data sizes:     COMMON   BANK0   BANK1   BANK3   BANK2
  2390 ;;      Params:         0       0       4       0       0
  2391 ;;      Locals:         0       0       0       0       0
  2392 ;;      Temps:          0       0       4       0       0
  2393 ;;      Totals:         0       0       8       0       0
  2394 ;;Total ram usage:        8 bytes
  2395 ;; Hardware stack levels used:    1
  2396 ;; Hardware stack levels required when called:    6
  2397 ;; This function calls:
  2398 ;;		___lldiv
  2399 ;; This function is called by:
  2400 ;;		_EEPROM_init
  2401 ;; This function uses a non-reentrant model
  2402 ;;
  2403                           
  2404                           
  2405                           ;psect for function _I2C1_Init
  2406  0C44                     _I2C1_Init:	
  2407  0C44                     l2484:	
  2408                           ;incstack = 0
  2409                           ; Regs used in _I2C1_Init: [wreg+status,2+status,0+pclath+cstack]
  2410                           
  2411                           
  2412                           ;I2C_drive.c: 18:     (SSPCON |= (1 << 5));
  2413  0C44  1283               	bcf	3,5	;RP0=0, select bank0
  2414  0C45  1303               	bcf	3,6	;RP1=0, select bank0
  2415  0C46  1694               	bsf	20,5	;volatile
  2416                           
  2417                           ;I2C_drive.c: 19:     (SSPCON |= (1 << 3));
  2418  0C47  1594               	bsf	20,3	;volatile
  2419  0C48                     l2486:	
  2420                           
  2421                           ;I2C_drive.c: 20:     SSPADD = (8000000 / (freq * 4) ) - 1 ;
  2422  0C48  1683               	bsf	3,5	;RP0=1, select bank1
  2423  0C49  1303               	bcf	3,6	;RP1=0, select bank1
  2424  0C4A  082E               	movf	I2C1_Init@freq^(0+128),w
  2425  0C4B  00B2               	movwf	??_I2C1_Init^(0+128)
  2426  0C4C  082F               	movf	(I2C1_Init@freq+1)^(0+128),w
  2427  0C4D  00B3               	movwf	(??_I2C1_Init^(0+128)+1)
  2428  0C4E  0830               	movf	(I2C1_Init@freq+2)^(0+128),w
  2429  0C4F  00B4               	movwf	(??_I2C1_Init^(0+128)+2)
  2430  0C50  0831               	movf	(I2C1_Init@freq+3)^(0+128),w
  2431  0C51  00B5               	movwf	(??_I2C1_Init^(0+128)+3)
  2432  0C52  3002               	movlw	2
  2433  0C53                     u2015:	
  2434  0C53  1003               	clrc
  2435  0C54  0DB2               	rlf	??_I2C1_Init^(0+128),f
  2436  0C55  0DB3               	rlf	(??_I2C1_Init^(0+128)+1),f
  2437  0C56  0DB4               	rlf	(??_I2C1_Init^(0+128)+2),f
  2438  0C57  0DB5               	rlf	(??_I2C1_Init^(0+128)+3),f
  2439  0C58                     u2010:	
  2440  0C58  3EFF               	addlw	-1
  2441  0C59  1D03               	skipz
  2442  0C5A  2C53               	goto	u2015
  2443  0C5B  0835               	movf	(??_I2C1_Init+3)^(0+128),w
  2444  0C5C  00A3               	movwf	(___lldiv@divisor+3)^(0+128)
  2445  0C5D  0834               	movf	(??_I2C1_Init+2)^(0+128),w
  2446  0C5E  00A2               	movwf	(___lldiv@divisor+2)^(0+128)
  2447  0C5F  0833               	movf	(??_I2C1_Init+1)^(0+128),w
  2448  0C60  00A1               	movwf	(___lldiv@divisor+1)^(0+128)
  2449  0C61  0832               	movf	??_I2C1_Init^(0+128),w
  2450  0C62  00A0               	movwf	___lldiv@divisor^(0+128)
  2451  0C63  3000               	movlw	0
  2452  0C64  00A7               	movwf	(___lldiv@dividend+3)^(0+128)
  2453  0C65  307A               	movlw	122
  2454  0C66  00A6               	movwf	(___lldiv@dividend+2)^(0+128)
  2455  0C67  3012               	movlw	18
  2456  0C68  00A5               	movwf	(___lldiv@dividend+1)^(0+128)
  2457  0C69  3000               	movlw	0
  2458  0C6A  00A4               	movwf	___lldiv@dividend^(0+128)
  2459  0C6B  120A  158A  26BE  120A  158A  	fcall	___lldiv
  2460  0C70  1683               	bsf	3,5	;RP0=1, select bank1
  2461  0C71  1303               	bcf	3,6	;RP1=0, select bank1
  2462  0C72  0820               	movf	?___lldiv^(0+128),w
  2463  0C73  3EFF               	addlw	255
  2464  0C74  0093               	movwf	19	;volatile
  2465  0C75                     l2488:	
  2466                           
  2467                           ;I2C_drive.c: 22:     TRISC |= (1 << 3);
  2468  0C75  1587               	bsf	7,3	;volatile
  2469  0C76                     l2490:	
  2470                           
  2471                           ;I2C_drive.c: 23:     TRISC |= (1 << 4);
  2472  0C76  1607               	bsf	7,4	;volatile
  2473  0C77                     l128:	
  2474  0C77  0008               	return
  2475  0C78                     __end_of_I2C1_Init:	
  2476                           
  2477                           	psect	text15
  2478  0EBE                     __ptext15:	
  2479 ;; *************** function ___lldiv *****************
  2480 ;; Defined at:
  2481 ;;		line 5 in file "C:\Program Files (x86)\Microchip\xc8\v2.10\pic\sources\c90\common\__lldiv.c"
  2482 ;; Parameters:    Size  Location     Type
  2483 ;;  divisor         4    0[BANK1 ] unsigned long 
  2484 ;;  dividend        4    4[BANK1 ] unsigned long 
  2485 ;; Auto vars:     Size  Location     Type
  2486 ;;  quotient        4    9[BANK1 ] unsigned long 
  2487 ;;  counter         1   13[BANK1 ] unsigned char 
  2488 ;; Return value:  Size  Location     Type
  2489 ;;                  4    0[BANK1 ] unsigned long 
  2490 ;; Registers used:
  2491 ;;		wreg, status,2, status,0
  2492 ;; Tracked objects:
  2493 ;;		On entry : 0/0
  2494 ;;		On exit  : 0/0
  2495 ;;		Unchanged: 0/0
  2496 ;; Data sizes:     COMMON   BANK0   BANK1   BANK3   BANK2
  2497 ;;      Params:         0       0       8       0       0
  2498 ;;      Locals:         0       0       5       0       0
  2499 ;;      Temps:          0       0       1       0       0
  2500 ;;      Totals:         0       0      14       0       0
  2501 ;;Total ram usage:       14 bytes
  2502 ;; Hardware stack levels used:    1
  2503 ;; Hardware stack levels required when called:    5
  2504 ;; This function calls:
  2505 ;;		Nothing
  2506 ;; This function is called by:
  2507 ;;		_I2C1_Init
  2508 ;; This function uses a non-reentrant model
  2509 ;;
  2510                           
  2511                           
  2512                           ;psect for function ___lldiv
  2513  0EBE                     ___lldiv:	
  2514  0EBE                     l2268:	
  2515                           ;incstack = 0
  2516                           ; Regs used in ___lldiv: [wreg+status,2+status,0]
  2517                           
  2518  0EBE  3000               	movlw	0
  2519  0EBF  1683               	bsf	3,5	;RP0=1, select bank1
  2520  0EC0  1303               	bcf	3,6	;RP1=0, select bank1
  2521  0EC1  00AC               	movwf	(___lldiv@quotient+3)^(0+128)
  2522  0EC2  3000               	movlw	0
  2523  0EC3  00AB               	movwf	(___lldiv@quotient+2)^(0+128)
  2524  0EC4  3000               	movlw	0
  2525  0EC5  00AA               	movwf	(___lldiv@quotient+1)^(0+128)
  2526  0EC6  3000               	movlw	0
  2527  0EC7  00A9               	movwf	___lldiv@quotient^(0+128)
  2528  0EC8  0823               	movf	(___lldiv@divisor+3)^(0+128),w
  2529  0EC9  0422               	iorwf	(___lldiv@divisor+2)^(0+128),w
  2530  0ECA  0421               	iorwf	(___lldiv@divisor+1)^(0+128),w
  2531  0ECB  0420               	iorwf	___lldiv@divisor^(0+128),w
  2532  0ECC  1903               	skipnz
  2533  0ECD  2ECF               	goto	u1621
  2534  0ECE  2ED0               	goto	u1620
  2535  0ECF                     u1621:	
  2536  0ECF  2F1D               	goto	l2288
  2537  0ED0                     u1620:	
  2538  0ED0                     l2270:	
  2539  0ED0  01AD               	clrf	___lldiv@counter^(0+128)
  2540  0ED1  0AAD               	incf	___lldiv@counter^(0+128),f
  2541  0ED2  2EE0               	goto	l2274
  2542  0ED3                     l2272:	
  2543  0ED3  3001               	movlw	1
  2544  0ED4  00A8               	movwf	??___lldiv^(0+128)
  2545  0ED5                     u1635:	
  2546  0ED5  1003               	clrc
  2547  0ED6  0DA0               	rlf	___lldiv@divisor^(0+128),f
  2548  0ED7  0DA1               	rlf	(___lldiv@divisor+1)^(0+128),f
  2549  0ED8  0DA2               	rlf	(___lldiv@divisor+2)^(0+128),f
  2550  0ED9  0DA3               	rlf	(___lldiv@divisor+3)^(0+128),f
  2551  0EDA  0BA8               	decfsz	??___lldiv^(0+128),f
  2552  0EDB  2ED5               	goto	u1635
  2553  0EDC  3001               	movlw	1
  2554  0EDD  00A8               	movwf	??___lldiv^(0+128)
  2555  0EDE  0828               	movf	??___lldiv^(0+128),w
  2556  0EDF  07AD               	addwf	___lldiv@counter^(0+128),f
  2557  0EE0                     l2274:	
  2558  0EE0  1FA3               	btfss	(___lldiv@divisor+3)^(0+128),7
  2559  0EE1  2EE3               	goto	u1641
  2560  0EE2  2EE4               	goto	u1640
  2561  0EE3                     u1641:	
  2562  0EE3  2ED3               	goto	l2272
  2563  0EE4                     u1640:	
  2564  0EE4                     l2276:	
  2565  0EE4  3001               	movlw	1
  2566  0EE5  00A8               	movwf	??___lldiv^(0+128)
  2567  0EE6                     u1655:	
  2568  0EE6  1003               	clrc
  2569  0EE7  0DA9               	rlf	___lldiv@quotient^(0+128),f
  2570  0EE8  0DAA               	rlf	(___lldiv@quotient+1)^(0+128),f
  2571  0EE9  0DAB               	rlf	(___lldiv@quotient+2)^(0+128),f
  2572  0EEA  0DAC               	rlf	(___lldiv@quotient+3)^(0+128),f
  2573  0EEB  0BA8               	decfsz	??___lldiv^(0+128),f
  2574  0EEC  2EE6               	goto	u1655
  2575  0EED                     l2278:	
  2576  0EED  0823               	movf	(___lldiv@divisor+3)^(0+128),w
  2577  0EEE  0227               	subwf	(___lldiv@dividend+3)^(0+128),w
  2578  0EEF  1D03               	skipz
  2579  0EF0  2EFB               	goto	u1665
  2580  0EF1  0822               	movf	(___lldiv@divisor+2)^(0+128),w
  2581  0EF2  0226               	subwf	(___lldiv@dividend+2)^(0+128),w
  2582  0EF3  1D03               	skipz
  2583  0EF4  2EFB               	goto	u1665
  2584  0EF5  0821               	movf	(___lldiv@divisor+1)^(0+128),w
  2585  0EF6  0225               	subwf	(___lldiv@dividend+1)^(0+128),w
  2586  0EF7  1D03               	skipz
  2587  0EF8  2EFB               	goto	u1665
  2588  0EF9  0820               	movf	___lldiv@divisor^(0+128),w
  2589  0EFA  0224               	subwf	___lldiv@dividend^(0+128),w
  2590  0EFB                     u1665:	
  2591  0EFB  1C03               	skipc
  2592  0EFC  2EFE               	goto	u1661
  2593  0EFD  2EFF               	goto	u1660
  2594  0EFE                     u1661:	
  2595  0EFE  2F0E               	goto	l2284
  2596  0EFF                     u1660:	
  2597  0EFF                     l2280:	
  2598  0EFF  0820               	movf	___lldiv@divisor^(0+128),w
  2599  0F00  02A4               	subwf	___lldiv@dividend^(0+128),f
  2600  0F01  0821               	movf	(___lldiv@divisor+1)^(0+128),w
  2601  0F02  1C03               	skipc
  2602  0F03  0F21               	incfsz	(___lldiv@divisor+1)^(0+128),w
  2603  0F04  02A5               	subwf	(___lldiv@dividend+1)^(0+128),f
  2604  0F05  0822               	movf	(___lldiv@divisor+2)^(0+128),w
  2605  0F06  1C03               	skipc
  2606  0F07  0F22               	incfsz	(___lldiv@divisor+2)^(0+128),w
  2607  0F08  02A6               	subwf	(___lldiv@dividend+2)^(0+128),f
  2608  0F09  0823               	movf	(___lldiv@divisor+3)^(0+128),w
  2609  0F0A  1C03               	skipc
  2610  0F0B  0F23               	incfsz	(___lldiv@divisor+3)^(0+128),w
  2611  0F0C  02A7               	subwf	(___lldiv@dividend+3)^(0+128),f
  2612  0F0D                     l2282:	
  2613  0F0D  1429               	bsf	___lldiv@quotient^(0+128),0
  2614  0F0E                     l2284:	
  2615  0F0E  3001               	movlw	1
  2616  0F0F                     u1675:	
  2617  0F0F  1003               	clrc
  2618  0F10  0CA3               	rrf	(___lldiv@divisor+3)^(0+128),f
  2619  0F11  0CA2               	rrf	(___lldiv@divisor+2)^(0+128),f
  2620  0F12  0CA1               	rrf	(___lldiv@divisor+1)^(0+128),f
  2621  0F13  0CA0               	rrf	___lldiv@divisor^(0+128),f
  2622  0F14  3EFF               	addlw	-1
  2623  0F15  1D03               	skipz
  2624  0F16  2F0F               	goto	u1675
  2625  0F17                     l2286:	
  2626  0F17  3001               	movlw	1
  2627  0F18  02AD               	subwf	___lldiv@counter^(0+128),f
  2628  0F19  1D03               	btfss	3,2
  2629  0F1A  2F1C               	goto	u1681
  2630  0F1B  2F1D               	goto	u1680
  2631  0F1C                     u1681:	
  2632  0F1C  2EE4               	goto	l2276
  2633  0F1D                     u1680:	
  2634  0F1D                     l2288:	
  2635  0F1D  082C               	movf	(___lldiv@quotient+3)^(0+128),w
  2636  0F1E  00A3               	movwf	(?___lldiv+3)^(0+128)
  2637  0F1F  082B               	movf	(___lldiv@quotient+2)^(0+128),w
  2638  0F20  00A2               	movwf	(?___lldiv+2)^(0+128)
  2639  0F21  082A               	movf	(___lldiv@quotient+1)^(0+128),w
  2640  0F22  00A1               	movwf	(?___lldiv+1)^(0+128)
  2641  0F23  0829               	movf	___lldiv@quotient^(0+128),w
  2642  0F24  00A0               	movwf	?___lldiv^(0+128)
  2643  0F25                     l488:	
  2644  0F25  0008               	return
  2645  0F26                     __end_of___lldiv:	
  2646                           
  2647                           	psect	text16
  2648  06EC                     __ptext16:	
  2649 ;; *************** function _isr *****************
  2650 ;; Defined at:
  2651 ;;		line 75 in file "main_app.c"
  2652 ;; Parameters:    Size  Location     Type
  2653 ;;		None
  2654 ;; Auto vars:     Size  Location     Type
  2655 ;;		None
  2656 ;; Return value:  Size  Location     Type
  2657 ;;                  1    wreg      void 
  2658 ;; Registers used:
  2659 ;;		wreg, fsr0l, fsr0h, status,2, status,0, btemp+1, pclath, cstack
  2660 ;; Tracked objects:
  2661 ;;		On entry : 0/0
  2662 ;;		On exit  : 0/0
  2663 ;;		Unchanged: 0/0
  2664 ;; Data sizes:     COMMON   BANK0   BANK1   BANK3   BANK2
  2665 ;;      Params:         0       0       0       0       0
  2666 ;;      Locals:         0       0       0       0       0
  2667 ;;      Temps:          0       6       0       0       0
  2668 ;;      Totals:         0       6       0       0       0
  2669 ;;Total ram usage:        6 bytes
  2670 ;; Hardware stack levels used:    1
  2671 ;; Hardware stack levels required when called:    4
  2672 ;; This function calls:
  2673 ;;		_led
  2674 ;;		_ssd_blink
  2675 ;;		_ssd_turn_off
  2676 ;;		_ssd_update
  2677 ;;		_start_timer
  2678 ;;		_stop_timer
  2679 ;;		_sw_action
  2680 ;;		_switch_scan
  2681 ;;		_temp_control_off
  2682 ;;		_temp_sensor_read
  2683 ;;		_temp_set
  2684 ;; This function is called by:
  2685 ;;		Interrupt level 1
  2686 ;; This function uses a non-reentrant model
  2687 ;;
  2688                           
  2689                           
  2690                           ;psect for function _isr
  2691  06EC                     _isr:	
  2692  06EC                     i1l3100:	
  2693                           
  2694                           ;main_app.c: 76:     TMR2 = 131 ;
  2695  06EC  3083               	movlw	131
  2696  06ED  0091               	movwf	17	;volatile
  2697  06EE                     i1l3102:	
  2698                           
  2699                           ;main_app.c: 78:     if(PIR1 & (1 << 1)){
  2700  06EE  1C8C               	btfss	12,1	;volatile
  2701  06EF  2EF1               	goto	u312_21
  2702  06F0  2EF2               	goto	u312_20
  2703  06F1                     u312_21:	
  2704  06F1  2F42               	goto	i1l67
  2705  06F2                     u312_20:	
  2706  06F2                     i1l3104:	
  2707                           
  2708                           ;main_app.c: 79:        (PIR1 &= ~(1 << 1));
  2709  06F2  30FD               	movlw	253
  2710  06F3  00D0               	movwf	??_isr
  2711  06F4  0850               	movf	??_isr,w
  2712  06F5  058C               	andwf	12,f	;volatile
  2713                           
  2714                           ;main_app.c: 80:        switch (mode){
  2715  06F6  2F32               	goto	i1l3126
  2716  06F7                     i1l3106:	
  2717                           
  2718                           ;main_app.c: 84:                 hold_temp = temp_sensor_read ();
  2719  06F7  120A  118A  2574  120A  118A  	fcall	_temp_sensor_read
  2720  06FC  1283               	bcf	3,5	;RP0=0, select bank0
  2721  06FD  1303               	bcf	3,6	;RP1=0, select bank0
  2722  06FE  00D0               	movwf	??_isr
  2723  06FF  0850               	movf	??_isr,w
  2724  0700  00E5               	movwf	_hold_temp
  2725  0701                     i1l3108:	
  2726                           
  2727                           ;main_app.c: 85:                 ssd_update(hold_temp);
  2728  0701  0865               	movf	_hold_temp,w
  2729  0702  120A  158A  2792  120A  118A  	fcall	_ssd_update
  2730  0707                     i1l3110:	
  2731                           
  2732                           ;main_app.c: 86:                 temp_set (hold_temp);
  2733  0707  1283               	bcf	3,5	;RP0=0, select bank0
  2734  0708  1303               	bcf	3,6	;RP1=0, select bank0
  2735  0709  0865               	movf	_hold_temp,w
  2736  070A  120A  158A  254B  120A  118A  	fcall	_temp_set
  2737  070F                     i1l3112:	
  2738                           
  2739                           ;main_app.c: 87:                 led();
  2740  070F  120A  158A  2410  120A  118A  	fcall	_led
  2741  0714                     i1l3114:	
  2742                           
  2743                           ;main_app.c: 88:                 switch_scan();
  2744  0714  120A  158A  22A6  120A  118A  	fcall	_switch_scan
  2745  0719                     i1l3116:	
  2746                           
  2747                           ;main_app.c: 89:                 sw_action();
  2748  0719  120A  158A  2726  120A  118A  	fcall	_sw_action
  2749                           
  2750                           ;main_app.c: 90:                 break;
  2751  071E  2F42               	goto	i1l67
  2752  071F                     i1l3118:	
  2753                           
  2754                           ;main_app.c: 94:                 switch_scan();
  2755  071F  120A  158A  22A6  120A  118A  	fcall	_switch_scan
  2756  0724                     i1l3120:	
  2757                           
  2758                           ;main_app.c: 95:                 sw_action();
  2759  0724  120A  158A  2726  120A  118A  	fcall	_sw_action
  2760  0729                     i1l3122:	
  2761                           
  2762                           ;main_app.c: 96:                 ssd_blink(set_temp);
  2763  0729  1283               	bcf	3,5	;RP0=0, select bank0
  2764  072A  1303               	bcf	3,6	;RP1=0, select bank0
  2765  072B  0866               	movf	_set_temp,w
  2766  072C  120A  158A  2478  120A  118A  	fcall	_ssd_blink
  2767                           
  2768                           ;main_app.c: 97:                 break;
  2769  0731  2F42               	goto	i1l67
  2770  0732                     i1l3126:	
  2771  0732  0864               	movf	_mode,w
  2772  0733  00D0               	movwf	??_isr
  2773  0734  01D1               	clrf	??_isr+1
  2774                           
  2775                           ; Switch on 2 bytes has been partitioned into a top level switch of size 1, and 1 sub-sw
      +                          itches
  2776                           ; Switch size 1, requested type "simple"
  2777                           ; Number of cases is 1, Range of values is 0 to 0
  2778                           ; switch strategies available:
  2779                           ; Name         Instructions Cycles
  2780                           ; simple_byte            4     3 (average)
  2781                           ; direct_byte           11     8 (fixed)
  2782                           ; jumptable            260     6 (fixed)
  2783                           ;	Chosen strategy is simple_byte
  2784  0735  0851               	movf	??_isr+1,w
  2785  0736  3A00               	xorlw	0	; case 0
  2786  0737  1903               	skipnz
  2787  0738  2F3A               	goto	i1l3302
  2788  0739  2F42               	goto	i1l67
  2789  073A                     i1l3302:	
  2790                           
  2791                           ; Switch size 1, requested type "simple"
  2792                           ; Number of cases is 2, Range of values is 0 to 1
  2793                           ; switch strategies available:
  2794                           ; Name         Instructions Cycles
  2795                           ; simple_byte            7     4 (average)
  2796                           ; direct_byte           14     8 (fixed)
  2797                           ; jumptable            260     6 (fixed)
  2798                           ;	Chosen strategy is simple_byte
  2799  073A  0850               	movf	??_isr,w
  2800  073B  3A00               	xorlw	0	; case 0
  2801  073C  1903               	skipnz
  2802  073D  2EF7               	goto	i1l3106
  2803  073E  3A01               	xorlw	1	; case 1
  2804  073F  1903               	skipnz
  2805  0740  2F1F               	goto	i1l3118
  2806  0741  2F42               	goto	i1l67
  2807  0742                     i1l67:	
  2808                           ;main_app.c: 102:     }
  2809                           
  2810                           
  2811                           ;main_app.c: 105:     if (INTCON & (1 << 1)){
  2812  0742  1C8B               	btfss	11,1	;volatile
  2813  0743  2F45               	goto	u313_21
  2814  0744  2F46               	goto	u313_20
  2815  0745                     u313_21:	
  2816  0745  2F76               	goto	i1l78
  2817  0746                     u313_20:	
  2818  0746                     i1l3128:	
  2819                           
  2820                           ;main_app.c: 106:         (INTCON &= ~(1 << 1));
  2821  0746  30FD               	movlw	253
  2822  0747  1283               	bcf	3,5	;RP0=0, select bank0
  2823  0748  1303               	bcf	3,6	;RP1=0, select bank0
  2824  0749  00D0               	movwf	??_isr
  2825  074A  0850               	movf	??_isr,w
  2826  074B  058B               	andwf	11,f	;volatile
  2827                           
  2828                           ;main_app.c: 107:         switch (power_mode){
  2829  074C  2F66               	goto	i1l3138
  2830  074D                     i1l75:	
  2831                           ;main_app.c: 109:             case ON_STATE :
  2832                           
  2833                           
  2834                           ;main_app.c: 110:                 power_mode = OFF_STATE ;
  2835  074D  01E3               	clrf	_power_mode
  2836  074E  0AE3               	incf	_power_mode,f
  2837  074F                     i1l3130:	
  2838                           
  2839                           ;main_app.c: 111:                 stop_timer();
  2840  074F  120A  158A  21E9  120A  118A  	fcall	_stop_timer
  2841                           
  2842                           ;main_app.c: 112:                 ssd_turn_off();
  2843  0754  120A  158A  222C  120A  118A  	fcall	_ssd_turn_off
  2844                           
  2845                           ;main_app.c: 113:                 temp_control_off();
  2846  0759  120A  158A  2281  120A  118A  	fcall	_temp_control_off
  2847                           
  2848                           ;main_app.c: 114:                 break;
  2849  075E  2F76               	goto	i1l78
  2850  075F                     i1l3132:	
  2851                           
  2852                           ;main_app.c: 117:                 power_mode = ON_STATE ;
  2853  075F  01E3               	clrf	_power_mode
  2854  0760                     i1l3134:	
  2855                           
  2856                           ;main_app.c: 118:                 start_timer();
  2857  0760  120A  158A  21E3  120A  118A  	fcall	_start_timer
  2858                           
  2859                           ;main_app.c: 119:                 break;
  2860  0765  2F76               	goto	i1l78
  2861  0766                     i1l3138:	
  2862  0766  0863               	movf	_power_mode,w
  2863  0767  00D0               	movwf	??_isr
  2864  0768  01D1               	clrf	??_isr+1
  2865                           
  2866                           ; Switch on 2 bytes has been partitioned into a top level switch of size 1, and 1 sub-sw
      +                          itches
  2867                           ; Switch size 1, requested type "simple"
  2868                           ; Number of cases is 1, Range of values is 0 to 0
  2869                           ; switch strategies available:
  2870                           ; Name         Instructions Cycles
  2871                           ; simple_byte            4     3 (average)
  2872                           ; direct_byte           11     8 (fixed)
  2873                           ; jumptable            260     6 (fixed)
  2874                           ;	Chosen strategy is simple_byte
  2875  0769  0851               	movf	??_isr+1,w
  2876  076A  3A00               	xorlw	0	; case 0
  2877  076B  1903               	skipnz
  2878  076C  2F6E               	goto	i1l3304
  2879  076D  2F76               	goto	i1l78
  2880  076E                     i1l3304:	
  2881                           
  2882                           ; Switch size 1, requested type "simple"
  2883                           ; Number of cases is 2, Range of values is 0 to 1
  2884                           ; switch strategies available:
  2885                           ; Name         Instructions Cycles
  2886                           ; simple_byte            7     4 (average)
  2887                           ; direct_byte           14     8 (fixed)
  2888                           ; jumptable            260     6 (fixed)
  2889                           ;	Chosen strategy is simple_byte
  2890  076E  0850               	movf	??_isr,w
  2891  076F  3A00               	xorlw	0	; case 0
  2892  0770  1903               	skipnz
  2893  0771  2F4D               	goto	i1l75
  2894  0772  3A01               	xorlw	1	; case 1
  2895  0773  1903               	skipnz
  2896  0774  2F5F               	goto	i1l3132
  2897  0775  2F76               	goto	i1l78
  2898  0776                     i1l78:	
  2899  0776  1283               	bcf	3,5	;RP0=0, select bank0
  2900  0777  1303               	bcf	3,6	;RP1=0, select bank0
  2901  0778  0855               	movf	??_isr+5,w
  2902  0779  00FF               	movwf	btemp+1
  2903  077A  0854               	movf	??_isr+4,w
  2904  077B  008A               	movwf	10
  2905  077C  0853               	movf	??_isr+3,w
  2906  077D  0084               	movwf	4
  2907  077E  0E52               	swapf	(??_isr+2)^0,w
  2908  077F  0083               	movwf	3
  2909  0780  0EFE               	swapf	btemp,f
  2910  0781  0E7E               	swapf	btemp,w
  2911  0782  0009               	retfie
  2912  0783                     __end_of_isr:	
  2913                           
  2914                           	psect	intentry
  2915  0004                     __pintentry:	
  2916                           ;incstack = 0
  2917                           ; Regs used in _isr: [wreg-fsr0h+status,2+status,0+btemp+1+pclath+cstack]
  2918                           
  2919  0004                     interrupt_function:	
  2920  007E                     saved_w	set	btemp
  2921  0004  00FE               	movwf	btemp
  2922  0005  0E03               	swapf	3,w
  2923  0006  1283               	bcf	3,5	;RP0=0, select bank0
  2924  0007  1303               	bcf	3,6	;RP1=0, select bank0
  2925  0008  00D2               	movwf	??_isr+2
  2926  0009  0804               	movf	4,w
  2927  000A  00D3               	movwf	??_isr+3
  2928  000B  080A               	movf	10,w
  2929  000C  00D4               	movwf	??_isr+4
  2930  000D  087F               	movf	btemp+1,w
  2931  000E  00D5               	movwf	??_isr+5
  2932  000F  120A  118A  2EEC   	ljmp	_isr
  2933                           
  2934                           	psect	text17
  2935  0D4B                     __ptext17:	
  2936 ;; *************** function _temp_set *****************
  2937 ;; Defined at:
  2938 ;;		line 32 in file "temp_control.c"
  2939 ;; Parameters:    Size  Location     Type
  2940 ;;  temp            1    wreg     unsigned char 
  2941 ;; Auto vars:     Size  Location     Type
  2942 ;;  temp            1    3[COMMON] unsigned char 
  2943 ;; Return value:  Size  Location     Type
  2944 ;;                  1    wreg      void 
  2945 ;; Registers used:
  2946 ;;		wreg, status,2, status,0
  2947 ;; Tracked objects:
  2948 ;;		On entry : 0/0
  2949 ;;		On exit  : 0/0
  2950 ;;		Unchanged: 0/0
  2951 ;; Data sizes:     COMMON   BANK0   BANK1   BANK3   BANK2
  2952 ;;      Params:         0       0       0       0       0
  2953 ;;      Locals:         1       0       0       0       0
  2954 ;;      Temps:          3       0       0       0       0
  2955 ;;      Totals:         4       0       0       0       0
  2956 ;;Total ram usage:        4 bytes
  2957 ;; Hardware stack levels used:    1
  2958 ;; This function calls:
  2959 ;;		Nothing
  2960 ;; This function is called by:
  2961 ;;		_isr
  2962 ;; This function uses a non-reentrant model
  2963 ;;
  2964                           
  2965                           
  2966                           ;psect for function _temp_set
  2967  0D4B                     _temp_set:	
  2968                           
  2969                           ;incstack = 0
  2970                           ; Regs used in _temp_set: [wreg+status,2+status,0]
  2971                           ;temp_set@temp stored from wreg
  2972  0D4B  00F3               	movwf	temp_set@temp
  2973  0D4C                     i1l2916:	
  2974                           
  2975                           ;temp_control.c: 33:     if ( temp < (set_temp - 5 ) ){
  2976  0D4C  1283               	bcf	3,5	;RP0=0, select bank0
  2977  0D4D  1303               	bcf	3,6	;RP1=0, select bank0
  2978  0D4E  0866               	movf	_set_temp,w
  2979  0D4F  3EFB               	addlw	251
  2980  0D50  00F0               	movwf	??_temp_set
  2981  0D51  30FF               	movlw	255
  2982  0D52  1803               	skipnc
  2983  0D53  3000               	movlw	0
  2984  0D54  00F1               	movwf	??_temp_set+1
  2985  0D55  0871               	movf	??_temp_set+1,w
  2986  0D56  3A80               	xorlw	128
  2987  0D57  3C80               	sublw	128
  2988  0D58  1D03               	skipz
  2989  0D59  2D5C               	goto	u296_25
  2990  0D5A  0870               	movf	??_temp_set,w
  2991  0D5B  0273               	subwf	temp_set@temp,w
  2992  0D5C                     u296_25:	
  2993  0D5C  1803               	skipnc
  2994  0D5D  2D5F               	goto	u296_21
  2995  0D5E  2D60               	goto	u296_20
  2996  0D5F                     u296_21:	
  2997  0D5F  2D69               	goto	i1l2924
  2998  0D60                     u296_20:	
  2999  0D60                     i1l2918:	
  3000                           
  3001                           ;temp_control.c: 34:         (PORTC |= (1 << 5));
  3002  0D60  1283               	bcf	3,5	;RP0=0, select bank0
  3003  0D61  1303               	bcf	3,6	;RP1=0, select bank0
  3004  0D62  1687               	bsf	7,5	;volatile
  3005  0D63                     i1l2920:	
  3006                           
  3007                           ;temp_control.c: 35:         (PORTC &= ~(1 << 2));
  3008  0D63  30FB               	movlw	251
  3009  0D64  00F0               	movwf	??_temp_set
  3010  0D65  0870               	movf	??_temp_set,w
  3011  0D66  0587               	andwf	7,f	;volatile
  3012  0D67                     i1l2922:	
  3013                           
  3014                           ;temp_control.c: 36:         state = HEATER_ON ;
  3015  0D67  01DE               	clrf	_state
  3016                           
  3017                           ;temp_control.c: 37:     }
  3018  0D68  2D9E               	goto	i1l306
  3019  0D69                     i1l2924:	
  3020  0D69  1283               	bcf	3,5	;RP0=0, select bank0
  3021  0D6A  1303               	bcf	3,6	;RP1=0, select bank0
  3022  0D6B  0866               	movf	_set_temp,w
  3023  0D6C  3E05               	addlw	5
  3024  0D6D  00F0               	movwf	??_temp_set
  3025  0D6E  3000               	movlw	0
  3026  0D6F  1803               	skipnc
  3027  0D70  3001               	movlw	1
  3028  0D71  00F1               	movwf	??_temp_set+1
  3029  0D72  0871               	movf	??_temp_set+1,w
  3030  0D73  3A80               	xorlw	128
  3031  0D74  00F2               	movwf	??_temp_set+2
  3032  0D75  3080               	movlw	128
  3033  0D76  0272               	subwf	??_temp_set+2,w
  3034  0D77  1D03               	skipz
  3035  0D78  2D7B               	goto	u297_25
  3036  0D79  0873               	movf	temp_set@temp,w
  3037  0D7A  0270               	subwf	??_temp_set,w
  3038  0D7B                     u297_25:	
  3039  0D7B  1803               	skipnc
  3040  0D7C  2D7E               	goto	u297_21
  3041  0D7D  2D7F               	goto	u297_20
  3042  0D7E                     u297_21:	
  3043  0D7E  2D89               	goto	i1l2932
  3044  0D7F                     u297_20:	
  3045  0D7F                     i1l2926:	
  3046                           
  3047                           ;temp_control.c: 39:         (PORTC |= (1 << 2));
  3048  0D7F  1283               	bcf	3,5	;RP0=0, select bank0
  3049  0D80  1303               	bcf	3,6	;RP1=0, select bank0
  3050  0D81  1507               	bsf	7,2	;volatile
  3051  0D82                     i1l2928:	
  3052                           
  3053                           ;temp_control.c: 40:         (PORTC &= ~(1 << 5));
  3054  0D82  30DF               	movlw	223
  3055  0D83  00F0               	movwf	??_temp_set
  3056  0D84  0870               	movf	??_temp_set,w
  3057  0D85  0587               	andwf	7,f	;volatile
  3058  0D86                     i1l2930:	
  3059                           
  3060                           ;temp_control.c: 41:         state = COOLER_ON ;
  3061  0D86  01DE               	clrf	_state
  3062  0D87  0ADE               	incf	_state,f
  3063                           
  3064                           ;temp_control.c: 42:     }
  3065  0D88  2D9E               	goto	i1l306
  3066  0D89                     i1l2932:	
  3067  0D89  0873               	movf	temp_set@temp,w
  3068  0D8A  1283               	bcf	3,5	;RP0=0, select bank0
  3069  0D8B  1303               	bcf	3,6	;RP1=0, select bank0
  3070  0D8C  0666               	xorwf	_set_temp,w
  3071  0D8D  1D03               	skipz
  3072  0D8E  2D90               	goto	u298_21
  3073  0D8F  2D91               	goto	u298_20
  3074  0D90                     u298_21:	
  3075  0D90  2D9E               	goto	i1l303
  3076  0D91                     u298_20:	
  3077  0D91                     i1l2934:	
  3078                           
  3079                           ;temp_control.c: 44:         (PORTC &= ~(1 << 2));
  3080  0D91  30FB               	movlw	251
  3081  0D92  00F0               	movwf	??_temp_set
  3082  0D93  0870               	movf	??_temp_set,w
  3083  0D94  0587               	andwf	7,f	;volatile
  3084                           
  3085                           ;temp_control.c: 45:         (PORTC &= ~(1 << 5));
  3086  0D95  30DF               	movlw	223
  3087  0D96  00F0               	movwf	??_temp_set
  3088  0D97  0870               	movf	??_temp_set,w
  3089  0D98  0587               	andwf	7,f	;volatile
  3090  0D99                     i1l2936:	
  3091                           
  3092                           ;temp_control.c: 46:         state = IDEL_STATE ;
  3093  0D99  3002               	movlw	2
  3094  0D9A  00F0               	movwf	??_temp_set
  3095  0D9B  0870               	movf	??_temp_set,w
  3096  0D9C  00DE               	movwf	_state
  3097                           
  3098                           ;temp_control.c: 47:     }
  3099  0D9D  2D9E               	goto	i1l306
  3100  0D9E                     i1l303:	
  3101  0D9E                     i1l306:	
  3102  0D9E  0008               	return
  3103  0D9F                     __end_of_temp_set:	
  3104                           
  3105                           	psect	text18
  3106  0574                     __ptext18:	
  3107 ;; *************** function _temp_sensor_read *****************
  3108 ;; Defined at:
  3109 ;;		line 37 in file "temp_sensor.c"
  3110 ;; Parameters:    Size  Location     Type
  3111 ;;		None
  3112 ;; Auto vars:     Size  Location     Type
  3113 ;;		None
  3114 ;; Return value:  Size  Location     Type
  3115 ;;                  1    wreg      unsigned char 
  3116 ;; Registers used:
  3117 ;;		wreg, fsr0l, fsr0h, status,2, status,0, btemp+1, pclath, cstack
  3118 ;; Tracked objects:
  3119 ;;		On entry : 0/0
  3120 ;;		On exit  : 0/0
  3121 ;;		Unchanged: 0/0
  3122 ;; Data sizes:     COMMON   BANK0   BANK1   BANK3   BANK2
  3123 ;;      Params:         0       0       0       0       0
  3124 ;;      Locals:         0       0       0       0       0
  3125 ;;      Temps:          0       5       0       0       0
  3126 ;;      Totals:         0       5       0       0       0
  3127 ;;Total ram usage:        5 bytes
  3128 ;; Hardware stack levels used:    1
  3129 ;; Hardware stack levels required when called:    2
  3130 ;; This function calls:
  3131 ;;		_ADC_Read
  3132 ;;		___fldiv
  3133 ;;		___flmul
  3134 ;;		___fltol
  3135 ;;		___xxtofl
  3136 ;;		_average
  3137 ;; This function is called by:
  3138 ;;		_isr
  3139 ;; This function uses a non-reentrant model
  3140 ;;
  3141                           
  3142                           
  3143                           ;psect for function _temp_sensor_read
  3144  0574                     _temp_sensor_read:	
  3145  0574                     i1l2892:	
  3146                           ;incstack = 0
  3147                           ; Regs used in _temp_sensor_read: [wreg-fsr0h+status,2+status,0+btemp+1+pclath+cstack]
  3148                           
  3149                           
  3150                           ;temp_sensor.c: 38:     temp_timer += 1;
  3151  0574  3001               	movlw	1
  3152  0575  1283               	bcf	3,5	;RP0=0, select bank0
  3153  0576  1303               	bcf	3,6	;RP1=0, select bank0
  3154  0577  00CB               	movwf	??_temp_sensor_read
  3155  0578  084B               	movf	??_temp_sensor_read,w
  3156  0579  07E9               	addwf	_temp_timer,f
  3157                           
  3158                           ;temp_sensor.c: 40:     if( temp_timer == 100 ){
  3159  057A  3064               	movlw	100
  3160  057B  0669               	xorwf	_temp_timer,w
  3161  057C  1D03               	btfss	3,2
  3162  057D  2D7F               	goto	u294_21
  3163  057E  2D80               	goto	u294_20
  3164  057F                     u294_21:	
  3165  057F  2E2E               	goto	i1l2906
  3166  0580                     u294_20:	
  3167  0580                     i1l2894:	
  3168                           
  3169                           ;temp_sensor.c: 42:         temp_hold_array[i] = (ADC_Read(2) * 4.89 ) ;
  3170  0580  3002               	movlw	2
  3171  0581  120A  158A  2387  120A  118A  	fcall	_ADC_Read
  3172  0586  0870               	movf	?_ADC_Read,w
  3173  0587  1283               	bcf	3,5	;RP0=0, select bank0
  3174  0588  1303               	bcf	3,6	;RP1=0, select bank0
  3175  0589  00CB               	movwf	??_temp_sensor_read
  3176  058A  0871               	movf	?_ADC_Read+1,w
  3177  058B  00CC               	movwf	??_temp_sensor_read+1
  3178  058C  01CD               	clrf	??_temp_sensor_read+2
  3179  058D  01CE               	clrf	??_temp_sensor_read+3
  3180  058E  084E               	movf	??_temp_sensor_read+3,w
  3181  058F  00F8               	movwf	___xxtofl@val+3
  3182  0590  084D               	movf	??_temp_sensor_read+2,w
  3183  0591  00F7               	movwf	___xxtofl@val+2
  3184  0592  084C               	movf	??_temp_sensor_read+1,w
  3185  0593  00F6               	movwf	___xxtofl@val+1
  3186  0594  084B               	movf	??_temp_sensor_read,w
  3187  0595  00F5               	movwf	___xxtofl@val
  3188  0596  3000               	movlw	0
  3189  0597  120A  118A  2630  120A  118A  	fcall	___xxtofl
  3190  059C  0878               	movf	?___xxtofl+3,w
  3191  059D  1283               	bcf	3,5	;RP0=0, select bank0
  3192  059E  1303               	bcf	3,6	;RP1=0, select bank0
  3193  059F  00AD               	movwf	___flmul@a+3
  3194  05A0  0877               	movf	?___xxtofl+2,w
  3195  05A1  00AC               	movwf	___flmul@a+2
  3196  05A2  0876               	movf	?___xxtofl+1,w
  3197  05A3  00AB               	movwf	___flmul@a+1
  3198  05A4  0875               	movf	?___xxtofl,w
  3199  05A5  00AA               	movwf	___flmul@a
  3200  05A6  3040               	movlw	64
  3201  05A7  00A9               	movwf	___flmul@b+3
  3202  05A8  309C               	movlw	156
  3203  05A9  00A8               	movwf	___flmul@b+2
  3204  05AA  307A               	movlw	122
  3205  05AB  00A7               	movwf	___flmul@b+1
  3206  05AC  30E1               	movlw	225
  3207  05AD  00A6               	movwf	___flmul@b
  3208  05AE  120A  118A  2036  120A  118A  	fcall	___flmul
  3209  05B3  1283               	bcf	3,5	;RP0=0, select bank0
  3210  05B4  1303               	bcf	3,6	;RP1=0, select bank0
  3211  05B5  0829               	movf	?___flmul+3,w
  3212  05B6  00C3               	movwf	___fltol@f1+3
  3213  05B7  0828               	movf	?___flmul+2,w
  3214  05B8  00C2               	movwf	___fltol@f1+2
  3215  05B9  0827               	movf	?___flmul+1,w
  3216  05BA  00C1               	movwf	___fltol@f1+1
  3217  05BB  0826               	movf	?___flmul,w
  3218  05BC  00C0               	movwf	___fltol@f1
  3219  05BD  120A  118A  2783  120A  118A  	fcall	___fltol
  3220  05C2  1283               	bcf	3,5	;RP0=0, select bank0
  3221  05C3  1303               	bcf	3,6	;RP1=0, select bank0
  3222  05C4  085D               	movf	_i,w
  3223  05C5  00CF               	movwf	??_temp_sensor_read+4
  3224  05C6  074F               	addwf	??_temp_sensor_read+4,w
  3225  05C7  3EB7               	addlw	(low (_temp_hold_array| 0))& (0+255)
  3226  05C8  0084               	movwf	4
  3227  05C9  0840               	movf	?___fltol,w
  3228  05CA  1383               	bcf	3,7	;select IRP bank1
  3229  05CB  0080               	movwf	0
  3230  05CC  0A84               	incf	4,f
  3231  05CD  0841               	movf	?___fltol+1,w
  3232  05CE  0080               	movwf	0
  3233                           
  3234                           ;temp_sensor.c: 43:         temp_hold_array[i] = temp_hold_array[i] / 10.0 ;
  3235  05CF  085D               	movf	_i,w
  3236  05D0  00CB               	movwf	??_temp_sensor_read
  3237  05D1  074B               	addwf	??_temp_sensor_read,w
  3238  05D2  3EB7               	addlw	(low (_temp_hold_array| 0))& (0+255)
  3239  05D3  0084               	movwf	4
  3240  05D4  0800               	movf	0,w
  3241  05D5  00CC               	movwf	??_temp_sensor_read+1
  3242  05D6  0A84               	incf	4,f
  3243  05D7  0800               	movf	0,w
  3244  05D8  00CD               	movwf	??_temp_sensor_read+2
  3245  05D9  084C               	movf	??_temp_sensor_read+1,w
  3246  05DA  00F5               	movwf	___xxtofl@val
  3247  05DB  084D               	movf	??_temp_sensor_read+2,w
  3248  05DC  00F6               	movwf	___xxtofl@val+1
  3249  05DD  01F7               	clrf	___xxtofl@val+2
  3250  05DE  01F8               	clrf	___xxtofl@val+3
  3251  05DF  3000               	movlw	0
  3252  05E0  120A  118A  2630  120A  118A  	fcall	___xxtofl
  3253  05E5  0878               	movf	?___xxtofl+3,w
  3254  05E6  1283               	bcf	3,5	;RP0=0, select bank0
  3255  05E7  1303               	bcf	3,6	;RP1=0, select bank0
  3256  05E8  00AD               	movwf	___fldiv@b+3
  3257  05E9  0877               	movf	?___xxtofl+2,w
  3258  05EA  00AC               	movwf	___fldiv@b+2
  3259  05EB  0876               	movf	?___xxtofl+1,w
  3260  05EC  00AB               	movwf	___fldiv@b+1
  3261  05ED  0875               	movf	?___xxtofl,w
  3262  05EE  00AA               	movwf	___fldiv@b
  3263  05EF  3041               	movlw	65
  3264  05F0  00A9               	movwf	___fldiv@a+3
  3265  05F1  3020               	movlw	32
  3266  05F2  00A8               	movwf	___fldiv@a+2
  3267  05F3  3000               	movlw	0
  3268  05F4  00A7               	movwf	___fldiv@a+1
  3269  05F5  3000               	movlw	0
  3270  05F6  00A6               	movwf	___fldiv@a
  3271  05F7  120A  118A  2397  120A  118A  	fcall	___fldiv
  3272  05FC  1283               	bcf	3,5	;RP0=0, select bank0
  3273  05FD  1303               	bcf	3,6	;RP1=0, select bank0
  3274  05FE  0829               	movf	?___fldiv+3,w
  3275  05FF  00C3               	movwf	___fltol@f1+3
  3276  0600  0828               	movf	?___fldiv+2,w
  3277  0601  00C2               	movwf	___fltol@f1+2
  3278  0602  0827               	movf	?___fldiv+1,w
  3279  0603  00C1               	movwf	___fltol@f1+1
  3280  0604  0826               	movf	?___fldiv,w
  3281  0605  00C0               	movwf	___fltol@f1
  3282  0606  120A  118A  2783  120A  118A  	fcall	___fltol
  3283  060B  1283               	bcf	3,5	;RP0=0, select bank0
  3284  060C  1303               	bcf	3,6	;RP1=0, select bank0
  3285  060D  085D               	movf	_i,w
  3286  060E  00CE               	movwf	??_temp_sensor_read+3
  3287  060F  074E               	addwf	??_temp_sensor_read+3,w
  3288  0610  3EB7               	addlw	(low (_temp_hold_array| 0))& (0+255)
  3289  0611  0084               	movwf	4
  3290  0612  0840               	movf	?___fltol,w
  3291  0613  1383               	bcf	3,7	;select IRP bank1
  3292  0614  0080               	movwf	0
  3293  0615  0A84               	incf	4,f
  3294  0616  0841               	movf	?___fltol+1,w
  3295  0617  0080               	movwf	0
  3296  0618                     i1l2896:	
  3297                           
  3298                           ;temp_sensor.c: 44:         i++ ;
  3299  0618  3001               	movlw	1
  3300  0619  00CB               	movwf	??_temp_sensor_read
  3301  061A  084B               	movf	??_temp_sensor_read,w
  3302  061B  07DD               	addwf	_i,f
  3303  061C                     i1l2898:	
  3304                           
  3305                           ;temp_sensor.c: 45:         temp_timer = 0 ;
  3306  061C  01E9               	clrf	_temp_timer
  3307  061D                     i1l2900:	
  3308                           
  3309                           ;temp_sensor.c: 46:         if (i == 10){i = 0 ;}
  3310  061D  300A               	movlw	10
  3311  061E  065D               	xorwf	_i,w
  3312  061F  1D03               	btfss	3,2
  3313  0620  2E22               	goto	u295_21
  3314  0621  2E23               	goto	u295_20
  3315  0622                     u295_21:	
  3316  0622  2E24               	goto	i1l2904
  3317  0623                     u295_20:	
  3318  0623                     i1l2902:	
  3319  0623  01DD               	clrf	_i
  3320  0624                     i1l2904:	
  3321                           
  3322                           ;temp_sensor.c: 47:         temp = average();
  3323  0624  120A  158A  23AF  120A  118A  	fcall	_average
  3324  0629  1283               	bcf	3,5	;RP0=0, select bank0
  3325  062A  1303               	bcf	3,6	;RP1=0, select bank0
  3326  062B  00CB               	movwf	??_temp_sensor_read
  3327  062C  084B               	movf	??_temp_sensor_read,w
  3328  062D  00DC               	movwf	_temp
  3329  062E                     i1l2906:	
  3330                           
  3331                           ;temp_sensor.c: 48:         return temp ;
  3332  062E  085C               	movf	_temp,w
  3333  062F                     i1l346:	
  3334  062F  0008               	return
  3335  0630                     __end_of_temp_sensor_read:	
  3336                           
  3337                           	psect	text19
  3338  0BAF                     __ptext19:	
  3339 ;; *************** function _average *****************
  3340 ;; Defined at:
  3341 ;;		line 23 in file "temp_sensor.c"
  3342 ;; Parameters:    Size  Location     Type
  3343 ;;		None
  3344 ;; Auto vars:     Size  Location     Type
  3345 ;;  sum             2   11[COMMON] unsigned int 
  3346 ;;  i               1   13[COMMON] unsigned char 
  3347 ;; Return value:  Size  Location     Type
  3348 ;;                  1    wreg      unsigned char 
  3349 ;; Registers used:
  3350 ;;		wreg, fsr0l, fsr0h, status,2, status,0, pclath, cstack
  3351 ;; Tracked objects:
  3352 ;;		On entry : 0/0
  3353 ;;		On exit  : 0/0
  3354 ;;		Unchanged: 0/0
  3355 ;; Data sizes:     COMMON   BANK0   BANK1   BANK3   BANK2
  3356 ;;      Params:         0       0       0       0       0
  3357 ;;      Locals:         3       0       0       0       0
  3358 ;;      Temps:          3       0       0       0       0
  3359 ;;      Totals:         6       0       0       0       0
  3360 ;;Total ram usage:        6 bytes
  3361 ;; Hardware stack levels used:    1
  3362 ;; Hardware stack levels required when called:    1
  3363 ;; This function calls:
  3364 ;;		___lwdiv
  3365 ;; This function is called by:
  3366 ;;		_temp_sensor_read
  3367 ;; This function uses a non-reentrant model
  3368 ;;
  3369                           
  3370                           
  3371                           ;psect for function _average
  3372  0BAF                     _average:	
  3373  0BAF                     i1l2514:	
  3374                           ;incstack = 0
  3375                           ; Regs used in _average: [wreg-fsr0h+status,2+status,0+pclath+cstack]
  3376                           
  3377                           
  3378                           ;temp_sensor.c: 24:     uint8_t i = 0 ;
  3379  0BAF  01FD               	clrf	average@i
  3380                           
  3381                           ;temp_sensor.c: 25:     uint16_t sum = 0 ;
  3382  0BB0  01FB               	clrf	average@sum
  3383  0BB1  01FC               	clrf	average@sum+1
  3384                           
  3385                           ;temp_sensor.c: 26:     for (i = 0 ; i < 10 ; i++){
  3386  0BB2  01FD               	clrf	average@i
  3387  0BB3                     i1l2520:	
  3388                           
  3389                           ;temp_sensor.c: 27:         sum = sum + temp_hold_array[i] ;
  3390  0BB3  087D               	movf	average@i,w
  3391  0BB4  00F8               	movwf	??_average
  3392  0BB5  0778               	addwf	??_average,w
  3393  0BB6  3EB7               	addlw	(low (_temp_hold_array| 0))& (0+255)
  3394  0BB7  0084               	movwf	4
  3395  0BB8  1383               	bcf	3,7	;select IRP bank1
  3396  0BB9  0800               	movf	0,w
  3397  0BBA  00F9               	movwf	??_average+1
  3398  0BBB  0A84               	incf	4,f
  3399  0BBC  0800               	movf	0,w
  3400  0BBD  00FA               	movwf	??_average+2
  3401  0BBE  087B               	movf	average@sum,w
  3402  0BBF  0779               	addwf	??_average+1,w
  3403  0BC0  00FB               	movwf	average@sum
  3404  0BC1  087C               	movf	average@sum+1,w
  3405  0BC2  1803               	skipnc
  3406  0BC3  0A7C               	incf	average@sum+1,w
  3407  0BC4  077A               	addwf	??_average+2,w
  3408  0BC5  00FC               	movwf	average@sum+1
  3409  0BC6                     i1l2522:	
  3410                           
  3411                           ;temp_sensor.c: 28:     }
  3412  0BC6  3001               	movlw	1
  3413  0BC7  00F8               	movwf	??_average
  3414  0BC8  0878               	movf	??_average,w
  3415  0BC9  07FD               	addwf	average@i,f
  3416  0BCA                     i1l2524:	
  3417  0BCA  300A               	movlw	10
  3418  0BCB  027D               	subwf	average@i,w
  3419  0BCC  1C03               	skipc
  3420  0BCD  2BCF               	goto	u203_21
  3421  0BCE  2BD0               	goto	u203_20
  3422  0BCF                     u203_21:	
  3423  0BCF  2BB3               	goto	i1l2520
  3424  0BD0                     u203_20:	
  3425  0BD0                     i1l2526:	
  3426                           
  3427                           ;temp_sensor.c: 29:     return (sum / 10) ;
  3428  0BD0  300A               	movlw	10
  3429  0BD1  00F0               	movwf	___lwdiv@divisor
  3430  0BD2  3000               	movlw	0
  3431  0BD3  00F1               	movwf	___lwdiv@divisor+1
  3432  0BD4  087C               	movf	average@sum+1,w
  3433  0BD5  00F3               	movwf	___lwdiv@dividend+1
  3434  0BD6  087B               	movf	average@sum,w
  3435  0BD7  00F2               	movwf	___lwdiv@dividend
  3436  0BD8  120A  158A  24BA  120A  158A  	fcall	___lwdiv
  3437  0BDD  0870               	movf	?___lwdiv,w
  3438  0BDE                     i1l341:	
  3439  0BDE  0008               	return
  3440  0BDF                     __end_of_average:	
  3441                           
  3442                           	psect	text20
  3443  0CBA                     __ptext20:	
  3444 ;; *************** function ___lwdiv *****************
  3445 ;; Defined at:
  3446 ;;		line 5 in file "C:\Program Files (x86)\Microchip\xc8\v2.10\pic\sources\c90\common\lwdiv.c"
  3447 ;; Parameters:    Size  Location     Type
  3448 ;;  divisor         2    0[COMMON] unsigned int 
  3449 ;;  dividend        2    2[COMMON] unsigned int 
  3450 ;; Auto vars:     Size  Location     Type
  3451 ;;  quotient        2    5[COMMON] unsigned int 
  3452 ;;  counter         1    7[COMMON] unsigned char 
  3453 ;; Return value:  Size  Location     Type
  3454 ;;                  2    0[COMMON] unsigned int 
  3455 ;; Registers used:
  3456 ;;		wreg, status,2, status,0
  3457 ;; Tracked objects:
  3458 ;;		On entry : 0/0
  3459 ;;		On exit  : 0/0
  3460 ;;		Unchanged: 0/0
  3461 ;; Data sizes:     COMMON   BANK0   BANK1   BANK3   BANK2
  3462 ;;      Params:         4       0       0       0       0
  3463 ;;      Locals:         3       0       0       0       0
  3464 ;;      Temps:          1       0       0       0       0
  3465 ;;      Totals:         8       0       0       0       0
  3466 ;;Total ram usage:        8 bytes
  3467 ;; Hardware stack levels used:    1
  3468 ;; This function calls:
  3469 ;;		Nothing
  3470 ;; This function is called by:
  3471 ;;		_average
  3472 ;; This function uses a non-reentrant model
  3473 ;;
  3474                           
  3475                           
  3476                           ;psect for function ___lwdiv
  3477  0CBA                     ___lwdiv:	
  3478  0CBA                     i1l2374:	
  3479                           ;incstack = 0
  3480                           ; Regs used in ___lwdiv: [wreg+status,2+status,0]
  3481                           
  3482  0CBA  01F5               	clrf	___lwdiv@quotient
  3483  0CBB  01F6               	clrf	___lwdiv@quotient+1
  3484  0CBC                     i1l2376:	
  3485  0CBC  0870               	movf	___lwdiv@divisor,w
  3486  0CBD  0471               	iorwf	___lwdiv@divisor+1,w
  3487  0CBE  1903               	btfsc	3,2
  3488  0CBF  2CC1               	goto	u188_21
  3489  0CC0  2CC2               	goto	u188_20
  3490  0CC1                     u188_21:	
  3491  0CC1  2CF9               	goto	i1l2396
  3492  0CC2                     u188_20:	
  3493  0CC2                     i1l2378:	
  3494  0CC2  01F7               	clrf	___lwdiv@counter
  3495  0CC3  0AF7               	incf	___lwdiv@counter,f
  3496  0CC4  2CD0               	goto	i1l2384
  3497  0CC5                     i1l2380:	
  3498  0CC5  3001               	movlw	1
  3499  0CC6                     u189_25:	
  3500  0CC6  1003               	clrc
  3501  0CC7  0DF0               	rlf	___lwdiv@divisor,f
  3502  0CC8  0DF1               	rlf	___lwdiv@divisor+1,f
  3503  0CC9  3EFF               	addlw	-1
  3504  0CCA  1D03               	skipz
  3505  0CCB  2CC6               	goto	u189_25
  3506  0CCC                     i1l2382:	
  3507  0CCC  3001               	movlw	1
  3508  0CCD  00F4               	movwf	??___lwdiv
  3509  0CCE  0874               	movf	??___lwdiv,w
  3510  0CCF  07F7               	addwf	___lwdiv@counter,f
  3511  0CD0                     i1l2384:	
  3512  0CD0  1FF1               	btfss	___lwdiv@divisor+1,7
  3513  0CD1  2CD3               	goto	u190_21
  3514  0CD2  2CD4               	goto	u190_20
  3515  0CD3                     u190_21:	
  3516  0CD3  2CC5               	goto	i1l2380
  3517  0CD4                     u190_20:	
  3518  0CD4                     i1l2386:	
  3519  0CD4  3001               	movlw	1
  3520  0CD5                     u191_25:	
  3521  0CD5  1003               	clrc
  3522  0CD6  0DF5               	rlf	___lwdiv@quotient,f
  3523  0CD7  0DF6               	rlf	___lwdiv@quotient+1,f
  3524  0CD8  3EFF               	addlw	-1
  3525  0CD9  1D03               	skipz
  3526  0CDA  2CD5               	goto	u191_25
  3527  0CDB  0871               	movf	___lwdiv@divisor+1,w
  3528  0CDC  0273               	subwf	___lwdiv@dividend+1,w
  3529  0CDD  1D03               	skipz
  3530  0CDE  2CE1               	goto	u192_25
  3531  0CDF  0870               	movf	___lwdiv@divisor,w
  3532  0CE0  0272               	subwf	___lwdiv@dividend,w
  3533  0CE1                     u192_25:	
  3534  0CE1  1C03               	skipc
  3535  0CE2  2CE4               	goto	u192_21
  3536  0CE3  2CE5               	goto	u192_20
  3537  0CE4                     u192_21:	
  3538  0CE4  2CEC               	goto	i1l2392
  3539  0CE5                     u192_20:	
  3540  0CE5                     i1l2388:	
  3541  0CE5  0870               	movf	___lwdiv@divisor,w
  3542  0CE6  02F2               	subwf	___lwdiv@dividend,f
  3543  0CE7  0871               	movf	___lwdiv@divisor+1,w
  3544  0CE8  1C03               	skipc
  3545  0CE9  03F3               	decf	___lwdiv@dividend+1,f
  3546  0CEA  02F3               	subwf	___lwdiv@dividend+1,f
  3547  0CEB                     i1l2390:	
  3548  0CEB  1475               	bsf	___lwdiv@quotient,0
  3549  0CEC                     i1l2392:	
  3550  0CEC  3001               	movlw	1
  3551  0CED                     u193_25:	
  3552  0CED  1003               	clrc
  3553  0CEE  0CF1               	rrf	___lwdiv@divisor+1,f
  3554  0CEF  0CF0               	rrf	___lwdiv@divisor,f
  3555  0CF0  3EFF               	addlw	-1
  3556  0CF1  1D03               	skipz
  3557  0CF2  2CED               	goto	u193_25
  3558  0CF3                     i1l2394:	
  3559  0CF3  3001               	movlw	1
  3560  0CF4  02F7               	subwf	___lwdiv@counter,f
  3561  0CF5  1D03               	btfss	3,2
  3562  0CF6  2CF8               	goto	u194_21
  3563  0CF7  2CF9               	goto	u194_20
  3564  0CF8                     u194_21:	
  3565  0CF8  2CD4               	goto	i1l2386
  3566  0CF9                     u194_20:	
  3567  0CF9                     i1l2396:	
  3568  0CF9  0876               	movf	___lwdiv@quotient+1,w
  3569  0CFA  00F1               	movwf	?___lwdiv+1
  3570  0CFB  0875               	movf	___lwdiv@quotient,w
  3571  0CFC  00F0               	movwf	?___lwdiv
  3572  0CFD                     i1l724:	
  3573  0CFD  0008               	return
  3574  0CFE                     __end_of___lwdiv:	
  3575                           
  3576                           	psect	text21
  3577  0630                     __ptext21:	
  3578 ;; *************** function ___xxtofl *****************
  3579 ;; Defined at:
  3580 ;;		line 10 in file "C:\Program Files (x86)\Microchip\xc8\v2.10\pic\sources\c90\common\xxtofl.c"
  3581 ;; Parameters:    Size  Location     Type
  3582 ;;  sign            1    wreg     unsigned char 
  3583 ;;  val             4    5[COMMON] long 
  3584 ;; Auto vars:     Size  Location     Type
  3585 ;;  sign            1    0[BANK0 ] unsigned char 
  3586 ;;  arg             4    2[BANK0 ] unsigned long 
  3587 ;;  exp             1    1[BANK0 ] unsigned char 
  3588 ;; Return value:  Size  Location     Type
  3589 ;;                  4    5[COMMON] unsigned char 
  3590 ;; Registers used:
  3591 ;;		wreg, status,2, status,0
  3592 ;; Tracked objects:
  3593 ;;		On entry : 0/0
  3594 ;;		On exit  : 0/0
  3595 ;;		Unchanged: 0/0
  3596 ;; Data sizes:     COMMON   BANK0   BANK1   BANK3   BANK2
  3597 ;;      Params:         4       0       0       0       0
  3598 ;;      Locals:         0       6       0       0       0
  3599 ;;      Temps:          4       0       0       0       0
  3600 ;;      Totals:         8       6       0       0       0
  3601 ;;Total ram usage:       14 bytes
  3602 ;; Hardware stack levels used:    1
  3603 ;; This function calls:
  3604 ;;		Nothing
  3605 ;; This function is called by:
  3606 ;;		_temp_sensor_read
  3607 ;; This function uses a non-reentrant model
  3608 ;;
  3609                           
  3610                           
  3611                           ;psect for function ___xxtofl
  3612  0630                     ___xxtofl:	
  3613                           
  3614                           ;incstack = 0
  3615                           ; Regs used in ___xxtofl: [wreg+status,2+status,0]
  3616                           ;___xxtofl@sign stored from wreg
  3617  0630  1283               	bcf	3,5	;RP0=0, select bank0
  3618  0631  1303               	bcf	3,6	;RP1=0, select bank0
  3619  0632  00A0               	movwf	___xxtofl@sign
  3620  0633                     i1l2848:	
  3621  0633  0820               	movf	___xxtofl@sign,w
  3622  0634  1903               	btfsc	3,2
  3623  0635  2E37               	goto	u280_21
  3624  0636  2E38               	goto	u280_20
  3625  0637                     u280_21:	
  3626  0637  2E4C               	goto	i1l2854
  3627  0638                     u280_20:	
  3628  0638                     i1l2850:	
  3629  0638  1FF8               	btfss	___xxtofl@val+3,7
  3630  0639  2E3B               	goto	u281_21
  3631  063A  2E3C               	goto	u281_20
  3632  063B                     u281_21:	
  3633  063B  2E4C               	goto	i1l2854
  3634  063C                     u281_20:	
  3635  063C                     i1l2852:	
  3636  063C  0975               	comf	___xxtofl@val,w
  3637  063D  00A2               	movwf	___xxtofl@arg
  3638  063E  0976               	comf	___xxtofl@val+1,w
  3639  063F  00A3               	movwf	___xxtofl@arg+1
  3640  0640  0977               	comf	___xxtofl@val+2,w
  3641  0641  00A4               	movwf	___xxtofl@arg+2
  3642  0642  0978               	comf	___xxtofl@val+3,w
  3643  0643  00A5               	movwf	___xxtofl@arg+3
  3644  0644  0AA2               	incf	___xxtofl@arg,f
  3645  0645  1903               	skipnz
  3646  0646  0AA3               	incf	___xxtofl@arg+1,f
  3647  0647  1903               	skipnz
  3648  0648  0AA4               	incf	___xxtofl@arg+2,f
  3649  0649  1903               	skipnz
  3650  064A  0AA5               	incf	___xxtofl@arg+3,f
  3651  064B  2E54               	goto	i1l879
  3652  064C                     i1l2854:	
  3653  064C  0878               	movf	___xxtofl@val+3,w
  3654  064D  00A5               	movwf	___xxtofl@arg+3
  3655  064E  0877               	movf	___xxtofl@val+2,w
  3656  064F  00A4               	movwf	___xxtofl@arg+2
  3657  0650  0876               	movf	___xxtofl@val+1,w
  3658  0651  00A3               	movwf	___xxtofl@arg+1
  3659  0652  0875               	movf	___xxtofl@val,w
  3660  0653  00A2               	movwf	___xxtofl@arg
  3661  0654                     i1l879:	
  3662  0654  0878               	movf	___xxtofl@val+3,w
  3663  0655  0477               	iorwf	___xxtofl@val+2,w
  3664  0656  0476               	iorwf	___xxtofl@val+1,w
  3665  0657  0475               	iorwf	___xxtofl@val,w
  3666  0658  1D03               	skipz
  3667  0659  2E5B               	goto	u282_21
  3668  065A  2E5C               	goto	u282_20
  3669  065B                     u282_21:	
  3670  065B  2E65               	goto	i1l2860
  3671  065C                     u282_20:	
  3672  065C                     i1l2856:	
  3673  065C  3000               	movlw	0
  3674  065D  00F8               	movwf	?___xxtofl+3
  3675  065E  3000               	movlw	0
  3676  065F  00F7               	movwf	?___xxtofl+2
  3677  0660  3000               	movlw	0
  3678  0661  00F6               	movwf	?___xxtofl+1
  3679  0662  3000               	movlw	0
  3680  0663  00F5               	movwf	?___xxtofl
  3681  0664  2EEB               	goto	i1l881
  3682  0665                     i1l2860:	
  3683  0665  3096               	movlw	150
  3684  0666  00F9               	movwf	??___xxtofl
  3685  0667  0879               	movf	??___xxtofl,w
  3686  0668  00A1               	movwf	___xxtofl@exp
  3687  0669  2E77               	goto	i1l2864
  3688  066A                     i1l2862:	
  3689  066A  3001               	movlw	1
  3690  066B  00F9               	movwf	??___xxtofl
  3691  066C  0879               	movf	??___xxtofl,w
  3692  066D  07A1               	addwf	___xxtofl@exp,f
  3693  066E  3001               	movlw	1
  3694  066F                     u283_25:	
  3695  066F  1003               	clrc
  3696  0670  0CA5               	rrf	___xxtofl@arg+3,f
  3697  0671  0CA4               	rrf	___xxtofl@arg+2,f
  3698  0672  0CA3               	rrf	___xxtofl@arg+1,f
  3699  0673  0CA2               	rrf	___xxtofl@arg,f
  3700  0674  3EFF               	addlw	-1
  3701  0675  1D03               	skipz
  3702  0676  2E6F               	goto	u283_25
  3703  0677                     i1l2864:	
  3704  0677  30FE               	movlw	254
  3705  0678  0525               	andwf	___xxtofl@arg+3,w
  3706  0679  1D03               	btfss	3,2
  3707  067A  2E7C               	goto	u284_21
  3708  067B  2E7D               	goto	u284_20
  3709  067C                     u284_21:	
  3710  067C  2E6A               	goto	i1l2862
  3711  067D                     u284_20:	
  3712  067D  2E99               	goto	i1l885
  3713  067E                     i1l2866:	
  3714  067E  3001               	movlw	1
  3715  067F  00F9               	movwf	??___xxtofl
  3716  0680  0879               	movf	??___xxtofl,w
  3717  0681  07A1               	addwf	___xxtofl@exp,f
  3718  0682                     i1l2868:	
  3719  0682  3001               	movlw	1
  3720  0683  07A2               	addwf	___xxtofl@arg,f
  3721  0684  3000               	movlw	0
  3722  0685  1803               	skipnc
  3723  0686  3001               	movlw	1
  3724  0687  07A3               	addwf	___xxtofl@arg+1,f
  3725  0688  3000               	movlw	0
  3726  0689  1803               	skipnc
  3727  068A  3001               	movlw	1
  3728  068B  07A4               	addwf	___xxtofl@arg+2,f
  3729  068C  3000               	movlw	0
  3730  068D  1803               	skipnc
  3731  068E  3001               	movlw	1
  3732  068F  07A5               	addwf	___xxtofl@arg+3,f
  3733  0690                     i1l2870:	
  3734  0690  3001               	movlw	1
  3735  0691                     u285_25:	
  3736  0691  1003               	clrc
  3737  0692  0CA5               	rrf	___xxtofl@arg+3,f
  3738  0693  0CA4               	rrf	___xxtofl@arg+2,f
  3739  0694  0CA3               	rrf	___xxtofl@arg+1,f
  3740  0695  0CA2               	rrf	___xxtofl@arg,f
  3741  0696  3EFF               	addlw	-1
  3742  0697  1D03               	skipz
  3743  0698  2E91               	goto	u285_25
  3744  0699                     i1l885:	
  3745  0699  30FF               	movlw	255
  3746  069A  0525               	andwf	___xxtofl@arg+3,w
  3747  069B  1D03               	btfss	3,2
  3748  069C  2E9E               	goto	u286_21
  3749  069D  2E9F               	goto	u286_20
  3750  069E                     u286_21:	
  3751  069E  2E7E               	goto	i1l2866
  3752  069F                     u286_20:	
  3753  069F  2EAB               	goto	i1l2874
  3754  06A0                     i1l2872:	
  3755  06A0  3001               	movlw	1
  3756  06A1  02A1               	subwf	___xxtofl@exp,f
  3757  06A2  3001               	movlw	1
  3758  06A3  00F9               	movwf	??___xxtofl
  3759  06A4                     u287_25:	
  3760  06A4  1003               	clrc
  3761  06A5  0DA2               	rlf	___xxtofl@arg,f
  3762  06A6  0DA3               	rlf	___xxtofl@arg+1,f
  3763  06A7  0DA4               	rlf	___xxtofl@arg+2,f
  3764  06A8  0DA5               	rlf	___xxtofl@arg+3,f
  3765  06A9  0BF9               	decfsz	??___xxtofl,f
  3766  06AA  2EA4               	goto	u287_25
  3767  06AB                     i1l2874:	
  3768  06AB  1BA4               	btfsc	___xxtofl@arg+2,7
  3769  06AC  2EAE               	goto	u288_21
  3770  06AD  2EAF               	goto	u288_20
  3771  06AE                     u288_21:	
  3772  06AE  2EB5               	goto	i1l892
  3773  06AF                     u288_20:	
  3774  06AF                     i1l2876:	
  3775  06AF  3002               	movlw	2
  3776  06B0  0221               	subwf	___xxtofl@exp,w
  3777  06B1  1803               	skipnc
  3778  06B2  2EB4               	goto	u289_21
  3779  06B3  2EB5               	goto	u289_20
  3780  06B4                     u289_21:	
  3781  06B4  2EA0               	goto	i1l2872
  3782  06B5                     u289_20:	
  3783  06B5                     i1l892:	
  3784  06B5  1821               	btfsc	___xxtofl@exp,0
  3785  06B6  2EB8               	goto	u290_21
  3786  06B7  2EB9               	goto	u290_20
  3787  06B8                     u290_21:	
  3788  06B8  2EC1               	goto	i1l893
  3789  06B9                     u290_20:	
  3790  06B9                     i1l2878:	
  3791  06B9  30FF               	movlw	255
  3792  06BA  05A2               	andwf	___xxtofl@arg,f
  3793  06BB  30FF               	movlw	255
  3794  06BC  05A3               	andwf	___xxtofl@arg+1,f
  3795  06BD  307F               	movlw	127
  3796  06BE  05A4               	andwf	___xxtofl@arg+2,f
  3797  06BF  30FF               	movlw	255
  3798  06C0  05A5               	andwf	___xxtofl@arg+3,f
  3799  06C1                     i1l893:	
  3800  06C1  1003               	clrc
  3801  06C2  0CA1               	rrf	___xxtofl@exp,f
  3802  06C3                     i1l2880:	
  3803  06C3  0821               	movf	___xxtofl@exp,w
  3804  06C4  00F9               	movwf	??___xxtofl
  3805  06C5  01FA               	clrf	??___xxtofl+1
  3806  06C6  01FB               	clrf	??___xxtofl+2
  3807  06C7  01FC               	clrf	??___xxtofl+3
  3808  06C8  3018               	movlw	24
  3809  06C9                     u291_25:	
  3810  06C9  1003               	clrc
  3811  06CA  0DF9               	rlf	??___xxtofl,f
  3812  06CB  0DFA               	rlf	??___xxtofl+1,f
  3813  06CC  0DFB               	rlf	??___xxtofl+2,f
  3814  06CD  0DFC               	rlf	??___xxtofl+3,f
  3815  06CE                     u291_20:	
  3816  06CE  3EFF               	addlw	-1
  3817  06CF  1D03               	skipz
  3818  06D0  2EC9               	goto	u291_25
  3819  06D1  0879               	movf	??___xxtofl,w
  3820  06D2  04A2               	iorwf	___xxtofl@arg,f
  3821  06D3  087A               	movf	??___xxtofl+1,w
  3822  06D4  04A3               	iorwf	___xxtofl@arg+1,f
  3823  06D5  087B               	movf	??___xxtofl+2,w
  3824  06D6  04A4               	iorwf	___xxtofl@arg+2,f
  3825  06D7  087C               	movf	??___xxtofl+3,w
  3826  06D8  04A5               	iorwf	___xxtofl@arg+3,f
  3827  06D9                     i1l2882:	
  3828  06D9  0820               	movf	___xxtofl@sign,w
  3829  06DA  1903               	btfsc	3,2
  3830  06DB  2EDD               	goto	u292_21
  3831  06DC  2EDE               	goto	u292_20
  3832  06DD                     u292_21:	
  3833  06DD  2EE3               	goto	i1l2888
  3834  06DE                     u292_20:	
  3835  06DE                     i1l2884:	
  3836  06DE  1FF8               	btfss	___xxtofl@val+3,7
  3837  06DF  2EE1               	goto	u293_21
  3838  06E0  2EE2               	goto	u293_20
  3839  06E1                     u293_21:	
  3840  06E1  2EE3               	goto	i1l2888
  3841  06E2                     u293_20:	
  3842  06E2                     i1l2886:	
  3843  06E2  17A5               	bsf	___xxtofl@arg+3,7
  3844  06E3                     i1l2888:	
  3845  06E3  0825               	movf	___xxtofl@arg+3,w
  3846  06E4  00F8               	movwf	?___xxtofl+3
  3847  06E5  0824               	movf	___xxtofl@arg+2,w
  3848  06E6  00F7               	movwf	?___xxtofl+2
  3849  06E7  0823               	movf	___xxtofl@arg+1,w
  3850  06E8  00F6               	movwf	?___xxtofl+1
  3851  06E9  0822               	movf	___xxtofl@arg,w
  3852  06EA  00F5               	movwf	?___xxtofl
  3853  06EB                     i1l881:	
  3854  06EB  0008               	return
  3855  06EC                     __end_of___xxtofl:	
  3856                           
  3857                           	psect	text22
  3858  0783                     __ptext22:	
  3859 ;; *************** function ___fltol *****************
  3860 ;; Defined at:
  3861 ;;		line 43 in file "C:\Program Files (x86)\Microchip\xc8\v2.10\pic\sources\c90\common\fltol.c"
  3862 ;; Parameters:    Size  Location     Type
  3863 ;;  f1              4   32[BANK0 ] unsigned char 
  3864 ;; Auto vars:     Size  Location     Type
  3865 ;;  exp1            1   42[BANK0 ] unsigned char 
  3866 ;;  sign1           1   41[BANK0 ] unsigned char 
  3867 ;; Return value:  Size  Location     Type
  3868 ;;                  4   32[BANK0 ] long 
  3869 ;; Registers used:
  3870 ;;		wreg, status,2, status,0
  3871 ;; Tracked objects:
  3872 ;;		On entry : 0/0
  3873 ;;		On exit  : 0/0
  3874 ;;		Unchanged: 0/0
  3875 ;; Data sizes:     COMMON   BANK0   BANK1   BANK3   BANK2
  3876 ;;      Params:         0       4       0       0       0
  3877 ;;      Locals:         0       2       0       0       0
  3878 ;;      Temps:          0       5       0       0       0
  3879 ;;      Totals:         0      11       0       0       0
  3880 ;;Total ram usage:       11 bytes
  3881 ;; Hardware stack levels used:    1
  3882 ;; This function calls:
  3883 ;;		Nothing
  3884 ;; This function is called by:
  3885 ;;		_temp_sensor_read
  3886 ;; This function uses a non-reentrant model
  3887 ;;
  3888                           
  3889                           
  3890                           ;psect for function ___fltol
  3891  0783                     ___fltol:	
  3892  0783                     i1l2530:	
  3893                           ;incstack = 0
  3894                           ; Regs used in ___fltol: [wreg+status,2+status,0]
  3895                           
  3896  0783  1003               	clrc
  3897  0784  1283               	bcf	3,5	;RP0=0, select bank0
  3898  0785  1303               	bcf	3,6	;RP1=0, select bank0
  3899  0786  0D42               	rlf	___fltol@f1+2,w
  3900  0787  0D43               	rlf	___fltol@f1+3,w
  3901  0788  00C4               	movwf	??___fltol
  3902  0789  0844               	movf	??___fltol,w
  3903  078A  00CA               	movwf	___fltol@exp1
  3904  078B  084A               	movf	___fltol@exp1,w
  3905  078C  1D03               	btfss	3,2
  3906  078D  2F8F               	goto	u204_21
  3907  078E  2F90               	goto	u204_20
  3908  078F                     u204_21:	
  3909  078F  2F99               	goto	i1l2536
  3910  0790                     u204_20:	
  3911  0790                     i1l2532:	
  3912  0790  3000               	movlw	0
  3913  0791  00C3               	movwf	?___fltol+3
  3914  0792  3000               	movlw	0
  3915  0793  00C2               	movwf	?___fltol+2
  3916  0794  3000               	movlw	0
  3917  0795  00C1               	movwf	?___fltol+1
  3918  0796  3000               	movlw	0
  3919  0797  00C0               	movwf	?___fltol
  3920  0798  2FFE               	goto	i1l638
  3921  0799                     i1l2536:	
  3922  0799  0840               	movf	___fltol@f1,w
  3923  079A  00C4               	movwf	??___fltol
  3924  079B  0841               	movf	___fltol@f1+1,w
  3925  079C  00C5               	movwf	??___fltol+1
  3926  079D  0842               	movf	___fltol@f1+2,w
  3927  079E  00C6               	movwf	??___fltol+2
  3928  079F  0843               	movf	___fltol@f1+3,w
  3929  07A0  00C7               	movwf	??___fltol+3
  3930  07A1  301F               	movlw	31
  3931  07A2                     u205_25:	
  3932  07A2  1003               	clrc
  3933  07A3  0CC7               	rrf	??___fltol+3,f
  3934  07A4  0CC6               	rrf	??___fltol+2,f
  3935  07A5  0CC5               	rrf	??___fltol+1,f
  3936  07A6  0CC4               	rrf	??___fltol,f
  3937  07A7                     u205_20:	
  3938  07A7  3EFF               	addlw	-1
  3939  07A8  1D03               	skipz
  3940  07A9  2FA2               	goto	u205_25
  3941  07AA  0844               	movf	??___fltol,w
  3942  07AB  00C8               	movwf	??___fltol+4
  3943  07AC  0848               	movf	??___fltol+4,w
  3944  07AD  00C9               	movwf	___fltol@sign1
  3945  07AE                     i1l2538:	
  3946  07AE  17C2               	bsf	___fltol@f1+2,7
  3947  07AF                     i1l2540:	
  3948  07AF  30FF               	movlw	255
  3949  07B0  05C0               	andwf	___fltol@f1,f
  3950  07B1  30FF               	movlw	255
  3951  07B2  05C1               	andwf	___fltol@f1+1,f
  3952  07B3  30FF               	movlw	255
  3953  07B4  05C2               	andwf	___fltol@f1+2,f
  3954  07B5  3000               	movlw	0
  3955  07B6  05C3               	andwf	___fltol@f1+3,f
  3956  07B7                     i1l2542:	
  3957  07B7  3096               	movlw	150
  3958  07B8  02CA               	subwf	___fltol@exp1,f
  3959  07B9                     i1l2544:	
  3960  07B9  1FCA               	btfss	___fltol@exp1,7
  3961  07BA  2FBC               	goto	u206_21
  3962  07BB  2FBD               	goto	u206_20
  3963  07BC                     u206_21:	
  3964  07BC  2FD7               	goto	i1l2554
  3965  07BD                     u206_20:	
  3966  07BD                     i1l2546:	
  3967  07BD  084A               	movf	___fltol@exp1,w
  3968  07BE  3A80               	xorlw	128
  3969  07BF  3E97               	addlw	151
  3970  07C0  1803               	skipnc
  3971  07C1  2FC3               	goto	u207_21
  3972  07C2  2FC4               	goto	u207_20
  3973  07C3                     u207_21:	
  3974  07C3  2FC5               	goto	i1l2552
  3975  07C4                     u207_20:	
  3976  07C4  2F90               	goto	i1l2532
  3977  07C5                     i1l2552:	
  3978  07C5  3001               	movlw	1
  3979  07C6                     u208_25:	
  3980  07C6  1003               	clrc
  3981  07C7  0CC3               	rrf	___fltol@f1+3,f
  3982  07C8  0CC2               	rrf	___fltol@f1+2,f
  3983  07C9  0CC1               	rrf	___fltol@f1+1,f
  3984  07CA  0CC0               	rrf	___fltol@f1,f
  3985  07CB  3EFF               	addlw	-1
  3986  07CC  1D03               	skipz
  3987  07CD  2FC6               	goto	u208_25
  3988  07CE  3001               	movlw	1
  3989  07CF  00C4               	movwf	??___fltol
  3990  07D0  0844               	movf	??___fltol,w
  3991  07D1  07CA               	addwf	___fltol@exp1,f
  3992  07D2  1D03               	btfss	3,2
  3993  07D3  2FD5               	goto	u209_21
  3994  07D4  2FD6               	goto	u209_20
  3995  07D5                     u209_21:	
  3996  07D5  2FC5               	goto	i1l2552
  3997  07D6                     u209_20:	
  3998  07D6  2FEE               	goto	i1l2562
  3999  07D7                     i1l2554:	
  4000  07D7  3020               	movlw	32
  4001  07D8  024A               	subwf	___fltol@exp1,w
  4002  07D9  1C03               	skipc
  4003  07DA  2FDC               	goto	u210_21
  4004  07DB  2FDD               	goto	u210_20
  4005  07DC                     u210_21:	
  4006  07DC  2FE9               	goto	i1l645
  4007  07DD                     u210_20:	
  4008  07DD  2F90               	goto	i1l2532
  4009  07DE                     i1l2560:	
  4010  07DE  3001               	movlw	1
  4011  07DF  00C4               	movwf	??___fltol
  4012  07E0                     u211_25:	
  4013  07E0  1003               	clrc
  4014  07E1  0DC0               	rlf	___fltol@f1,f
  4015  07E2  0DC1               	rlf	___fltol@f1+1,f
  4016  07E3  0DC2               	rlf	___fltol@f1+2,f
  4017  07E4  0DC3               	rlf	___fltol@f1+3,f
  4018  07E5  0BC4               	decfsz	??___fltol,f
  4019  07E6  2FE0               	goto	u211_25
  4020  07E7  3001               	movlw	1
  4021  07E8  02CA               	subwf	___fltol@exp1,f
  4022  07E9                     i1l645:	
  4023  07E9  084A               	movf	___fltol@exp1,w
  4024  07EA  1D03               	btfss	3,2
  4025  07EB  2FED               	goto	u212_21
  4026  07EC  2FEE               	goto	u212_20
  4027  07ED                     u212_21:	
  4028  07ED  2FDE               	goto	i1l2560
  4029  07EE                     u212_20:	
  4030  07EE                     i1l2562:	
  4031  07EE  0849               	movf	___fltol@sign1,w
  4032  07EF  1903               	btfsc	3,2
  4033  07F0  2FF2               	goto	u213_21
  4034  07F1  2FF3               	goto	u213_20
  4035  07F2                     u213_21:	
  4036  07F2  2FFE               	goto	i1l648
  4037  07F3                     u213_20:	
  4038  07F3                     i1l2564:	
  4039  07F3  09C0               	comf	___fltol@f1,f
  4040  07F4  09C1               	comf	___fltol@f1+1,f
  4041  07F5  09C2               	comf	___fltol@f1+2,f
  4042  07F6  09C3               	comf	___fltol@f1+3,f
  4043  07F7  0AC0               	incf	___fltol@f1,f
  4044  07F8  1903               	skipnz
  4045  07F9  0AC1               	incf	___fltol@f1+1,f
  4046  07FA  1903               	skipnz
  4047  07FB  0AC2               	incf	___fltol@f1+2,f
  4048  07FC  1903               	skipnz
  4049  07FD  0AC3               	incf	___fltol@f1+3,f
  4050  07FE                     i1l648:	
  4051  07FE                     i1l638:	
  4052  07FE  0008               	return
  4053  07FF                     __end_of___fltol:	
  4054                           
  4055                           	psect	text23
  4056  0036                     __ptext23:	
  4057 ;; *************** function ___flmul *****************
  4058 ;; Defined at:
  4059 ;;		line 8 in file "C:\Program Files (x86)\Microchip\xc8\v2.10\pic\sources\c90\common\sprcmul.c"
  4060 ;; Parameters:    Size  Location     Type
  4061 ;;  b               4    6[BANK0 ] long 
  4062 ;;  a               4   10[BANK0 ] long 
  4063 ;; Auto vars:     Size  Location     Type
  4064 ;;  prod            4   26[BANK0 ] struct .
  4065 ;;  grs             4   20[BANK0 ] unsigned long 
  4066 ;;  temp            2   30[BANK0 ] struct .
  4067 ;;  bexp            1   25[BANK0 ] unsigned char 
  4068 ;;  aexp            1   24[BANK0 ] unsigned char 
  4069 ;;  sign            1   19[BANK0 ] unsigned char 
  4070 ;; Return value:  Size  Location     Type
  4071 ;;                  4    6[BANK0 ] unsigned char 
  4072 ;; Registers used:
  4073 ;;		wreg, status,2, status,0, btemp+1, pclath, cstack
  4074 ;; Tracked objects:
  4075 ;;		On entry : 0/0
  4076 ;;		On exit  : 0/0
  4077 ;;		Unchanged: 0/0
  4078 ;; Data sizes:     COMMON   BANK0   BANK1   BANK3   BANK2
  4079 ;;      Params:         0       8       0       0       0
  4080 ;;      Locals:         0      13       0       0       0
  4081 ;;      Temps:          0       5       0       0       0
  4082 ;;      Totals:         0      26       0       0       0
  4083 ;;Total ram usage:       26 bytes
  4084 ;; Hardware stack levels used:    1
  4085 ;; Hardware stack levels required when called:    1
  4086 ;; This function calls:
  4087 ;;		__Umul8_16
  4088 ;; This function is called by:
  4089 ;;		_temp_sensor_read
  4090 ;; This function uses a non-reentrant model
  4091 ;;
  4092                           
  4093                           
  4094                           ;psect for function ___flmul
  4095  0036                     ___flmul:	
  4096  0036                     i1l2708:	
  4097                           ;incstack = 0
  4098                           ; Regs used in ___flmul: [wreg+status,2+status,0+btemp+1+pclath+cstack]
  4099                           
  4100  0036  1283               	bcf	3,5	;RP0=0, select bank0
  4101  0037  1303               	bcf	3,6	;RP1=0, select bank0
  4102  0038  0829               	movf	___flmul@b+3,w
  4103  0039  3980               	andlw	128
  4104  003A  00AE               	movwf	??___flmul
  4105  003B  082E               	movf	??___flmul,w
  4106  003C  00B3               	movwf	___flmul@sign
  4107  003D                     i1l2710:	
  4108  003D  0829               	movf	___flmul@b+3,w
  4109  003E  00AE               	movwf	??___flmul
  4110  003F  072E               	addwf	??___flmul,w
  4111  0040  00AF               	movwf	??___flmul+1
  4112  0041  082F               	movf	??___flmul+1,w
  4113  0042  00B9               	movwf	___flmul@bexp
  4114  0043                     i1l2712:	
  4115  0043  1FA8               	btfss	___flmul@b+2,7
  4116  0044  2846               	goto	u243_21
  4117  0045  2847               	goto	u243_20
  4118  0046                     u243_21:	
  4119  0046  2848               	goto	i1l2716
  4120  0047                     u243_20:	
  4121  0047                     i1l2714:	
  4122  0047  1439               	bsf	___flmul@bexp,0
  4123  0048                     i1l2716:	
  4124  0048  0839               	movf	___flmul@bexp,w
  4125  0049  1903               	btfsc	3,2
  4126  004A  284C               	goto	u244_21
  4127  004B  284D               	goto	u244_20
  4128  004C                     u244_21:	
  4129  004C  285C               	goto	i1l2724
  4130  004D                     u244_20:	
  4131  004D                     i1l2718:	
  4132  004D  0A39               	incf	___flmul@bexp,w
  4133  004E  1D03               	btfss	3,2
  4134  004F  2851               	goto	u245_21
  4135  0050  2852               	goto	u245_20
  4136  0051                     u245_21:	
  4137  0051  285A               	goto	i1l2722
  4138  0052                     u245_20:	
  4139  0052                     i1l2720:	
  4140  0052  3000               	movlw	0
  4141  0053  00A9               	movwf	___flmul@b+3
  4142  0054  3000               	movlw	0
  4143  0055  00A8               	movwf	___flmul@b+2
  4144  0056  3000               	movlw	0
  4145  0057  00A7               	movwf	___flmul@b+1
  4146  0058  3000               	movlw	0
  4147  0059  00A6               	movwf	___flmul@b
  4148  005A                     i1l2722:	
  4149  005A  17A8               	bsf	___flmul@b+2,7
  4150  005B  2864               	goto	i1l2726
  4151  005C                     i1l2724:	
  4152  005C  3000               	movlw	0
  4153  005D  00A9               	movwf	___flmul@b+3
  4154  005E  3000               	movlw	0
  4155  005F  00A8               	movwf	___flmul@b+2
  4156  0060  3000               	movlw	0
  4157  0061  00A7               	movwf	___flmul@b+1
  4158  0062  3000               	movlw	0
  4159  0063  00A6               	movwf	___flmul@b
  4160  0064                     i1l2726:	
  4161  0064  082D               	movf	___flmul@a+3,w
  4162  0065  3980               	andlw	128
  4163  0066  00AE               	movwf	??___flmul
  4164  0067  082E               	movf	??___flmul,w
  4165  0068  06B3               	xorwf	___flmul@sign,f
  4166  0069                     i1l2728:	
  4167  0069  082D               	movf	___flmul@a+3,w
  4168  006A  00AE               	movwf	??___flmul
  4169  006B  072E               	addwf	??___flmul,w
  4170  006C  00AF               	movwf	??___flmul+1
  4171  006D  082F               	movf	??___flmul+1,w
  4172  006E  00B8               	movwf	___flmul@aexp
  4173  006F                     i1l2730:	
  4174  006F  1FAC               	btfss	___flmul@a+2,7
  4175  0070  2872               	goto	u246_21
  4176  0071  2873               	goto	u246_20
  4177  0072                     u246_21:	
  4178  0072  2874               	goto	i1l2734
  4179  0073                     u246_20:	
  4180  0073                     i1l2732:	
  4181  0073  1438               	bsf	___flmul@aexp,0
  4182  0074                     i1l2734:	
  4183  0074  0838               	movf	___flmul@aexp,w
  4184  0075  1903               	btfsc	3,2
  4185  0076  2878               	goto	u247_21
  4186  0077  2879               	goto	u247_20
  4187  0078                     u247_21:	
  4188  0078  2888               	goto	i1l2742
  4189  0079                     u247_20:	
  4190  0079                     i1l2736:	
  4191  0079  0A38               	incf	___flmul@aexp,w
  4192  007A  1D03               	btfss	3,2
  4193  007B  287D               	goto	u248_21
  4194  007C  287E               	goto	u248_20
  4195  007D                     u248_21:	
  4196  007D  2886               	goto	i1l2740
  4197  007E                     u248_20:	
  4198  007E                     i1l2738:	
  4199  007E  3000               	movlw	0
  4200  007F  00AD               	movwf	___flmul@a+3
  4201  0080  3000               	movlw	0
  4202  0081  00AC               	movwf	___flmul@a+2
  4203  0082  3000               	movlw	0
  4204  0083  00AB               	movwf	___flmul@a+1
  4205  0084  3000               	movlw	0
  4206  0085  00AA               	movwf	___flmul@a
  4207  0086                     i1l2740:	
  4208  0086  17AC               	bsf	___flmul@a+2,7
  4209  0087  2890               	goto	i1l2744
  4210  0088                     i1l2742:	
  4211  0088  3000               	movlw	0
  4212  0089  00AD               	movwf	___flmul@a+3
  4213  008A  3000               	movlw	0
  4214  008B  00AC               	movwf	___flmul@a+2
  4215  008C  3000               	movlw	0
  4216  008D  00AB               	movwf	___flmul@a+1
  4217  008E  3000               	movlw	0
  4218  008F  00AA               	movwf	___flmul@a
  4219  0090                     i1l2744:	
  4220  0090  0838               	movf	___flmul@aexp,w
  4221  0091  1903               	btfsc	3,2
  4222  0092  2894               	goto	u249_21
  4223  0093  2895               	goto	u249_20
  4224  0094                     u249_21:	
  4225  0094  289A               	goto	i1l2748
  4226  0095                     u249_20:	
  4227  0095                     i1l2746:	
  4228  0095  0839               	movf	___flmul@bexp,w
  4229  0096  1D03               	btfss	3,2
  4230  0097  2899               	goto	u250_21
  4231  0098  289A               	goto	u250_20
  4232  0099                     u250_21:	
  4233  0099  28A3               	goto	i1l2752
  4234  009A                     u250_20:	
  4235  009A                     i1l2748:	
  4236  009A  3000               	movlw	0
  4237  009B  00A9               	movwf	?___flmul+3
  4238  009C  3000               	movlw	0
  4239  009D  00A8               	movwf	?___flmul+2
  4240  009E  3000               	movlw	0
  4241  009F  00A7               	movwf	?___flmul+1
  4242  00A0  3000               	movlw	0
  4243  00A1  00A6               	movwf	?___flmul
  4244  00A2  2B96               	goto	i1l841
  4245  00A3                     i1l2752:	
  4246  00A3  0826               	movf	___flmul@b,w
  4247  00A4  00AE               	movwf	??___flmul
  4248  00A5  082E               	movf	??___flmul,w
  4249  00A6  00F0               	movwf	__Umul8_16@multiplicand
  4250  00A7  082C               	movf	___flmul@a+2,w
  4251  00A8  120A  158A  2360  120A  118A  	fcall	__Umul8_16
  4252  00AD  0871               	movf	?__Umul8_16+1,w
  4253  00AE  1283               	bcf	3,5	;RP0=0, select bank0
  4254  00AF  1303               	bcf	3,6	;RP1=0, select bank0
  4255  00B0  00BF               	movwf	___flmul@temp+1
  4256  00B1  0870               	movf	?__Umul8_16,w
  4257  00B2  00BE               	movwf	___flmul@temp
  4258  00B3                     i1l2754:	
  4259  00B3  083E               	movf	___flmul@temp,w
  4260  00B4  00AE               	movwf	??___flmul
  4261  00B5  01AF               	clrf	??___flmul+1
  4262  00B6  01B0               	clrf	??___flmul+2
  4263  00B7  01B1               	clrf	??___flmul+3
  4264  00B8  0831               	movf	??___flmul+3,w
  4265  00B9  00B7               	movwf	___flmul@grs+3
  4266  00BA  0830               	movf	??___flmul+2,w
  4267  00BB  00B6               	movwf	___flmul@grs+2
  4268  00BC  082F               	movf	??___flmul+1,w
  4269  00BD  00B5               	movwf	___flmul@grs+1
  4270  00BE  082E               	movf	??___flmul,w
  4271  00BF  00B4               	movwf	___flmul@grs
  4272  00C0                     i1l2756:	
  4273  00C0  083F               	movf	___flmul@temp+1,w
  4274  00C1  00AE               	movwf	??___flmul
  4275  00C2  01AF               	clrf	??___flmul+1
  4276  00C3  01B0               	clrf	??___flmul+2
  4277  00C4  01B1               	clrf	??___flmul+3
  4278  00C5  0831               	movf	??___flmul+3,w
  4279  00C6  00BD               	movwf	___flmul@prod+3
  4280  00C7  0830               	movf	??___flmul+2,w
  4281  00C8  00BC               	movwf	___flmul@prod+2
  4282  00C9  082F               	movf	??___flmul+1,w
  4283  00CA  00BB               	movwf	___flmul@prod+1
  4284  00CB  082E               	movf	??___flmul,w
  4285  00CC  00BA               	movwf	___flmul@prod
  4286  00CD  0827               	movf	___flmul@b+1,w
  4287  00CE  00AE               	movwf	??___flmul
  4288  00CF  082E               	movf	??___flmul,w
  4289  00D0  00F0               	movwf	__Umul8_16@multiplicand
  4290  00D1  082B               	movf	___flmul@a+1,w
  4291  00D2  120A  158A  2360  120A  118A  	fcall	__Umul8_16
  4292  00D7  0871               	movf	?__Umul8_16+1,w
  4293  00D8  1283               	bcf	3,5	;RP0=0, select bank0
  4294  00D9  1303               	bcf	3,6	;RP1=0, select bank0
  4295  00DA  00BF               	movwf	___flmul@temp+1
  4296  00DB  0870               	movf	?__Umul8_16,w
  4297  00DC  00BE               	movwf	___flmul@temp
  4298  00DD                     i1l2758:	
  4299  00DD  083E               	movf	___flmul@temp,w
  4300  00DE  00AE               	movwf	??___flmul
  4301  00DF  01AF               	clrf	??___flmul+1
  4302  00E0  01B0               	clrf	??___flmul+2
  4303  00E1  01B1               	clrf	??___flmul+3
  4304  00E2  082E               	movf	??___flmul,w
  4305  00E3  07B4               	addwf	___flmul@grs,f
  4306  00E4  082F               	movf	??___flmul+1,w
  4307  00E5  1103               	clrz
  4308  00E6  1803               	skipnc
  4309  00E7  3E01               	addlw	1
  4310  00E8  1903               	skipnz
  4311  00E9  28EB               	goto	u251_21
  4312  00EA  07B5               	addwf	___flmul@grs+1,f
  4313  00EB                     u251_21:	
  4314  00EB  0830               	movf	??___flmul+2,w
  4315  00EC  1103               	clrz
  4316  00ED  1803               	skipnc
  4317  00EE  3E01               	addlw	1
  4318  00EF  1903               	skipnz
  4319  00F0  28F2               	goto	u251_22
  4320  00F1  07B6               	addwf	___flmul@grs+2,f
  4321  00F2                     u251_22:	
  4322  00F2  0831               	movf	??___flmul+3,w
  4323  00F3  1103               	clrz
  4324  00F4  1803               	skipnc
  4325  00F5  3E01               	addlw	1
  4326  00F6  1903               	skipnz
  4327  00F7  28F9               	goto	u251_23
  4328  00F8  07B7               	addwf	___flmul@grs+3,f
  4329  00F9                     u251_23:	
  4330  00F9                     i1l2760:	
  4331  00F9  083F               	movf	___flmul@temp+1,w
  4332  00FA  00AE               	movwf	??___flmul
  4333  00FB  01AF               	clrf	??___flmul+1
  4334  00FC  01B0               	clrf	??___flmul+2
  4335  00FD  01B1               	clrf	??___flmul+3
  4336  00FE  082E               	movf	??___flmul,w
  4337  00FF  07BA               	addwf	___flmul@prod,f
  4338  0100  082F               	movf	??___flmul+1,w
  4339  0101  1103               	clrz
  4340  0102  1803               	skipnc
  4341  0103  3E01               	addlw	1
  4342  0104  1903               	skipnz
  4343  0105  2907               	goto	u252_21
  4344  0106  07BB               	addwf	___flmul@prod+1,f
  4345  0107                     u252_21:	
  4346  0107  0830               	movf	??___flmul+2,w
  4347  0108  1103               	clrz
  4348  0109  1803               	skipnc
  4349  010A  3E01               	addlw	1
  4350  010B  1903               	skipnz
  4351  010C  290E               	goto	u252_22
  4352  010D  07BC               	addwf	___flmul@prod+2,f
  4353  010E                     u252_22:	
  4354  010E  0831               	movf	??___flmul+3,w
  4355  010F  1103               	clrz
  4356  0110  1803               	skipnc
  4357  0111  3E01               	addlw	1
  4358  0112  1903               	skipnz
  4359  0113  2915               	goto	u252_23
  4360  0114  07BD               	addwf	___flmul@prod+3,f
  4361  0115                     u252_23:	
  4362  0115  0828               	movf	___flmul@b+2,w
  4363  0116  00AE               	movwf	??___flmul
  4364  0117  082E               	movf	??___flmul,w
  4365  0118  00F0               	movwf	__Umul8_16@multiplicand
  4366  0119  082A               	movf	___flmul@a,w
  4367  011A  120A  158A  2360  120A  118A  	fcall	__Umul8_16
  4368  011F  0871               	movf	?__Umul8_16+1,w
  4369  0120  1283               	bcf	3,5	;RP0=0, select bank0
  4370  0121  1303               	bcf	3,6	;RP1=0, select bank0
  4371  0122  00BF               	movwf	___flmul@temp+1
  4372  0123  0870               	movf	?__Umul8_16,w
  4373  0124  00BE               	movwf	___flmul@temp
  4374  0125                     i1l2762:	
  4375  0125  083E               	movf	___flmul@temp,w
  4376  0126  00AE               	movwf	??___flmul
  4377  0127  01AF               	clrf	??___flmul+1
  4378  0128  01B0               	clrf	??___flmul+2
  4379  0129  01B1               	clrf	??___flmul+3
  4380  012A  082E               	movf	??___flmul,w
  4381  012B  07B4               	addwf	___flmul@grs,f
  4382  012C  082F               	movf	??___flmul+1,w
  4383  012D  1103               	clrz
  4384  012E  1803               	skipnc
  4385  012F  3E01               	addlw	1
  4386  0130  1903               	skipnz
  4387  0131  2933               	goto	u253_21
  4388  0132  07B5               	addwf	___flmul@grs+1,f
  4389  0133                     u253_21:	
  4390  0133  0830               	movf	??___flmul+2,w
  4391  0134  1103               	clrz
  4392  0135  1803               	skipnc
  4393  0136  3E01               	addlw	1
  4394  0137  1903               	skipnz
  4395  0138  293A               	goto	u253_22
  4396  0139  07B6               	addwf	___flmul@grs+2,f
  4397  013A                     u253_22:	
  4398  013A  0831               	movf	??___flmul+3,w
  4399  013B  1103               	clrz
  4400  013C  1803               	skipnc
  4401  013D  3E01               	addlw	1
  4402  013E  1903               	skipnz
  4403  013F  2941               	goto	u253_23
  4404  0140  07B7               	addwf	___flmul@grs+3,f
  4405  0141                     u253_23:	
  4406  0141                     i1l2764:	
  4407  0141  083F               	movf	___flmul@temp+1,w
  4408  0142  00AE               	movwf	??___flmul
  4409  0143  01AF               	clrf	??___flmul+1
  4410  0144  01B0               	clrf	??___flmul+2
  4411  0145  01B1               	clrf	??___flmul+3
  4412  0146  082E               	movf	??___flmul,w
  4413  0147  07BA               	addwf	___flmul@prod,f
  4414  0148  082F               	movf	??___flmul+1,w
  4415  0149  1103               	clrz
  4416  014A  1803               	skipnc
  4417  014B  3E01               	addlw	1
  4418  014C  1903               	skipnz
  4419  014D  294F               	goto	u254_21
  4420  014E  07BB               	addwf	___flmul@prod+1,f
  4421  014F                     u254_21:	
  4422  014F  0830               	movf	??___flmul+2,w
  4423  0150  1103               	clrz
  4424  0151  1803               	skipnc
  4425  0152  3E01               	addlw	1
  4426  0153  1903               	skipnz
  4427  0154  2956               	goto	u254_22
  4428  0155  07BC               	addwf	___flmul@prod+2,f
  4429  0156                     u254_22:	
  4430  0156  0831               	movf	??___flmul+3,w
  4431  0157  1103               	clrz
  4432  0158  1803               	skipnc
  4433  0159  3E01               	addlw	1
  4434  015A  1903               	skipnz
  4435  015B  295D               	goto	u254_23
  4436  015C  07BD               	addwf	___flmul@prod+3,f
  4437  015D                     u254_23:	
  4438  015D                     i1l2766:	
  4439  015D  3008               	movlw	8
  4440  015E  00AE               	movwf	??___flmul
  4441  015F                     u255_25:	
  4442  015F  1003               	clrc
  4443  0160  0DB4               	rlf	___flmul@grs,f
  4444  0161  0DB5               	rlf	___flmul@grs+1,f
  4445  0162  0DB6               	rlf	___flmul@grs+2,f
  4446  0163  0DB7               	rlf	___flmul@grs+3,f
  4447  0164  0BAE               	decfsz	??___flmul,f
  4448  0165  295F               	goto	u255_25
  4449  0166                     i1l2768:	
  4450  0166  0827               	movf	___flmul@b+1,w
  4451  0167  00AE               	movwf	??___flmul
  4452  0168  082E               	movf	??___flmul,w
  4453  0169  00F0               	movwf	__Umul8_16@multiplicand
  4454  016A  082A               	movf	___flmul@a,w
  4455  016B  120A  158A  2360  120A  118A  	fcall	__Umul8_16
  4456  0170  0871               	movf	?__Umul8_16+1,w
  4457  0171  1283               	bcf	3,5	;RP0=0, select bank0
  4458  0172  1303               	bcf	3,6	;RP1=0, select bank0
  4459  0173  00BF               	movwf	___flmul@temp+1
  4460  0174  0870               	movf	?__Umul8_16,w
  4461  0175  00BE               	movwf	___flmul@temp
  4462  0176                     i1l2770:	
  4463  0176  083E               	movf	___flmul@temp,w
  4464  0177  00AE               	movwf	??___flmul
  4465  0178  083F               	movf	___flmul@temp+1,w
  4466  0179  00AF               	movwf	??___flmul+1
  4467  017A  01B0               	clrf	??___flmul+2
  4468  017B  01B1               	clrf	??___flmul+3
  4469  017C  082E               	movf	??___flmul,w
  4470  017D  07B4               	addwf	___flmul@grs,f
  4471  017E  082F               	movf	??___flmul+1,w
  4472  017F  1103               	clrz
  4473  0180  1803               	skipnc
  4474  0181  3E01               	addlw	1
  4475  0182  1903               	skipnz
  4476  0183  2985               	goto	u256_21
  4477  0184  07B5               	addwf	___flmul@grs+1,f
  4478  0185                     u256_21:	
  4479  0185  0830               	movf	??___flmul+2,w
  4480  0186  1103               	clrz
  4481  0187  1803               	skipnc
  4482  0188  3E01               	addlw	1
  4483  0189  1903               	skipnz
  4484  018A  298C               	goto	u256_22
  4485  018B  07B6               	addwf	___flmul@grs+2,f
  4486  018C                     u256_22:	
  4487  018C  0831               	movf	??___flmul+3,w
  4488  018D  1103               	clrz
  4489  018E  1803               	skipnc
  4490  018F  3E01               	addlw	1
  4491  0190  1903               	skipnz
  4492  0191  2993               	goto	u256_23
  4493  0192  07B7               	addwf	___flmul@grs+3,f
  4494  0193                     u256_23:	
  4495  0193                     i1l2772:	
  4496  0193  0826               	movf	___flmul@b,w
  4497  0194  00AE               	movwf	??___flmul
  4498  0195  082E               	movf	??___flmul,w
  4499  0196  00F0               	movwf	__Umul8_16@multiplicand
  4500  0197  082B               	movf	___flmul@a+1,w
  4501  0198  120A  158A  2360  120A  118A  	fcall	__Umul8_16
  4502  019D  0871               	movf	?__Umul8_16+1,w
  4503  019E  1283               	bcf	3,5	;RP0=0, select bank0
  4504  019F  1303               	bcf	3,6	;RP1=0, select bank0
  4505  01A0  00BF               	movwf	___flmul@temp+1
  4506  01A1  0870               	movf	?__Umul8_16,w
  4507  01A2  00BE               	movwf	___flmul@temp
  4508  01A3                     i1l2774:	
  4509  01A3  083E               	movf	___flmul@temp,w
  4510  01A4  00AE               	movwf	??___flmul
  4511  01A5  083F               	movf	___flmul@temp+1,w
  4512  01A6  00AF               	movwf	??___flmul+1
  4513  01A7  01B0               	clrf	??___flmul+2
  4514  01A8  01B1               	clrf	??___flmul+3
  4515  01A9  082E               	movf	??___flmul,w
  4516  01AA  07B4               	addwf	___flmul@grs,f
  4517  01AB  082F               	movf	??___flmul+1,w
  4518  01AC  1103               	clrz
  4519  01AD  1803               	skipnc
  4520  01AE  3E01               	addlw	1
  4521  01AF  1903               	skipnz
  4522  01B0  29B2               	goto	u257_21
  4523  01B1  07B5               	addwf	___flmul@grs+1,f
  4524  01B2                     u257_21:	
  4525  01B2  0830               	movf	??___flmul+2,w
  4526  01B3  1103               	clrz
  4527  01B4  1803               	skipnc
  4528  01B5  3E01               	addlw	1
  4529  01B6  1903               	skipnz
  4530  01B7  29B9               	goto	u257_22
  4531  01B8  07B6               	addwf	___flmul@grs+2,f
  4532  01B9                     u257_22:	
  4533  01B9  0831               	movf	??___flmul+3,w
  4534  01BA  1103               	clrz
  4535  01BB  1803               	skipnc
  4536  01BC  3E01               	addlw	1
  4537  01BD  1903               	skipnz
  4538  01BE  29C0               	goto	u257_23
  4539  01BF  07B7               	addwf	___flmul@grs+3,f
  4540  01C0                     u257_23:	
  4541  01C0                     i1l2776:	
  4542  01C0  3008               	movlw	8
  4543  01C1  00AE               	movwf	??___flmul
  4544  01C2                     u258_25:	
  4545  01C2  1003               	clrc
  4546  01C3  0DB4               	rlf	___flmul@grs,f
  4547  01C4  0DB5               	rlf	___flmul@grs+1,f
  4548  01C5  0DB6               	rlf	___flmul@grs+2,f
  4549  01C6  0DB7               	rlf	___flmul@grs+3,f
  4550  01C7  0BAE               	decfsz	??___flmul,f
  4551  01C8  29C2               	goto	u258_25
  4552  01C9  0826               	movf	___flmul@b,w
  4553  01CA  00AE               	movwf	??___flmul
  4554  01CB  082E               	movf	??___flmul,w
  4555  01CC  00F0               	movwf	__Umul8_16@multiplicand
  4556  01CD  082A               	movf	___flmul@a,w
  4557  01CE  120A  158A  2360  120A  118A  	fcall	__Umul8_16
  4558  01D3  0871               	movf	?__Umul8_16+1,w
  4559  01D4  1283               	bcf	3,5	;RP0=0, select bank0
  4560  01D5  1303               	bcf	3,6	;RP1=0, select bank0
  4561  01D6  00BF               	movwf	___flmul@temp+1
  4562  01D7  0870               	movf	?__Umul8_16,w
  4563  01D8  00BE               	movwf	___flmul@temp
  4564  01D9                     i1l2778:	
  4565  01D9  083E               	movf	___flmul@temp,w
  4566  01DA  00AE               	movwf	??___flmul
  4567  01DB  083F               	movf	___flmul@temp+1,w
  4568  01DC  00AF               	movwf	??___flmul+1
  4569  01DD  01B0               	clrf	??___flmul+2
  4570  01DE  01B1               	clrf	??___flmul+3
  4571  01DF  082E               	movf	??___flmul,w
  4572  01E0  07B4               	addwf	___flmul@grs,f
  4573  01E1  082F               	movf	??___flmul+1,w
  4574  01E2  1103               	clrz
  4575  01E3  1803               	skipnc
  4576  01E4  3E01               	addlw	1
  4577  01E5  1903               	skipnz
  4578  01E6  29E8               	goto	u259_21
  4579  01E7  07B5               	addwf	___flmul@grs+1,f
  4580  01E8                     u259_21:	
  4581  01E8  0830               	movf	??___flmul+2,w
  4582  01E9  1103               	clrz
  4583  01EA  1803               	skipnc
  4584  01EB  3E01               	addlw	1
  4585  01EC  1903               	skipnz
  4586  01ED  29EF               	goto	u259_22
  4587  01EE  07B6               	addwf	___flmul@grs+2,f
  4588  01EF                     u259_22:	
  4589  01EF  0831               	movf	??___flmul+3,w
  4590  01F0  1103               	clrz
  4591  01F1  1803               	skipnc
  4592  01F2  3E01               	addlw	1
  4593  01F3  1903               	skipnz
  4594  01F4  29F6               	goto	u259_23
  4595  01F5  07B7               	addwf	___flmul@grs+3,f
  4596  01F6                     u259_23:	
  4597  01F6                     i1l2780:	
  4598  01F6  0827               	movf	___flmul@b+1,w
  4599  01F7  00AE               	movwf	??___flmul
  4600  01F8  082E               	movf	??___flmul,w
  4601  01F9  00F0               	movwf	__Umul8_16@multiplicand
  4602  01FA  082C               	movf	___flmul@a+2,w
  4603  01FB  120A  158A  2360  120A  118A  	fcall	__Umul8_16
  4604  0200  0871               	movf	?__Umul8_16+1,w
  4605  0201  1283               	bcf	3,5	;RP0=0, select bank0
  4606  0202  1303               	bcf	3,6	;RP1=0, select bank0
  4607  0203  00BF               	movwf	___flmul@temp+1
  4608  0204  0870               	movf	?__Umul8_16,w
  4609  0205  00BE               	movwf	___flmul@temp
  4610  0206  083E               	movf	___flmul@temp,w
  4611  0207  00AE               	movwf	??___flmul
  4612  0208  083F               	movf	___flmul@temp+1,w
  4613  0209  00AF               	movwf	??___flmul+1
  4614  020A  01B0               	clrf	??___flmul+2
  4615  020B  01B1               	clrf	??___flmul+3
  4616  020C  082E               	movf	??___flmul,w
  4617  020D  07BA               	addwf	___flmul@prod,f
  4618  020E  082F               	movf	??___flmul+1,w
  4619  020F  1103               	clrz
  4620  0210  1803               	skipnc
  4621  0211  3E01               	addlw	1
  4622  0212  1903               	skipnz
  4623  0213  2A15               	goto	u260_21
  4624  0214  07BB               	addwf	___flmul@prod+1,f
  4625  0215                     u260_21:	
  4626  0215  0830               	movf	??___flmul+2,w
  4627  0216  1103               	clrz
  4628  0217  1803               	skipnc
  4629  0218  3E01               	addlw	1
  4630  0219  1903               	skipnz
  4631  021A  2A1C               	goto	u260_22
  4632  021B  07BC               	addwf	___flmul@prod+2,f
  4633  021C                     u260_22:	
  4634  021C  0831               	movf	??___flmul+3,w
  4635  021D  1103               	clrz
  4636  021E  1803               	skipnc
  4637  021F  3E01               	addlw	1
  4638  0220  1903               	skipnz
  4639  0221  2A23               	goto	u260_23
  4640  0222  07BD               	addwf	___flmul@prod+3,f
  4641  0223                     u260_23:	
  4642  0223                     i1l2782:	
  4643  0223  0828               	movf	___flmul@b+2,w
  4644  0224  00AE               	movwf	??___flmul
  4645  0225  082E               	movf	??___flmul,w
  4646  0226  00F0               	movwf	__Umul8_16@multiplicand
  4647  0227  082B               	movf	___flmul@a+1,w
  4648  0228  120A  158A  2360  120A  118A  	fcall	__Umul8_16
  4649  022D  0871               	movf	?__Umul8_16+1,w
  4650  022E  1283               	bcf	3,5	;RP0=0, select bank0
  4651  022F  1303               	bcf	3,6	;RP1=0, select bank0
  4652  0230  00BF               	movwf	___flmul@temp+1
  4653  0231  0870               	movf	?__Umul8_16,w
  4654  0232  00BE               	movwf	___flmul@temp
  4655  0233                     i1l2784:	
  4656  0233  083E               	movf	___flmul@temp,w
  4657  0234  00AE               	movwf	??___flmul
  4658  0235  083F               	movf	___flmul@temp+1,w
  4659  0236  00AF               	movwf	??___flmul+1
  4660  0237  01B0               	clrf	??___flmul+2
  4661  0238  01B1               	clrf	??___flmul+3
  4662  0239  082E               	movf	??___flmul,w
  4663  023A  07BA               	addwf	___flmul@prod,f
  4664  023B  082F               	movf	??___flmul+1,w
  4665  023C  1103               	clrz
  4666  023D  1803               	skipnc
  4667  023E  3E01               	addlw	1
  4668  023F  1903               	skipnz
  4669  0240  2A42               	goto	u261_21
  4670  0241  07BB               	addwf	___flmul@prod+1,f
  4671  0242                     u261_21:	
  4672  0242  0830               	movf	??___flmul+2,w
  4673  0243  1103               	clrz
  4674  0244  1803               	skipnc
  4675  0245  3E01               	addlw	1
  4676  0246  1903               	skipnz
  4677  0247  2A49               	goto	u261_22
  4678  0248  07BC               	addwf	___flmul@prod+2,f
  4679  0249                     u261_22:	
  4680  0249  0831               	movf	??___flmul+3,w
  4681  024A  1103               	clrz
  4682  024B  1803               	skipnc
  4683  024C  3E01               	addlw	1
  4684  024D  1903               	skipnz
  4685  024E  2A50               	goto	u261_23
  4686  024F  07BD               	addwf	___flmul@prod+3,f
  4687  0250                     u261_23:	
  4688  0250  0828               	movf	___flmul@b+2,w
  4689  0251  00AE               	movwf	??___flmul
  4690  0252  082E               	movf	??___flmul,w
  4691  0253  00F0               	movwf	__Umul8_16@multiplicand
  4692  0254  082C               	movf	___flmul@a+2,w
  4693  0255  120A  158A  2360  120A  118A  	fcall	__Umul8_16
  4694  025A  0871               	movf	?__Umul8_16+1,w
  4695  025B  1283               	bcf	3,5	;RP0=0, select bank0
  4696  025C  1303               	bcf	3,6	;RP1=0, select bank0
  4697  025D  00BF               	movwf	___flmul@temp+1
  4698  025E  0870               	movf	?__Umul8_16,w
  4699  025F  00BE               	movwf	___flmul@temp
  4700  0260                     i1l2786:	
  4701  0260  083E               	movf	___flmul@temp,w
  4702  0261  00AE               	movwf	??___flmul
  4703  0262  083F               	movf	___flmul@temp+1,w
  4704  0263  00AF               	movwf	??___flmul+1
  4705  0264  01B0               	clrf	??___flmul+2
  4706  0265  01B1               	clrf	??___flmul+3
  4707  0266  3008               	movlw	8
  4708  0267                     u262_25:	
  4709  0267  1003               	clrc
  4710  0268  0DAE               	rlf	??___flmul,f
  4711  0269  0DAF               	rlf	??___flmul+1,f
  4712  026A  0DB0               	rlf	??___flmul+2,f
  4713  026B  0DB1               	rlf	??___flmul+3,f
  4714  026C                     u262_20:	
  4715  026C  3EFF               	addlw	-1
  4716  026D  1D03               	skipz
  4717  026E  2A67               	goto	u262_25
  4718  026F  082E               	movf	??___flmul,w
  4719  0270  07BA               	addwf	___flmul@prod,f
  4720  0271  082F               	movf	??___flmul+1,w
  4721  0272  1103               	clrz
  4722  0273  1803               	skipnc
  4723  0274  3E01               	addlw	1
  4724  0275  1903               	skipnz
  4725  0276  2A78               	goto	u263_21
  4726  0277  07BB               	addwf	___flmul@prod+1,f
  4727  0278                     u263_21:	
  4728  0278  0830               	movf	??___flmul+2,w
  4729  0279  1103               	clrz
  4730  027A  1803               	skipnc
  4731  027B  3E01               	addlw	1
  4732  027C  1903               	skipnz
  4733  027D  2A7F               	goto	u263_22
  4734  027E  07BC               	addwf	___flmul@prod+2,f
  4735  027F                     u263_22:	
  4736  027F  0831               	movf	??___flmul+3,w
  4737  0280  1103               	clrz
  4738  0281  1803               	skipnc
  4739  0282  3E01               	addlw	1
  4740  0283  1903               	skipnz
  4741  0284  2A86               	goto	u263_23
  4742  0285  07BD               	addwf	___flmul@prod+3,f
  4743  0286                     u263_23:	
  4744  0286                     i1l2788:	
  4745  0286  0834               	movf	___flmul@grs,w
  4746  0287  00AE               	movwf	??___flmul
  4747  0288  0835               	movf	___flmul@grs+1,w
  4748  0289  00AF               	movwf	??___flmul+1
  4749  028A  0836               	movf	___flmul@grs+2,w
  4750  028B  00B0               	movwf	??___flmul+2
  4751  028C  0837               	movf	___flmul@grs+3,w
  4752  028D  00B1               	movwf	??___flmul+3
  4753  028E  3018               	movlw	24
  4754  028F                     u264_25:	
  4755  028F  1003               	clrc
  4756  0290  0CB1               	rrf	??___flmul+3,f
  4757  0291  0CB0               	rrf	??___flmul+2,f
  4758  0292  0CAF               	rrf	??___flmul+1,f
  4759  0293  0CAE               	rrf	??___flmul,f
  4760  0294                     u264_20:	
  4761  0294  3EFF               	addlw	-1
  4762  0295  1D03               	skipz
  4763  0296  2A8F               	goto	u264_25
  4764  0297  082E               	movf	??___flmul,w
  4765  0298  07BA               	addwf	___flmul@prod,f
  4766  0299  082F               	movf	??___flmul+1,w
  4767  029A  1103               	clrz
  4768  029B  1803               	skipnc
  4769  029C  3E01               	addlw	1
  4770  029D  1903               	skipnz
  4771  029E  2AA0               	goto	u265_21
  4772  029F  07BB               	addwf	___flmul@prod+1,f
  4773  02A0                     u265_21:	
  4774  02A0  0830               	movf	??___flmul+2,w
  4775  02A1  1103               	clrz
  4776  02A2  1803               	skipnc
  4777  02A3  3E01               	addlw	1
  4778  02A4  1903               	skipnz
  4779  02A5  2AA7               	goto	u265_22
  4780  02A6  07BC               	addwf	___flmul@prod+2,f
  4781  02A7                     u265_22:	
  4782  02A7  0831               	movf	??___flmul+3,w
  4783  02A8  1103               	clrz
  4784  02A9  1803               	skipnc
  4785  02AA  3E01               	addlw	1
  4786  02AB  1903               	skipnz
  4787  02AC  2AAE               	goto	u265_23
  4788  02AD  07BD               	addwf	___flmul@prod+3,f
  4789  02AE                     u265_23:	
  4790  02AE                     i1l2790:	
  4791  02AE  3008               	movlw	8
  4792  02AF  00AE               	movwf	??___flmul
  4793  02B0                     u266_25:	
  4794  02B0  1003               	clrc
  4795  02B1  0DB4               	rlf	___flmul@grs,f
  4796  02B2  0DB5               	rlf	___flmul@grs+1,f
  4797  02B3  0DB6               	rlf	___flmul@grs+2,f
  4798  02B4  0DB7               	rlf	___flmul@grs+3,f
  4799  02B5  0BAE               	decfsz	??___flmul,f
  4800  02B6  2AB0               	goto	u266_25
  4801  02B7                     i1l2792:	
  4802  02B7  0839               	movf	___flmul@bexp,w
  4803  02B8  0738               	addwf	___flmul@aexp,w
  4804  02B9  00AE               	movwf	??___flmul
  4805  02BA  01AF               	clrf	??___flmul+1
  4806  02BB  0DAF               	rlf	??___flmul+1,f
  4807  02BC  082E               	movf	??___flmul,w
  4808  02BD  3E82               	addlw	130
  4809  02BE  00BE               	movwf	___flmul@temp
  4810  02BF  082F               	movf	??___flmul+1,w
  4811  02C0  1803               	skipnc
  4812  02C1  3E01               	addlw	1
  4813  02C2  3EFF               	addlw	255
  4814  02C3  00BF               	movwf	___flmul@temp+1
  4815  02C4  2AE2               	goto	i1l2804
  4816  02C5                     i1l2794:	
  4817  02C5  3001               	movlw	1
  4818  02C6  00AE               	movwf	??___flmul
  4819  02C7                     u267_25:	
  4820  02C7  1003               	clrc
  4821  02C8  0DBA               	rlf	___flmul@prod,f
  4822  02C9  0DBB               	rlf	___flmul@prod+1,f
  4823  02CA  0DBC               	rlf	___flmul@prod+2,f
  4824  02CB  0DBD               	rlf	___flmul@prod+3,f
  4825  02CC  0BAE               	decfsz	??___flmul,f
  4826  02CD  2AC7               	goto	u267_25
  4827  02CE                     i1l2796:	
  4828  02CE  1FB7               	btfss	___flmul@grs+3,7
  4829  02CF  2AD1               	goto	u268_21
  4830  02D0  2AD2               	goto	u268_20
  4831  02D1                     u268_21:	
  4832  02D1  2AD3               	goto	i1l2800
  4833  02D2                     u268_20:	
  4834  02D2                     i1l2798:	
  4835  02D2  143A               	bsf	___flmul@prod,0
  4836  02D3                     i1l2800:	
  4837  02D3  3001               	movlw	1
  4838  02D4  00AE               	movwf	??___flmul
  4839  02D5                     u269_25:	
  4840  02D5  1003               	clrc
  4841  02D6  0DB4               	rlf	___flmul@grs,f
  4842  02D7  0DB5               	rlf	___flmul@grs+1,f
  4843  02D8  0DB6               	rlf	___flmul@grs+2,f
  4844  02D9  0DB7               	rlf	___flmul@grs+3,f
  4845  02DA  0BAE               	decfsz	??___flmul,f
  4846  02DB  2AD5               	goto	u269_25
  4847  02DC                     i1l2802:	
  4848  02DC  30FF               	movlw	255
  4849  02DD  07BE               	addwf	___flmul@temp,f
  4850  02DE  1803               	skipnc
  4851  02DF  0ABF               	incf	___flmul@temp+1,f
  4852  02E0  30FF               	movlw	255
  4853  02E1  07BF               	addwf	___flmul@temp+1,f
  4854  02E2                     i1l2804:	
  4855  02E2  1FBC               	btfss	___flmul@prod+2,7
  4856  02E3  2AE5               	goto	u270_21
  4857  02E4  2AE6               	goto	u270_20
  4858  02E5                     u270_21:	
  4859  02E5  2AC5               	goto	i1l2794
  4860  02E6                     u270_20:	
  4861  02E6                     i1l2806:	
  4862  02E6  01B8               	clrf	___flmul@aexp
  4863  02E7                     i1l2808:	
  4864  02E7  1FB7               	btfss	___flmul@grs+3,7
  4865  02E8  2AEA               	goto	u271_21
  4866  02E9  2AEB               	goto	u271_20
  4867  02EA                     u271_21:	
  4868  02EA  2B07               	goto	i1l2816
  4869  02EB                     u271_20:	
  4870  02EB                     i1l2810:	
  4871  02EB  30FF               	movlw	255
  4872  02EC  0534               	andwf	___flmul@grs,w
  4873  02ED  00AE               	movwf	??___flmul
  4874  02EE  30FF               	movlw	255
  4875  02EF  0535               	andwf	___flmul@grs+1,w
  4876  02F0  00AF               	movwf	??___flmul+1
  4877  02F1  30FF               	movlw	255
  4878  02F2  0536               	andwf	___flmul@grs+2,w
  4879  02F3  00B0               	movwf	??___flmul+2
  4880  02F4  307F               	movlw	127
  4881  02F5  0537               	andwf	___flmul@grs+3,w
  4882  02F6  00B1               	movwf	??___flmul+3
  4883  02F7  0831               	movf	??___flmul+3,w
  4884  02F8  0430               	iorwf	??___flmul+2,w
  4885  02F9  042F               	iorwf	??___flmul+1,w
  4886  02FA  042E               	iorwf	??___flmul,w
  4887  02FB  1903               	skipnz
  4888  02FC  2AFE               	goto	u272_21
  4889  02FD  2AFF               	goto	u272_20
  4890  02FE                     u272_21:	
  4891  02FE  2B02               	goto	i1l847
  4892  02FF                     u272_20:	
  4893  02FF                     i1l2812:	
  4894  02FF  01B8               	clrf	___flmul@aexp
  4895  0300  0AB8               	incf	___flmul@aexp,f
  4896  0301  2B07               	goto	i1l2816
  4897  0302                     i1l847:	
  4898  0302  1C3A               	btfss	___flmul@prod,0
  4899  0303  2B05               	goto	u273_21
  4900  0304  2B06               	goto	u273_20
  4901  0305                     u273_21:	
  4902  0305  2B07               	goto	i1l2816
  4903  0306                     u273_20:	
  4904  0306  2AFF               	goto	i1l2812
  4905  0307                     i1l2816:	
  4906  0307  0838               	movf	___flmul@aexp,w
  4907  0308  1903               	btfsc	3,2
  4908  0309  2B0B               	goto	u274_21
  4909  030A  2B0C               	goto	u274_20
  4910  030B                     u274_21:	
  4911  030B  2B3D               	goto	i1l2826
  4912  030C                     u274_20:	
  4913  030C                     i1l2818:	
  4914  030C  3001               	movlw	1
  4915  030D  07BA               	addwf	___flmul@prod,f
  4916  030E  3000               	movlw	0
  4917  030F  1803               	skipnc
  4918  0310  3001               	movlw	1
  4919  0311  07BB               	addwf	___flmul@prod+1,f
  4920  0312  3000               	movlw	0
  4921  0313  1803               	skipnc
  4922  0314  3001               	movlw	1
  4923  0315  07BC               	addwf	___flmul@prod+2,f
  4924  0316  3000               	movlw	0
  4925  0317  1803               	skipnc
  4926  0318  3001               	movlw	1
  4927  0319  07BD               	addwf	___flmul@prod+3,f
  4928  031A                     i1l2820:	
  4929  031A  1C3D               	btfss	___flmul@prod+3,0
  4930  031B  2B1D               	goto	u275_21
  4931  031C  2B1E               	goto	u275_20
  4932  031D                     u275_21:	
  4933  031D  2B3D               	goto	i1l2826
  4934  031E                     u275_20:	
  4935  031E                     i1l2822:	
  4936  031E  083A               	movf	___flmul@prod,w
  4937  031F  00AE               	movwf	??___flmul
  4938  0320  083B               	movf	___flmul@prod+1,w
  4939  0321  00AF               	movwf	??___flmul+1
  4940  0322  083C               	movf	___flmul@prod+2,w
  4941  0323  00B0               	movwf	??___flmul+2
  4942  0324  083D               	movf	___flmul@prod+3,w
  4943  0325  00B1               	movwf	??___flmul+3
  4944  0326  3001               	movlw	1
  4945  0327  00B2               	movwf	??___flmul+4
  4946  0328                     u276_25:	
  4947  0328  0D31               	rlf	??___flmul+3,w
  4948  0329  0CB1               	rrf	??___flmul+3,f
  4949  032A  0CB0               	rrf	??___flmul+2,f
  4950  032B  0CAF               	rrf	??___flmul+1,f
  4951  032C  0CAE               	rrf	??___flmul,f
  4952  032D                     u276_20:	
  4953  032D  0BB2               	decfsz	??___flmul+4,f
  4954  032E  2B28               	goto	u276_25
  4955  032F  0831               	movf	??___flmul+3,w
  4956  0330  00BD               	movwf	___flmul@prod+3
  4957  0331  0830               	movf	??___flmul+2,w
  4958  0332  00BC               	movwf	___flmul@prod+2
  4959  0333  082F               	movf	??___flmul+1,w
  4960  0334  00BB               	movwf	___flmul@prod+1
  4961  0335  082E               	movf	??___flmul,w
  4962  0336  00BA               	movwf	___flmul@prod
  4963  0337                     i1l2824:	
  4964  0337  3001               	movlw	1
  4965  0338  07BE               	addwf	___flmul@temp,f
  4966  0339  1803               	skipnc
  4967  033A  0ABF               	incf	___flmul@temp+1,f
  4968  033B  3000               	movlw	0
  4969  033C  07BF               	addwf	___flmul@temp+1,f
  4970  033D                     i1l2826:	
  4971  033D  083F               	movf	___flmul@temp+1,w
  4972  033E  3A80               	xorlw	128
  4973  033F  00FF               	movwf	btemp+1
  4974  0340  3080               	movlw	128
  4975  0341  027F               	subwf	btemp+1,w
  4976  0342  1D03               	skipz
  4977  0343  2B46               	goto	u277_25
  4978  0344  30FF               	movlw	255
  4979  0345  023E               	subwf	___flmul@temp,w
  4980  0346                     u277_25:	
  4981  0346  1C03               	skipc
  4982  0347  2B49               	goto	u277_21
  4983  0348  2B4A               	goto	u277_20
  4984  0349                     u277_21:	
  4985  0349  2B55               	goto	i1l2830
  4986  034A                     u277_20:	
  4987  034A                     i1l2828:	
  4988  034A  307F               	movlw	127
  4989  034B  1283               	bcf	3,5	;RP0=0, select bank0
  4990  034C  1303               	bcf	3,6	;RP1=0, select bank0
  4991  034D  00BD               	movwf	___flmul@prod+3
  4992  034E  3080               	movlw	128
  4993  034F  00BC               	movwf	___flmul@prod+2
  4994  0350  3000               	movlw	0
  4995  0351  00BB               	movwf	___flmul@prod+1
  4996  0352  3000               	movlw	0
  4997  0353  00BA               	movwf	___flmul@prod
  4998  0354  2B8A               	goto	i1l853
  4999  0355                     i1l2830:	
  5000  0355  1283               	bcf	3,5	;RP0=0, select bank0
  5001  0356  1303               	bcf	3,6	;RP1=0, select bank0
  5002  0357  083F               	movf	___flmul@temp+1,w
  5003  0358  3A80               	xorlw	128
  5004  0359  00FF               	movwf	btemp+1
  5005  035A  3080               	movlw	128
  5006  035B  027F               	subwf	btemp+1,w
  5007  035C  1D03               	skipz
  5008  035D  2B60               	goto	u278_25
  5009  035E  3001               	movlw	1
  5010  035F  023E               	subwf	___flmul@temp,w
  5011  0360                     u278_25:	
  5012  0360  1803               	skipnc
  5013  0361  2B63               	goto	u278_21
  5014  0362  2B64               	goto	u278_20
  5015  0363                     u278_21:	
  5016  0363  2B70               	goto	i1l2836
  5017  0364                     u278_20:	
  5018  0364                     i1l2832:	
  5019  0364  3000               	movlw	0
  5020  0365  1283               	bcf	3,5	;RP0=0, select bank0
  5021  0366  1303               	bcf	3,6	;RP1=0, select bank0
  5022  0367  00BD               	movwf	___flmul@prod+3
  5023  0368  3000               	movlw	0
  5024  0369  00BC               	movwf	___flmul@prod+2
  5025  036A  3000               	movlw	0
  5026  036B  00BB               	movwf	___flmul@prod+1
  5027  036C  3000               	movlw	0
  5028  036D  00BA               	movwf	___flmul@prod
  5029  036E                     i1l2834:	
  5030  036E  01B3               	clrf	___flmul@sign
  5031  036F  2B8A               	goto	i1l853
  5032  0370                     i1l2836:	
  5033  0370  1283               	bcf	3,5	;RP0=0, select bank0
  5034  0371  1303               	bcf	3,6	;RP1=0, select bank0
  5035  0372  083E               	movf	___flmul@temp,w
  5036  0373  00AE               	movwf	??___flmul
  5037  0374  082E               	movf	??___flmul,w
  5038  0375  00B9               	movwf	___flmul@bexp
  5039  0376  30FF               	movlw	255
  5040  0377  05BA               	andwf	___flmul@prod,f
  5041  0378  30FF               	movlw	255
  5042  0379  05BB               	andwf	___flmul@prod+1,f
  5043  037A  307F               	movlw	127
  5044  037B  05BC               	andwf	___flmul@prod+2,f
  5045  037C  3000               	movlw	0
  5046  037D  05BD               	andwf	___flmul@prod+3,f
  5047  037E                     i1l2838:	
  5048  037E  1C39               	btfss	___flmul@bexp,0
  5049  037F  2B81               	goto	u279_21
  5050  0380  2B82               	goto	u279_20
  5051  0381                     u279_21:	
  5052  0381  2B83               	goto	i1l2842
  5053  0382                     u279_20:	
  5054  0382                     i1l2840:	
  5055  0382  17BC               	bsf	___flmul@prod+2,7
  5056  0383                     i1l2842:	
  5057  0383  0839               	movf	___flmul@bexp,w
  5058  0384  00AE               	movwf	??___flmul
  5059  0385  1003               	clrc
  5060  0386  0C2E               	rrf	??___flmul,w
  5061  0387  00AF               	movwf	??___flmul+1
  5062  0388  082F               	movf	??___flmul+1,w
  5063  0389  00BD               	movwf	___flmul@prod+3
  5064  038A                     i1l853:	
  5065  038A  0833               	movf	___flmul@sign,w
  5066  038B  00AE               	movwf	??___flmul
  5067  038C  082E               	movf	??___flmul,w
  5068  038D  04BD               	iorwf	___flmul@prod+3,f
  5069  038E                     i1l2844:	
  5070  038E  083D               	movf	___flmul@prod+3,w
  5071  038F  00A9               	movwf	?___flmul+3
  5072  0390  083C               	movf	___flmul@prod+2,w
  5073  0391  00A8               	movwf	?___flmul+2
  5074  0392  083B               	movf	___flmul@prod+1,w
  5075  0393  00A7               	movwf	?___flmul+1
  5076  0394  083A               	movf	___flmul@prod,w
  5077  0395  00A6               	movwf	?___flmul
  5078  0396                     i1l841:	
  5079  0396  0008               	return
  5080  0397                     __end_of___flmul:	
  5081                           
  5082                           	psect	text24
  5083  0B60                     __ptext24:	
  5084 ;; *************** function __Umul8_16 *****************
  5085 ;; Defined at:
  5086 ;;		line 4 in file "C:\Program Files (x86)\Microchip\xc8\v2.10\pic\sources\c90\common\Umul8_16.c"
  5087 ;; Parameters:    Size  Location     Type
  5088 ;;  multiplier      1    wreg     unsigned char 
  5089 ;;  multiplicand    1    0[COMMON] unsigned char 
  5090 ;; Auto vars:     Size  Location     Type
  5091 ;;  multiplier      1    8[COMMON] unsigned char 
  5092 ;;  word_mpld       2    6[COMMON] unsigned int 
  5093 ;;  product         2    4[COMMON] unsigned int 
  5094 ;; Return value:  Size  Location     Type
  5095 ;;                  2    0[COMMON] unsigned int 
  5096 ;; Registers used:
  5097 ;;		wreg, status,2, status,0
  5098 ;; Tracked objects:
  5099 ;;		On entry : 0/0
  5100 ;;		On exit  : 0/0
  5101 ;;		Unchanged: 0/0
  5102 ;; Data sizes:     COMMON   BANK0   BANK1   BANK3   BANK2
  5103 ;;      Params:         2       0       0       0       0
  5104 ;;      Locals:         5       0       0       0       0
  5105 ;;      Temps:          2       0       0       0       0
  5106 ;;      Totals:         9       0       0       0       0
  5107 ;;Total ram usage:        9 bytes
  5108 ;; Hardware stack levels used:    1
  5109 ;; This function calls:
  5110 ;;		Nothing
  5111 ;; This function is called by:
  5112 ;;		___flmul
  5113 ;; This function uses a non-reentrant model
  5114 ;;
  5115                           
  5116                           
  5117                           ;psect for function __Umul8_16
  5118  0B60                     __Umul8_16:	
  5119                           
  5120                           ;incstack = 0
  5121                           ; Regs used in __Umul8_16: [wreg+status,2+status,0]
  5122                           ;__Umul8_16@multiplier stored from wreg
  5123  0B60  00F8               	movwf	__Umul8_16@multiplier
  5124  0B61                     i1l2400:	
  5125  0B61  01F4               	clrf	__Umul8_16@product
  5126  0B62  01F5               	clrf	__Umul8_16@product+1
  5127  0B63                     i1l2402:	
  5128  0B63  0870               	movf	__Umul8_16@multiplicand,w
  5129  0B64  00F2               	movwf	??__Umul8_16
  5130  0B65  01F3               	clrf	??__Umul8_16+1
  5131  0B66  0872               	movf	??__Umul8_16,w
  5132  0B67  00F6               	movwf	__Umul8_16@word_mpld
  5133  0B68  0873               	movf	??__Umul8_16+1,w
  5134  0B69  00F7               	movwf	__Umul8_16@word_mpld+1
  5135  0B6A                     i1l2404:	
  5136  0B6A  1C78               	btfss	__Umul8_16@multiplier,0
  5137  0B6B  2B6D               	goto	u195_21
  5138  0B6C  2B6E               	goto	u195_20
  5139  0B6D                     u195_21:	
  5140  0B6D  2B74               	goto	i1l898
  5141  0B6E                     u195_20:	
  5142  0B6E                     i1l2406:	
  5143  0B6E  0876               	movf	__Umul8_16@word_mpld,w
  5144  0B6F  07F4               	addwf	__Umul8_16@product,f
  5145  0B70  1803               	skipnc
  5146  0B71  0AF5               	incf	__Umul8_16@product+1,f
  5147  0B72  0877               	movf	__Umul8_16@word_mpld+1,w
  5148  0B73  07F5               	addwf	__Umul8_16@product+1,f
  5149  0B74                     i1l898:	
  5150  0B74  3001               	movlw	1
  5151  0B75                     u196_25:	
  5152  0B75  1003               	clrc
  5153  0B76  0DF6               	rlf	__Umul8_16@word_mpld,f
  5154  0B77  0DF7               	rlf	__Umul8_16@word_mpld+1,f
  5155  0B78  3EFF               	addlw	-1
  5156  0B79  1D03               	skipz
  5157  0B7A  2B75               	goto	u196_25
  5158  0B7B  1003               	clrc
  5159  0B7C  0CF8               	rrf	__Umul8_16@multiplier,f
  5160  0B7D                     i1l2408:	
  5161  0B7D  0878               	movf	__Umul8_16@multiplier,w
  5162  0B7E  1D03               	btfss	3,2
  5163  0B7F  2B81               	goto	u197_21
  5164  0B80  2B82               	goto	u197_20
  5165  0B81                     u197_21:	
  5166  0B81  2B6A               	goto	i1l2404
  5167  0B82                     u197_20:	
  5168  0B82                     i1l2410:	
  5169  0B82  0875               	movf	__Umul8_16@product+1,w
  5170  0B83  00F1               	movwf	?__Umul8_16+1
  5171  0B84  0874               	movf	__Umul8_16@product,w
  5172  0B85  00F0               	movwf	?__Umul8_16
  5173  0B86                     i1l900:	
  5174  0B86  0008               	return
  5175  0B87                     __end_of__Umul8_16:	
  5176                           
  5177                           	psect	text25
  5178  0397                     __ptext25:	
  5179 ;; *************** function ___fldiv *****************
  5180 ;; Defined at:
  5181 ;;		line 8 in file "C:\Program Files (x86)\Microchip\xc8\v2.10\pic\sources\c90\common\sprcdiv.c"
  5182 ;; Parameters:    Size  Location     Type
  5183 ;;  a               4    6[BANK0 ] unsigned int 
  5184 ;;  b               4   10[BANK0 ] unsigned int 
  5185 ;; Auto vars:     Size  Location     Type
  5186 ;;  grs             4   26[BANK0 ] unsigned long 
  5187 ;;  rem             4   19[BANK0 ] unsigned long 
  5188 ;;  new_exp         2   24[BANK0 ] int 
  5189 ;;  aexp            1   31[BANK0 ] unsigned char 
  5190 ;;  bexp            1   30[BANK0 ] unsigned char 
  5191 ;;  sign            1   23[BANK0 ] unsigned char 
  5192 ;; Return value:  Size  Location     Type
  5193 ;;                  4    6[BANK0 ] unsigned char 
  5194 ;; Registers used:
  5195 ;;		wreg, status,2, status,0, btemp+1
  5196 ;; Tracked objects:
  5197 ;;		On entry : 0/0
  5198 ;;		On exit  : 0/0
  5199 ;;		Unchanged: 0/0
  5200 ;; Data sizes:     COMMON   BANK0   BANK1   BANK3   BANK2
  5201 ;;      Params:         0       8       0       0       0
  5202 ;;      Locals:         0      13       0       0       0
  5203 ;;      Temps:          0       5       0       0       0
  5204 ;;      Totals:         0      26       0       0       0
  5205 ;;Total ram usage:       26 bytes
  5206 ;; Hardware stack levels used:    1
  5207 ;; This function calls:
  5208 ;;		Nothing
  5209 ;; This function is called by:
  5210 ;;		_temp_sensor_read
  5211 ;; This function uses a non-reentrant model
  5212 ;;
  5213                           
  5214                           
  5215                           ;psect for function ___fldiv
  5216  0397                     ___fldiv:	
  5217  0397                     i1l2566:	
  5218                           ;incstack = 0
  5219                           ; Regs used in ___fldiv: [wreg+status,2+status,0+btemp+1]
  5220                           
  5221  0397  1283               	bcf	3,5	;RP0=0, select bank0
  5222  0398  1303               	bcf	3,6	;RP1=0, select bank0
  5223  0399  082D               	movf	___fldiv@b+3,w
  5224  039A  3980               	andlw	128
  5225  039B  00AE               	movwf	??___fldiv
  5226  039C  082E               	movf	??___fldiv,w
  5227  039D  00B7               	movwf	___fldiv@sign
  5228  039E                     i1l2568:	
  5229  039E  082D               	movf	___fldiv@b+3,w
  5230  039F  00AE               	movwf	??___fldiv
  5231  03A0  072E               	addwf	??___fldiv,w
  5232  03A1  00AF               	movwf	??___fldiv+1
  5233  03A2  082F               	movf	??___fldiv+1,w
  5234  03A3  00BE               	movwf	___fldiv@bexp
  5235  03A4                     i1l2570:	
  5236  03A4  1FAC               	btfss	___fldiv@b+2,7
  5237  03A5  2BA7               	goto	u214_21
  5238  03A6  2BA8               	goto	u214_20
  5239  03A7                     u214_21:	
  5240  03A7  2BA9               	goto	i1l2574
  5241  03A8                     u214_20:	
  5242  03A8                     i1l2572:	
  5243  03A8  143E               	bsf	___fldiv@bexp,0
  5244  03A9                     i1l2574:	
  5245  03A9  083E               	movf	___fldiv@bexp,w
  5246  03AA  1903               	btfsc	3,2
  5247  03AB  2BAD               	goto	u215_21
  5248  03AC  2BAE               	goto	u215_20
  5249  03AD                     u215_21:	
  5250  03AD  2BBE               	goto	i1l2584
  5251  03AE                     u215_20:	
  5252  03AE                     i1l2576:	
  5253  03AE  0A3E               	incf	___fldiv@bexp,w
  5254  03AF  1D03               	btfss	3,2
  5255  03B0  2BB2               	goto	u216_21
  5256  03B1  2BB3               	goto	u216_20
  5257  03B2                     u216_21:	
  5258  03B2  2BBB               	goto	i1l2580
  5259  03B3                     u216_20:	
  5260  03B3                     i1l2578:	
  5261  03B3  3000               	movlw	0
  5262  03B4  00AD               	movwf	___fldiv@b+3
  5263  03B5  3000               	movlw	0
  5264  03B6  00AC               	movwf	___fldiv@b+2
  5265  03B7  3000               	movlw	0
  5266  03B8  00AB               	movwf	___fldiv@b+1
  5267  03B9  3000               	movlw	0
  5268  03BA  00AA               	movwf	___fldiv@b
  5269  03BB                     i1l2580:	
  5270  03BB  17AC               	bsf	___fldiv@b+2,7
  5271  03BC                     i1l2582:	
  5272  03BC  01AD               	clrf	___fldiv@b+3
  5273  03BD  2BC6               	goto	i1l2586
  5274  03BE                     i1l2584:	
  5275  03BE  3000               	movlw	0
  5276  03BF  00AD               	movwf	___fldiv@b+3
  5277  03C0  3000               	movlw	0
  5278  03C1  00AC               	movwf	___fldiv@b+2
  5279  03C2  3000               	movlw	0
  5280  03C3  00AB               	movwf	___fldiv@b+1
  5281  03C4  3000               	movlw	0
  5282  03C5  00AA               	movwf	___fldiv@b
  5283  03C6                     i1l2586:	
  5284  03C6  0829               	movf	___fldiv@a+3,w
  5285  03C7  3980               	andlw	128
  5286  03C8  00AE               	movwf	??___fldiv
  5287  03C9  082E               	movf	??___fldiv,w
  5288  03CA  06B7               	xorwf	___fldiv@sign,f
  5289  03CB                     i1l2588:	
  5290  03CB  0829               	movf	___fldiv@a+3,w
  5291  03CC  00AE               	movwf	??___fldiv
  5292  03CD  072E               	addwf	??___fldiv,w
  5293  03CE  00AF               	movwf	??___fldiv+1
  5294  03CF  082F               	movf	??___fldiv+1,w
  5295  03D0  00BF               	movwf	___fldiv@aexp
  5296  03D1                     i1l2590:	
  5297  03D1  1FA8               	btfss	___fldiv@a+2,7
  5298  03D2  2BD4               	goto	u217_21
  5299  03D3  2BD5               	goto	u217_20
  5300  03D4                     u217_21:	
  5301  03D4  2BD6               	goto	i1l2594
  5302  03D5                     u217_20:	
  5303  03D5                     i1l2592:	
  5304  03D5  143F               	bsf	___fldiv@aexp,0
  5305  03D6                     i1l2594:	
  5306  03D6  083F               	movf	___fldiv@aexp,w
  5307  03D7  1903               	btfsc	3,2
  5308  03D8  2BDA               	goto	u218_21
  5309  03D9  2BDB               	goto	u218_20
  5310  03DA                     u218_21:	
  5311  03DA  2BEB               	goto	i1l2604
  5312  03DB                     u218_20:	
  5313  03DB                     i1l2596:	
  5314  03DB  0A3F               	incf	___fldiv@aexp,w
  5315  03DC  1D03               	btfss	3,2
  5316  03DD  2BDF               	goto	u219_21
  5317  03DE  2BE0               	goto	u219_20
  5318  03DF                     u219_21:	
  5319  03DF  2BE8               	goto	i1l2600
  5320  03E0                     u219_20:	
  5321  03E0                     i1l2598:	
  5322  03E0  3000               	movlw	0
  5323  03E1  00A9               	movwf	___fldiv@a+3
  5324  03E2  3000               	movlw	0
  5325  03E3  00A8               	movwf	___fldiv@a+2
  5326  03E4  3000               	movlw	0
  5327  03E5  00A7               	movwf	___fldiv@a+1
  5328  03E6  3000               	movlw	0
  5329  03E7  00A6               	movwf	___fldiv@a
  5330  03E8                     i1l2600:	
  5331  03E8  17A8               	bsf	___fldiv@a+2,7
  5332  03E9                     i1l2602:	
  5333  03E9  01A9               	clrf	___fldiv@a+3
  5334  03EA  2BF3               	goto	i1l801
  5335  03EB                     i1l2604:	
  5336  03EB  3000               	movlw	0
  5337  03EC  00A9               	movwf	___fldiv@a+3
  5338  03ED  3000               	movlw	0
  5339  03EE  00A8               	movwf	___fldiv@a+2
  5340  03EF  3000               	movlw	0
  5341  03F0  00A7               	movwf	___fldiv@a+1
  5342  03F1  3000               	movlw	0
  5343  03F2  00A6               	movwf	___fldiv@a
  5344  03F3                     i1l801:	
  5345  03F3  0829               	movf	___fldiv@a+3,w
  5346  03F4  0428               	iorwf	___fldiv@a+2,w
  5347  03F5  0427               	iorwf	___fldiv@a+1,w
  5348  03F6  0426               	iorwf	___fldiv@a,w
  5349  03F7  1D03               	skipz
  5350  03F8  2BFA               	goto	u220_21
  5351  03F9  2BFB               	goto	u220_20
  5352  03FA                     u220_21:	
  5353  03FA  2C14               	goto	i1l2614
  5354  03FB                     u220_20:	
  5355  03FB                     i1l2606:	
  5356  03FB  3000               	movlw	0
  5357  03FC  00AD               	movwf	___fldiv@b+3
  5358  03FD  3000               	movlw	0
  5359  03FE  00AC               	movwf	___fldiv@b+2
  5360  03FF  3000               	movlw	0
  5361  0400  00AB               	movwf	___fldiv@b+1
  5362  0401  3000               	movlw	0
  5363  0402  00AA               	movwf	___fldiv@b
  5364  0403  3080               	movlw	128
  5365  0404  04AC               	iorwf	___fldiv@b+2,f
  5366  0405  307F               	movlw	127
  5367  0406  04AD               	iorwf	___fldiv@b+3,f
  5368  0407                     i1l2608:	
  5369  0407  0837               	movf	___fldiv@sign,w
  5370  0408  00AE               	movwf	??___fldiv
  5371  0409  082E               	movf	??___fldiv,w
  5372  040A  04AD               	iorwf	___fldiv@b+3,f
  5373  040B                     i1l2610:	
  5374  040B  082D               	movf	___fldiv@b+3,w
  5375  040C  00A9               	movwf	?___fldiv+3
  5376  040D  082C               	movf	___fldiv@b+2,w
  5377  040E  00A8               	movwf	?___fldiv+2
  5378  040F  082B               	movf	___fldiv@b+1,w
  5379  0410  00A7               	movwf	?___fldiv+1
  5380  0411  082A               	movf	___fldiv@b,w
  5381  0412  00A6               	movwf	?___fldiv
  5382  0413  2D73               	goto	i1l803
  5383  0414                     i1l2614:	
  5384  0414  083E               	movf	___fldiv@bexp,w
  5385  0415  1D03               	btfss	3,2
  5386  0416  2C18               	goto	u221_21
  5387  0417  2C19               	goto	u221_20
  5388  0418                     u221_21:	
  5389  0418  2C22               	goto	i1l2620
  5390  0419                     u221_20:	
  5391  0419                     i1l2616:	
  5392  0419  3000               	movlw	0
  5393  041A  00A9               	movwf	?___fldiv+3
  5394  041B  3000               	movlw	0
  5395  041C  00A8               	movwf	?___fldiv+2
  5396  041D  3000               	movlw	0
  5397  041E  00A7               	movwf	?___fldiv+1
  5398  041F  3000               	movlw	0
  5399  0420  00A6               	movwf	?___fldiv
  5400  0421  2D73               	goto	i1l803
  5401  0422                     i1l2620:	
  5402  0422  083E               	movf	___fldiv@bexp,w
  5403  0423  00AE               	movwf	??___fldiv
  5404  0424  01AF               	clrf	??___fldiv+1
  5405  0425  082F               	movf	??___fldiv+1,w
  5406  0426  00B1               	movwf	??___fldiv+3
  5407  0427  083F               	movf	___fldiv@aexp,w
  5408  0428  022E               	subwf	??___fldiv,w
  5409  0429  00B0               	movwf	??___fldiv+2
  5410  042A  1C03               	skipc
  5411  042B  03B1               	decf	??___fldiv+3,f
  5412  042C  0830               	movf	??___fldiv+2,w
  5413  042D  3E7F               	addlw	127
  5414  042E  00B8               	movwf	___fldiv@new_exp
  5415  042F  0831               	movf	??___fldiv+3,w
  5416  0430  1803               	skipnc
  5417  0431  3E01               	addlw	1
  5418  0432  3E00               	addlw	0
  5419  0433  00B9               	movwf	___fldiv@new_exp+1
  5420  0434                     i1l2622:	
  5421  0434  082D               	movf	___fldiv@b+3,w
  5422  0435  00B6               	movwf	___fldiv@rem+3
  5423  0436  082C               	movf	___fldiv@b+2,w
  5424  0437  00B5               	movwf	___fldiv@rem+2
  5425  0438  082B               	movf	___fldiv@b+1,w
  5426  0439  00B4               	movwf	___fldiv@rem+1
  5427  043A  082A               	movf	___fldiv@b,w
  5428  043B  00B3               	movwf	___fldiv@rem
  5429  043C                     i1l2624:	
  5430  043C  3000               	movlw	0
  5431  043D  00AD               	movwf	___fldiv@b+3
  5432  043E  3000               	movlw	0
  5433  043F  00AC               	movwf	___fldiv@b+2
  5434  0440  3000               	movlw	0
  5435  0441  00AB               	movwf	___fldiv@b+1
  5436  0442  3000               	movlw	0
  5437  0443  00AA               	movwf	___fldiv@b
  5438  0444                     i1l2626:	
  5439  0444  3000               	movlw	0
  5440  0445  00BD               	movwf	___fldiv@grs+3
  5441  0446  3000               	movlw	0
  5442  0447  00BC               	movwf	___fldiv@grs+2
  5443  0448  3000               	movlw	0
  5444  0449  00BB               	movwf	___fldiv@grs+1
  5445  044A  3000               	movlw	0
  5446  044B  00BA               	movwf	___fldiv@grs
  5447  044C                     i1l2628:	
  5448  044C  01BF               	clrf	___fldiv@aexp
  5449  044D  2C98               	goto	i1l2648
  5450  044E                     i1l2630:	
  5451  044E  083F               	movf	___fldiv@aexp,w
  5452  044F  1903               	btfsc	3,2
  5453  0450  2C52               	goto	u222_21
  5454  0451  2C53               	goto	u222_20
  5455  0452                     u222_21:	
  5456  0452  2C73               	goto	i1l2640
  5457  0453                     u222_20:	
  5458  0453                     i1l2632:	
  5459  0453  3001               	movlw	1
  5460  0454  00AE               	movwf	??___fldiv
  5461  0455                     u223_25:	
  5462  0455  1003               	clrc
  5463  0456  0DB3               	rlf	___fldiv@rem,f
  5464  0457  0DB4               	rlf	___fldiv@rem+1,f
  5465  0458  0DB5               	rlf	___fldiv@rem+2,f
  5466  0459  0DB6               	rlf	___fldiv@rem+3,f
  5467  045A  0BAE               	decfsz	??___fldiv,f
  5468  045B  2C55               	goto	u223_25
  5469  045C  3001               	movlw	1
  5470  045D  00AE               	movwf	??___fldiv
  5471  045E                     u224_25:	
  5472  045E  1003               	clrc
  5473  045F  0DAA               	rlf	___fldiv@b,f
  5474  0460  0DAB               	rlf	___fldiv@b+1,f
  5475  0461  0DAC               	rlf	___fldiv@b+2,f
  5476  0462  0DAD               	rlf	___fldiv@b+3,f
  5477  0463  0BAE               	decfsz	??___fldiv,f
  5478  0464  2C5E               	goto	u224_25
  5479  0465                     i1l2634:	
  5480  0465  1FBD               	btfss	___fldiv@grs+3,7
  5481  0466  2C68               	goto	u225_21
  5482  0467  2C69               	goto	u225_20
  5483  0468                     u225_21:	
  5484  0468  2C6A               	goto	i1l2638
  5485  0469                     u225_20:	
  5486  0469                     i1l2636:	
  5487  0469  142A               	bsf	___fldiv@b,0
  5488  046A                     i1l2638:	
  5489  046A  3001               	movlw	1
  5490  046B  00AE               	movwf	??___fldiv
  5491  046C                     u226_25:	
  5492  046C  1003               	clrc
  5493  046D  0DBA               	rlf	___fldiv@grs,f
  5494  046E  0DBB               	rlf	___fldiv@grs+1,f
  5495  046F  0DBC               	rlf	___fldiv@grs+2,f
  5496  0470  0DBD               	rlf	___fldiv@grs+3,f
  5497  0471  0BAE               	decfsz	??___fldiv,f
  5498  0472  2C6C               	goto	u226_25
  5499  0473                     i1l2640:	
  5500  0473  0829               	movf	___fldiv@a+3,w
  5501  0474  0236               	subwf	___fldiv@rem+3,w
  5502  0475  1D03               	skipz
  5503  0476  2C81               	goto	u227_25
  5504  0477  0828               	movf	___fldiv@a+2,w
  5505  0478  0235               	subwf	___fldiv@rem+2,w
  5506  0479  1D03               	skipz
  5507  047A  2C81               	goto	u227_25
  5508  047B  0827               	movf	___fldiv@a+1,w
  5509  047C  0234               	subwf	___fldiv@rem+1,w
  5510  047D  1D03               	skipz
  5511  047E  2C81               	goto	u227_25
  5512  047F  0826               	movf	___fldiv@a,w
  5513  0480  0233               	subwf	___fldiv@rem,w
  5514  0481                     u227_25:	
  5515  0481  1C03               	skipc
  5516  0482  2C84               	goto	u227_21
  5517  0483  2C85               	goto	u227_20
  5518  0484                     u227_21:	
  5519  0484  2C94               	goto	i1l2646
  5520  0485                     u227_20:	
  5521  0485                     i1l2642:	
  5522  0485  173D               	bsf	___fldiv@grs+3,6
  5523  0486                     i1l2644:	
  5524  0486  0826               	movf	___fldiv@a,w
  5525  0487  02B3               	subwf	___fldiv@rem,f
  5526  0488  0827               	movf	___fldiv@a+1,w
  5527  0489  1C03               	skipc
  5528  048A  0F27               	incfsz	___fldiv@a+1,w
  5529  048B  02B4               	subwf	___fldiv@rem+1,f
  5530  048C  0828               	movf	___fldiv@a+2,w
  5531  048D  1C03               	skipc
  5532  048E  0F28               	incfsz	___fldiv@a+2,w
  5533  048F  02B5               	subwf	___fldiv@rem+2,f
  5534  0490  0829               	movf	___fldiv@a+3,w
  5535  0491  1C03               	skipc
  5536  0492  0F29               	incfsz	___fldiv@a+3,w
  5537  0493  02B6               	subwf	___fldiv@rem+3,f
  5538  0494                     i1l2646:	
  5539  0494  3001               	movlw	1
  5540  0495  00AE               	movwf	??___fldiv
  5541  0496  082E               	movf	??___fldiv,w
  5542  0497  07BF               	addwf	___fldiv@aexp,f
  5543  0498                     i1l2648:	
  5544  0498  301A               	movlw	26
  5545  0499  023F               	subwf	___fldiv@aexp,w
  5546  049A  1C03               	skipc
  5547  049B  2C9D               	goto	u228_21
  5548  049C  2C9E               	goto	u228_20
  5549  049D                     u228_21:	
  5550  049D  2C4E               	goto	i1l2630
  5551  049E                     u228_20:	
  5552  049E                     i1l2650:	
  5553  049E  0836               	movf	___fldiv@rem+3,w
  5554  049F  0435               	iorwf	___fldiv@rem+2,w
  5555  04A0  0434               	iorwf	___fldiv@rem+1,w
  5556  04A1  0433               	iorwf	___fldiv@rem,w
  5557  04A2  1903               	skipnz
  5558  04A3  2CA5               	goto	u229_21
  5559  04A4  2CA6               	goto	u229_20
  5560  04A5                     u229_21:	
  5561  04A5  2CC5               	goto	i1l2664
  5562  04A6                     u229_20:	
  5563  04A6                     i1l2652:	
  5564  04A6  143A               	bsf	___fldiv@grs,0
  5565  04A7  2CC5               	goto	i1l2664
  5566  04A8                     i1l2654:	
  5567  04A8  3001               	movlw	1
  5568  04A9  00AE               	movwf	??___fldiv
  5569  04AA                     u230_25:	
  5570  04AA  1003               	clrc
  5571  04AB  0DAA               	rlf	___fldiv@b,f
  5572  04AC  0DAB               	rlf	___fldiv@b+1,f
  5573  04AD  0DAC               	rlf	___fldiv@b+2,f
  5574  04AE  0DAD               	rlf	___fldiv@b+3,f
  5575  04AF  0BAE               	decfsz	??___fldiv,f
  5576  04B0  2CAA               	goto	u230_25
  5577  04B1                     i1l2656:	
  5578  04B1  1FBD               	btfss	___fldiv@grs+3,7
  5579  04B2  2CB4               	goto	u231_21
  5580  04B3  2CB5               	goto	u231_20
  5581  04B4                     u231_21:	
  5582  04B4  2CB6               	goto	i1l2660
  5583  04B5                     u231_20:	
  5584  04B5                     i1l2658:	
  5585  04B5  142A               	bsf	___fldiv@b,0
  5586  04B6                     i1l2660:	
  5587  04B6  3001               	movlw	1
  5588  04B7  00AE               	movwf	??___fldiv
  5589  04B8                     u232_25:	
  5590  04B8  1003               	clrc
  5591  04B9  0DBA               	rlf	___fldiv@grs,f
  5592  04BA  0DBB               	rlf	___fldiv@grs+1,f
  5593  04BB  0DBC               	rlf	___fldiv@grs+2,f
  5594  04BC  0DBD               	rlf	___fldiv@grs+3,f
  5595  04BD  0BAE               	decfsz	??___fldiv,f
  5596  04BE  2CB8               	goto	u232_25
  5597  04BF                     i1l2662:	
  5598  04BF  30FF               	movlw	255
  5599  04C0  07B8               	addwf	___fldiv@new_exp,f
  5600  04C1  1803               	skipnc
  5601  04C2  0AB9               	incf	___fldiv@new_exp+1,f
  5602  04C3  30FF               	movlw	255
  5603  04C4  07B9               	addwf	___fldiv@new_exp+1,f
  5604  04C5                     i1l2664:	
  5605  04C5  1FAC               	btfss	___fldiv@b+2,7
  5606  04C6  2CC8               	goto	u233_21
  5607  04C7  2CC9               	goto	u233_20
  5608  04C8                     u233_21:	
  5609  04C8  2CA8               	goto	i1l2654
  5610  04C9                     u233_20:	
  5611  04C9                     i1l2666:	
  5612  04C9  01BF               	clrf	___fldiv@aexp
  5613  04CA                     i1l2668:	
  5614  04CA  1FBD               	btfss	___fldiv@grs+3,7
  5615  04CB  2CCD               	goto	u234_21
  5616  04CC  2CCE               	goto	u234_20
  5617  04CD                     u234_21:	
  5618  04CD  2CEA               	goto	i1l2676
  5619  04CE                     u234_20:	
  5620  04CE                     i1l2670:	
  5621  04CE  30FF               	movlw	255
  5622  04CF  053A               	andwf	___fldiv@grs,w
  5623  04D0  00AE               	movwf	??___fldiv
  5624  04D1  30FF               	movlw	255
  5625  04D2  053B               	andwf	___fldiv@grs+1,w
  5626  04D3  00AF               	movwf	??___fldiv+1
  5627  04D4  30FF               	movlw	255
  5628  04D5  053C               	andwf	___fldiv@grs+2,w
  5629  04D6  00B0               	movwf	??___fldiv+2
  5630  04D7  307F               	movlw	127
  5631  04D8  053D               	andwf	___fldiv@grs+3,w
  5632  04D9  00B1               	movwf	??___fldiv+3
  5633  04DA  0831               	movf	??___fldiv+3,w
  5634  04DB  0430               	iorwf	??___fldiv+2,w
  5635  04DC  042F               	iorwf	??___fldiv+1,w
  5636  04DD  042E               	iorwf	??___fldiv,w
  5637  04DE  1903               	skipnz
  5638  04DF  2CE1               	goto	u235_21
  5639  04E0  2CE2               	goto	u235_20
  5640  04E1                     u235_21:	
  5641  04E1  2CE5               	goto	i1l817
  5642  04E2                     u235_20:	
  5643  04E2                     i1l2672:	
  5644  04E2  01BF               	clrf	___fldiv@aexp
  5645  04E3  0ABF               	incf	___fldiv@aexp,f
  5646  04E4  2CEA               	goto	i1l2676
  5647  04E5                     i1l817:	
  5648  04E5  1C2A               	btfss	___fldiv@b,0
  5649  04E6  2CE8               	goto	u236_21
  5650  04E7  2CE9               	goto	u236_20
  5651  04E8                     u236_21:	
  5652  04E8  2CEA               	goto	i1l2676
  5653  04E9                     u236_20:	
  5654  04E9  2CE2               	goto	i1l2672
  5655  04EA                     i1l2676:	
  5656  04EA  083F               	movf	___fldiv@aexp,w
  5657  04EB  1903               	btfsc	3,2
  5658  04EC  2CEE               	goto	u237_21
  5659  04ED  2CEF               	goto	u237_20
  5660  04EE                     u237_21:	
  5661  04EE  2D20               	goto	i1l2686
  5662  04EF                     u237_20:	
  5663  04EF                     i1l2678:	
  5664  04EF  3001               	movlw	1
  5665  04F0  07AA               	addwf	___fldiv@b,f
  5666  04F1  3000               	movlw	0
  5667  04F2  1803               	skipnc
  5668  04F3  3001               	movlw	1
  5669  04F4  07AB               	addwf	___fldiv@b+1,f
  5670  04F5  3000               	movlw	0
  5671  04F6  1803               	skipnc
  5672  04F7  3001               	movlw	1
  5673  04F8  07AC               	addwf	___fldiv@b+2,f
  5674  04F9  3000               	movlw	0
  5675  04FA  1803               	skipnc
  5676  04FB  3001               	movlw	1
  5677  04FC  07AD               	addwf	___fldiv@b+3,f
  5678  04FD                     i1l2680:	
  5679  04FD  1C2D               	btfss	___fldiv@b+3,0
  5680  04FE  2D00               	goto	u238_21
  5681  04FF  2D01               	goto	u238_20
  5682  0500                     u238_21:	
  5683  0500  2D20               	goto	i1l2686
  5684  0501                     u238_20:	
  5685  0501                     i1l2682:	
  5686  0501  082A               	movf	___fldiv@b,w
  5687  0502  00AE               	movwf	??___fldiv
  5688  0503  082B               	movf	___fldiv@b+1,w
  5689  0504  00AF               	movwf	??___fldiv+1
  5690  0505  082C               	movf	___fldiv@b+2,w
  5691  0506  00B0               	movwf	??___fldiv+2
  5692  0507  082D               	movf	___fldiv@b+3,w
  5693  0508  00B1               	movwf	??___fldiv+3
  5694  0509  3001               	movlw	1
  5695  050A  00B2               	movwf	??___fldiv+4
  5696  050B                     u239_25:	
  5697  050B  0D31               	rlf	??___fldiv+3,w
  5698  050C  0CB1               	rrf	??___fldiv+3,f
  5699  050D  0CB0               	rrf	??___fldiv+2,f
  5700  050E  0CAF               	rrf	??___fldiv+1,f
  5701  050F  0CAE               	rrf	??___fldiv,f
  5702  0510                     u239_20:	
  5703  0510  0BB2               	decfsz	??___fldiv+4,f
  5704  0511  2D0B               	goto	u239_25
  5705  0512  0831               	movf	??___fldiv+3,w
  5706  0513  00AD               	movwf	___fldiv@b+3
  5707  0514  0830               	movf	??___fldiv+2,w
  5708  0515  00AC               	movwf	___fldiv@b+2
  5709  0516  082F               	movf	??___fldiv+1,w
  5710  0517  00AB               	movwf	___fldiv@b+1
  5711  0518  082E               	movf	??___fldiv,w
  5712  0519  00AA               	movwf	___fldiv@b
  5713  051A                     i1l2684:	
  5714  051A  3001               	movlw	1
  5715  051B  07B8               	addwf	___fldiv@new_exp,f
  5716  051C  1803               	skipnc
  5717  051D  0AB9               	incf	___fldiv@new_exp+1,f
  5718  051E  3000               	movlw	0
  5719  051F  07B9               	addwf	___fldiv@new_exp+1,f
  5720  0520                     i1l2686:	
  5721  0520  0839               	movf	___fldiv@new_exp+1,w
  5722  0521  3A80               	xorlw	128
  5723  0522  00FF               	movwf	btemp+1
  5724  0523  3080               	movlw	128
  5725  0524  027F               	subwf	btemp+1,w
  5726  0525  1D03               	skipz
  5727  0526  2D29               	goto	u240_25
  5728  0527  30FF               	movlw	255
  5729  0528  0238               	subwf	___fldiv@new_exp,w
  5730  0529                     u240_25:	
  5731  0529  1C03               	skipc
  5732  052A  2D2C               	goto	u240_21
  5733  052B  2D2D               	goto	u240_20
  5734  052C                     u240_21:	
  5735  052C  2D3B               	goto	i1l2690
  5736  052D                     u240_20:	
  5737  052D                     i1l2688:	
  5738  052D  30FF               	movlw	255
  5739  052E  1283               	bcf	3,5	;RP0=0, select bank0
  5740  052F  1303               	bcf	3,6	;RP1=0, select bank0
  5741  0530  00B8               	movwf	___fldiv@new_exp
  5742  0531  3000               	movlw	0
  5743  0532  00B9               	movwf	___fldiv@new_exp+1
  5744  0533  3000               	movlw	0
  5745  0534  00AD               	movwf	___fldiv@b+3
  5746  0535  3000               	movlw	0
  5747  0536  00AC               	movwf	___fldiv@b+2
  5748  0537  3000               	movlw	0
  5749  0538  00AB               	movwf	___fldiv@b+1
  5750  0539  3000               	movlw	0
  5751  053A  00AA               	movwf	___fldiv@b
  5752  053B                     i1l2690:	
  5753  053B  1283               	bcf	3,5	;RP0=0, select bank0
  5754  053C  1303               	bcf	3,6	;RP1=0, select bank0
  5755  053D  0839               	movf	___fldiv@new_exp+1,w
  5756  053E  3A80               	xorlw	128
  5757  053F  00FF               	movwf	btemp+1
  5758  0540  3080               	movlw	128
  5759  0541  027F               	subwf	btemp+1,w
  5760  0542  1D03               	skipz
  5761  0543  2D46               	goto	u241_25
  5762  0544  3001               	movlw	1
  5763  0545  0238               	subwf	___fldiv@new_exp,w
  5764  0546                     u241_25:	
  5765  0546  1803               	skipnc
  5766  0547  2D49               	goto	u241_21
  5767  0548  2D4A               	goto	u241_20
  5768  0549                     u241_21:	
  5769  0549  2D57               	goto	i1l823
  5770  054A                     u241_20:	
  5771  054A                     i1l2692:	
  5772  054A  1283               	bcf	3,5	;RP0=0, select bank0
  5773  054B  1303               	bcf	3,6	;RP1=0, select bank0
  5774  054C  01B8               	clrf	___fldiv@new_exp
  5775  054D  01B9               	clrf	___fldiv@new_exp+1
  5776  054E                     i1l2694:	
  5777  054E  3000               	movlw	0
  5778  054F  00AD               	movwf	___fldiv@b+3
  5779  0550  3000               	movlw	0
  5780  0551  00AC               	movwf	___fldiv@b+2
  5781  0552  3000               	movlw	0
  5782  0553  00AB               	movwf	___fldiv@b+1
  5783  0554  3000               	movlw	0
  5784  0555  00AA               	movwf	___fldiv@b
  5785  0556                     i1l2696:	
  5786  0556  01B7               	clrf	___fldiv@sign
  5787  0557                     i1l823:	
  5788  0557  1283               	bcf	3,5	;RP0=0, select bank0
  5789  0558  1303               	bcf	3,6	;RP1=0, select bank0
  5790  0559  0838               	movf	___fldiv@new_exp,w
  5791  055A  00AE               	movwf	??___fldiv
  5792  055B  082E               	movf	??___fldiv,w
  5793  055C  00BE               	movwf	___fldiv@bexp
  5794  055D                     i1l2698:	
  5795  055D  1C3E               	btfss	___fldiv@bexp,0
  5796  055E  2D60               	goto	u242_21
  5797  055F  2D61               	goto	u242_20
  5798  0560                     u242_21:	
  5799  0560  2D63               	goto	i1l2702
  5800  0561                     u242_20:	
  5801  0561                     i1l2700:	
  5802  0561  17AC               	bsf	___fldiv@b+2,7
  5803  0562  2D67               	goto	i1l825
  5804  0563                     i1l2702:	
  5805  0563  307F               	movlw	127
  5806  0564  00AE               	movwf	??___fldiv
  5807  0565  082E               	movf	??___fldiv,w
  5808  0566  05AC               	andwf	___fldiv@b+2,f
  5809  0567                     i1l825:	
  5810  0567  083E               	movf	___fldiv@bexp,w
  5811  0568  00AE               	movwf	??___fldiv
  5812  0569  1003               	clrc
  5813  056A  0C2E               	rrf	??___fldiv,w
  5814  056B  00AF               	movwf	??___fldiv+1
  5815  056C  082F               	movf	??___fldiv+1,w
  5816  056D  00AD               	movwf	___fldiv@b+3
  5817  056E  0837               	movf	___fldiv@sign,w
  5818  056F  00AE               	movwf	??___fldiv
  5819  0570  082E               	movf	??___fldiv,w
  5820  0571  04AD               	iorwf	___fldiv@b+3,f
  5821  0572  2C0B               	goto	i1l2610
  5822  0573                     i1l803:	
  5823  0573  0008               	return
  5824  0574                     __end_of___fldiv:	
  5825                           
  5826                           	psect	text26
  5827  0B87                     __ptext26:	
  5828 ;; *************** function _ADC_Read *****************
  5829 ;; Defined at:
  5830 ;;		line 29 in file "adc_drive.c"
  5831 ;; Parameters:    Size  Location     Type
  5832 ;;  channel         1    wreg     unsigned char 
  5833 ;; Auto vars:     Size  Location     Type
  5834 ;;  channel         1    4[COMMON] unsigned char 
  5835 ;; Return value:  Size  Location     Type
  5836 ;;                  2    0[COMMON] unsigned int 
  5837 ;; Registers used:
  5838 ;;		wreg, status,2, status,0
  5839 ;; Tracked objects:
  5840 ;;		On entry : 0/0
  5841 ;;		On exit  : 0/0
  5842 ;;		Unchanged: 0/0
  5843 ;; Data sizes:     COMMON   BANK0   BANK1   BANK3   BANK2
  5844 ;;      Params:         2       0       0       0       0
  5845 ;;      Locals:         1       0       0       0       0
  5846 ;;      Temps:          2       0       0       0       0
  5847 ;;      Totals:         5       0       0       0       0
  5848 ;;Total ram usage:        5 bytes
  5849 ;; Hardware stack levels used:    1
  5850 ;; This function calls:
  5851 ;;		Nothing
  5852 ;; This function is called by:
  5853 ;;		_temp_sensor_read
  5854 ;; This function uses a non-reentrant model
  5855 ;;
  5856                           
  5857                           
  5858                           ;psect for function _ADC_Read
  5859  0B87                     _ADC_Read:	
  5860                           
  5861                           ;incstack = 0
  5862                           ; Regs used in _ADC_Read: [wreg+status,2+status,0]
  5863                           ;ADC_Read@channel stored from wreg
  5864  0B87  00F4               	movwf	ADC_Read@channel
  5865  0B88                     i1l2476:	
  5866                           
  5867                           ;adc_drive.c: 30:     (ADCON0 &= ~(1 << 3));
  5868  0B88  30F7               	movlw	247
  5869  0B89  00F2               	movwf	??_ADC_Read
  5870  0B8A  0872               	movf	??_ADC_Read,w
  5871  0B8B  1283               	bcf	3,5	;RP0=0, select bank0
  5872  0B8C  1303               	bcf	3,6	;RP1=0, select bank0
  5873  0B8D  059F               	andwf	31,f	;volatile
  5874                           
  5875                           ;adc_drive.c: 31:     (ADCON0 &= ~(1 << 4));
  5876  0B8E  30EF               	movlw	239
  5877  0B8F  00F2               	movwf	??_ADC_Read
  5878  0B90  0872               	movf	??_ADC_Read,w
  5879  0B91  059F               	andwf	31,f	;volatile
  5880                           
  5881                           ;adc_drive.c: 32:     (ADCON0 &= ~(1 << 5));
  5882  0B92  30DF               	movlw	223
  5883  0B93  00F2               	movwf	??_ADC_Read
  5884  0B94  0872               	movf	??_ADC_Read,w
  5885  0B95  059F               	andwf	31,f	;volatile
  5886                           
  5887                           ;adc_drive.c: 33:     ADCON0 |= (channel << 3);
  5888  0B96  0874               	movf	ADC_Read@channel,w	;volatile
  5889  0B97  00F2               	movwf	??_ADC_Read
  5890  0B98  3002               	movlw	2
  5891  0B99                     u199_25:	
  5892  0B99  1003               	clrc
  5893  0B9A  0DF2               	rlf	??_ADC_Read,f
  5894  0B9B  3EFF               	addlw	-1
  5895  0B9C  1D03               	skipz
  5896  0B9D  2B99               	goto	u199_25
  5897  0B9E  1003               	clrc
  5898  0B9F  0D72               	rlf	??_ADC_Read,w
  5899  0BA0  00F3               	movwf	??_ADC_Read+1
  5900  0BA1  0873               	movf	??_ADC_Read+1,w
  5901  0BA2  049F               	iorwf	31,f	;volatile
  5902  0BA3                     i1l2478:	
  5903                           
  5904                           ;adc_drive.c: 34:     (ADCON0 |= (1 << 2));
  5905  0BA3  151F               	bsf	31,2	;volatile
  5906  0BA4                     i1l102:	
  5907                           ;adc_drive.c: 35:     while (ADCON0 & (1 << 2)){}
  5908                           
  5909  0BA4  191F               	btfsc	31,2	;volatile
  5910  0BA5  2BA7               	goto	u200_21
  5911  0BA6  2BA8               	goto	u200_20
  5912  0BA7                     u200_21:	
  5913  0BA7  2BA4               	goto	i1l102
  5914  0BA8                     u200_20:	
  5915  0BA8                     i1l2480:	
  5916                           
  5917                           ;adc_drive.c: 36:     return ( ADRESL + (ADRESH* 256) ) ;
  5918  0BA8  081E               	movf	30,w	;volatile
  5919  0BA9  00F1               	movwf	?_ADC_Read+1
  5920  0BAA  1683               	bsf	3,5	;RP0=1, select bank1
  5921  0BAB  1303               	bcf	3,6	;RP1=0, select bank1
  5922  0BAC  081E               	movf	30,w	;volatile
  5923  0BAD  00F0               	movwf	?_ADC_Read
  5924  0BAE                     i1l105:	
  5925  0BAE  0008               	return
  5926  0BAF                     __end_of_ADC_Read:	
  5927                           
  5928                           	psect	text27
  5929  0A81                     __ptext27:	
  5930 ;; *************** function _temp_control_off *****************
  5931 ;; Defined at:
  5932 ;;		line 87 in file "temp_control.c"
  5933 ;; Parameters:    Size  Location     Type
  5934 ;;		None
  5935 ;; Auto vars:     Size  Location     Type
  5936 ;;		None
  5937 ;; Return value:  Size  Location     Type
  5938 ;;                  1    wreg      void 
  5939 ;; Registers used:
  5940 ;;		wreg, status,2, status,0
  5941 ;; Tracked objects:
  5942 ;;		On entry : 0/0
  5943 ;;		On exit  : 0/0
  5944 ;;		Unchanged: 0/0
  5945 ;; Data sizes:     COMMON   BANK0   BANK1   BANK3   BANK2
  5946 ;;      Params:         0       0       0       0       0
  5947 ;;      Locals:         0       0       0       0       0
  5948 ;;      Temps:          1       0       0       0       0
  5949 ;;      Totals:         1       0       0       0       0
  5950 ;;Total ram usage:        1 bytes
  5951 ;; Hardware stack levels used:    1
  5952 ;; This function calls:
  5953 ;;		Nothing
  5954 ;; This function is called by:
  5955 ;;		_isr
  5956 ;; This function uses a non-reentrant model
  5957 ;;
  5958                           
  5959                           
  5960                           ;psect for function _temp_control_off
  5961  0A81                     _temp_control_off:	
  5962  0A81                     i1l3036:	
  5963                           ;incstack = 0
  5964                           ; Regs used in _temp_control_off: [wreg+status,2+status,0]
  5965                           
  5966                           
  5967                           ;temp_control.c: 88:      (PORTC &= ~(1 << 5));
  5968  0A81  30DF               	movlw	223
  5969  0A82  00F0               	movwf	??_temp_control_off
  5970  0A83  0870               	movf	??_temp_control_off,w
  5971  0A84  1283               	bcf	3,5	;RP0=0, select bank0
  5972  0A85  1303               	bcf	3,6	;RP1=0, select bank0
  5973  0A86  0587               	andwf	7,f	;volatile
  5974                           
  5975                           ;temp_control.c: 89:      (PORTC &= ~(1 << 2));
  5976  0A87  30FB               	movlw	251
  5977  0A88  00F0               	movwf	??_temp_control_off
  5978  0A89  0870               	movf	??_temp_control_off,w
  5979  0A8A  0587               	andwf	7,f	;volatile
  5980                           
  5981                           ;temp_control.c: 90:      (PORTB &= ~(1 << 4));
  5982  0A8B  30EF               	movlw	239
  5983  0A8C  00F0               	movwf	??_temp_control_off
  5984  0A8D  0870               	movf	??_temp_control_off,w
  5985  0A8E  0586               	andwf	6,f	;volatile
  5986  0A8F                     i1l3038:	
  5987                           
  5988                           ;temp_control.c: 91:      led_timer = 0 ;
  5989  0A8F  01D6               	clrf	_led_timer
  5990  0A90  01D7               	clrf	_led_timer+1
  5991  0A91                     i1l319:	
  5992  0A91  0008               	return
  5993  0A92                     __end_of_temp_control_off:	
  5994                           
  5995                           	psect	text28
  5996  0AA6                     __ptext28:	
  5997 ;; *************** function _switch_scan *****************
  5998 ;; Defined at:
  5999 ;;		line 28 in file "switchs.c"
  6000 ;; Parameters:    Size  Location     Type
  6001 ;;		None
  6002 ;; Auto vars:     Size  Location     Type
  6003 ;;		None
  6004 ;; Return value:  Size  Location     Type
  6005 ;;                  1    wreg      void 
  6006 ;; Registers used:
  6007 ;;		wreg, status,2, status,0
  6008 ;; Tracked objects:
  6009 ;;		On entry : 0/0
  6010 ;;		On exit  : 0/0
  6011 ;;		Unchanged: 0/0
  6012 ;; Data sizes:     COMMON   BANK0   BANK1   BANK3   BANK2
  6013 ;;      Params:         0       0       0       0       0
  6014 ;;      Locals:         0       0       0       0       0
  6015 ;;      Temps:          1       0       0       0       0
  6016 ;;      Totals:         1       0       0       0       0
  6017 ;;Total ram usage:        1 bytes
  6018 ;; Hardware stack levels used:    1
  6019 ;; This function calls:
  6020 ;;		Nothing
  6021 ;; This function is called by:
  6022 ;;		_isr
  6023 ;; This function uses a non-reentrant model
  6024 ;;
  6025                           
  6026                           
  6027                           ;psect for function _switch_scan
  6028  0AA6                     _switch_scan:	
  6029  0AA6                     i1l2960:	
  6030                           ;incstack = 0
  6031                           ; Regs used in _switch_scan: [wreg+status,2+status,0]
  6032                           
  6033                           
  6034                           ;switchs.c: 29:     switch_delay += 1 ;
  6035  0AA6  3001               	movlw	1
  6036  0AA7  00F0               	movwf	??_switch_scan
  6037  0AA8  0870               	movf	??_switch_scan,w
  6038  0AA9  1283               	bcf	3,5	;RP0=0, select bank0
  6039  0AAA  1303               	bcf	3,6	;RP1=0, select bank0
  6040  0AAB  07E7               	addwf	_switch_delay,f
  6041                           
  6042                           ;switchs.c: 31:     if (switch_delay == 200){
  6043  0AAC  30C8               	movlw	200
  6044  0AAD  0667               	xorwf	_switch_delay,w
  6045  0AAE  1D03               	btfss	3,2
  6046  0AAF  2AB1               	goto	u300_21
  6047  0AB0  2AB2               	goto	u300_20
  6048  0AB1                     u300_21:	
  6049  0AB1  2ABE               	goto	i1l262
  6050  0AB2                     u300_20:	
  6051  0AB2                     i1l2962:	
  6052                           
  6053                           ;switchs.c: 32:        if ( !((PORTB & (1<<2)))){
  6054  0AB2  1906               	btfsc	6,2	;volatile
  6055  0AB3  2AB5               	goto	u301_21
  6056  0AB4  2AB6               	goto	u301_20
  6057  0AB5                     u301_21:	
  6058  0AB5  2AB8               	goto	i1l258
  6059  0AB6                     u301_20:	
  6060  0AB6                     i1l2964:	
  6061                           
  6062                           ;switchs.c: 33:           up_sw = PRESSED ;
  6063  0AB6  01EB               	clrf	_up_sw
  6064                           
  6065                           ;switchs.c: 34:        }
  6066  0AB7  2ABD               	goto	i1l2968
  6067  0AB8                     i1l258:	
  6068                           ;switchs.c: 35:        else if ( !((PORTB & (1<<1)))){
  6069                           
  6070  0AB8  1886               	btfsc	6,1	;volatile
  6071  0AB9  2ABB               	goto	u302_21
  6072  0ABA  2ABC               	goto	u302_20
  6073  0ABB                     u302_21:	
  6074  0ABB  2ABD               	goto	i1l2968
  6075  0ABC                     u302_20:	
  6076  0ABC                     i1l2966:	
  6077                           
  6078                           ;switchs.c: 36:           down_sw = PRESSED ;
  6079  0ABC  01EA               	clrf	_down_sw
  6080  0ABD                     i1l2968:	
  6081                           ;switchs.c: 37:        }
  6082                           
  6083                           
  6084                           ;switchs.c: 41:        switch_delay = 0 ;
  6085  0ABD  01E7               	clrf	_switch_delay
  6086  0ABE                     i1l262:	
  6087  0ABE  0008               	return
  6088  0ABF                     __end_of_switch_scan:	
  6089                           
  6090                           	psect	text29
  6091  0F26                     __ptext29:	
  6092 ;; *************** function _sw_action *****************
  6093 ;; Defined at:
  6094 ;;		line 50 in file "switchs.c"
  6095 ;; Parameters:    Size  Location     Type
  6096 ;;		None
  6097 ;; Auto vars:     Size  Location     Type
  6098 ;;		None
  6099 ;; Return value:  Size  Location     Type
  6100 ;;                  1    wreg      void 
  6101 ;; Registers used:
  6102 ;;		wreg, fsr0l, fsr0h, status,2, status,0, pclath, cstack
  6103 ;; Tracked objects:
  6104 ;;		On entry : 0/0
  6105 ;;		On exit  : 0/0
  6106 ;;		Unchanged: 0/0
  6107 ;; Data sizes:     COMMON   BANK0   BANK1   BANK3   BANK2
  6108 ;;      Params:         0       0       0       0       0
  6109 ;;      Locals:         0       0       0       0       0
  6110 ;;      Temps:          2       0       0       0       0
  6111 ;;      Totals:         2       0       0       0       0
  6112 ;;Total ram usage:        2 bytes
  6113 ;; Hardware stack levels used:    1
  6114 ;; Hardware stack levels required when called:    3
  6115 ;; This function calls:
  6116 ;;		_EEPROM_write
  6117 ;; This function is called by:
  6118 ;;		_isr
  6119 ;; This function uses a non-reentrant model
  6120 ;;
  6121                           
  6122                           
  6123                           ;psect for function _sw_action
  6124  0F26                     _sw_action:	
  6125  0F26                     i1l2970:	
  6126                           ;incstack = 0
  6127                           ; Regs used in _sw_action: [wreg-fsr0h+status,2+status,0+pclath+cstack]
  6128                           
  6129                           
  6130                           ;switchs.c: 51:     switch (mode){
  6131  0F26  2F7F               	goto	i1l3006
  6132  0F27                     i1l2972:	
  6133                           
  6134                           ;switchs.c: 54:             if ( (up_sw == PRESSED ) || (down_sw == PRESSED) ) {
  6135  0F27  086B               	movf	_up_sw,w
  6136  0F28  1903               	btfsc	3,2
  6137  0F29  2F2B               	goto	u303_21
  6138  0F2A  2F2C               	goto	u303_20
  6139  0F2B                     u303_21:	
  6140  0F2B  2F31               	goto	i1l269
  6141  0F2C                     u303_20:	
  6142  0F2C                     i1l2974:	
  6143  0F2C  086A               	movf	_down_sw,w
  6144  0F2D  1D03               	btfss	3,2
  6145  0F2E  2F30               	goto	u304_21
  6146  0F2F  2F31               	goto	u304_20
  6147  0F30                     u304_21:	
  6148  0F30  2F91               	goto	i1l280
  6149  0F31                     u304_20:	
  6150  0F31                     i1l269:	
  6151                           
  6152                           ;switchs.c: 55:                 mode = SETTING_MODE ;
  6153  0F31  01E4               	clrf	_mode
  6154  0F32  0AE4               	incf	_mode,f
  6155                           
  6156                           ;switchs.c: 56:                 up_sw = RELEASED ;
  6157  0F33  01EB               	clrf	_up_sw
  6158  0F34  0AEB               	incf	_up_sw,f
  6159                           
  6160                           ;switchs.c: 57:                 down_sw = RELEASED ;
  6161  0F35  01EA               	clrf	_down_sw
  6162  0F36  0AEA               	incf	_down_sw,f
  6163                           
  6164                           ;switchs.c: 58:             }
  6165  0F37  2F91               	goto	i1l280
  6166  0F38                     i1l2976:	
  6167                           
  6168                           ;switchs.c: 66:             if (switch_wait < 5000){
  6169  0F38  3013               	movlw	19
  6170  0F39  025B               	subwf	_switch_wait+1,w
  6171  0F3A  3088               	movlw	136
  6172  0F3B  1903               	skipnz
  6173  0F3C  025A               	subwf	_switch_wait,w
  6174  0F3D  1803               	skipnc
  6175  0F3E  2F40               	goto	u305_21
  6176  0F3F  2F41               	goto	u305_20
  6177  0F40                     u305_21:	
  6178  0F40  2F6E               	goto	i1l3000
  6179  0F41                     u305_20:	
  6180  0F41                     i1l2978:	
  6181                           
  6182                           ;switchs.c: 67:                 if ( (up_sw == PRESSED) && (set_temp < 75)){
  6183  0F41  086B               	movf	_up_sw,w
  6184  0F42  1D03               	btfss	3,2
  6185  0F43  2F45               	goto	u306_21
  6186  0F44  2F46               	goto	u306_20
  6187  0F45                     u306_21:	
  6188  0F45  2F55               	goto	i1l2988
  6189  0F46                     u306_20:	
  6190  0F46                     i1l2980:	
  6191  0F46  304B               	movlw	75
  6192  0F47  0266               	subwf	_set_temp,w
  6193  0F48  1803               	skipnc
  6194  0F49  2F4B               	goto	u307_21
  6195  0F4A  2F4C               	goto	u307_20
  6196  0F4B                     u307_21:	
  6197  0F4B  2F55               	goto	i1l2988
  6198  0F4C                     u307_20:	
  6199  0F4C                     i1l2982:	
  6200                           
  6201                           ;switchs.c: 68:                     set_temp += 5 ;
  6202  0F4C  3005               	movlw	5
  6203  0F4D  00F4               	movwf	??_sw_action
  6204  0F4E  0874               	movf	??_sw_action,w
  6205  0F4F  07E6               	addwf	_set_temp,f
  6206  0F50                     i1l2984:	
  6207                           
  6208                           ;switchs.c: 69:                     switch_wait = 0 ;
  6209  0F50  01DA               	clrf	_switch_wait
  6210  0F51  01DB               	clrf	_switch_wait+1
  6211  0F52                     i1l2986:	
  6212                           
  6213                           ;switchs.c: 70:                     up_sw = RELEASED ;
  6214  0F52  01EB               	clrf	_up_sw
  6215  0F53  0AEB               	incf	_up_sw,f
  6216                           
  6217                           ;switchs.c: 71:                 }
  6218  0F54  2F91               	goto	i1l280
  6219  0F55                     i1l2988:	
  6220  0F55  086A               	movf	_down_sw,w
  6221  0F56  1D03               	btfss	3,2
  6222  0F57  2F59               	goto	u308_21
  6223  0F58  2F5A               	goto	u308_20
  6224  0F59                     u308_21:	
  6225  0F59  2F67               	goto	i1l2998
  6226  0F5A                     u308_20:	
  6227  0F5A                     i1l2990:	
  6228  0F5A  3024               	movlw	36
  6229  0F5B  0266               	subwf	_set_temp,w
  6230  0F5C  1C03               	skipc
  6231  0F5D  2F5F               	goto	u309_21
  6232  0F5E  2F60               	goto	u309_20
  6233  0F5F                     u309_21:	
  6234  0F5F  2F67               	goto	i1l2998
  6235  0F60                     u309_20:	
  6236  0F60                     i1l2992:	
  6237                           
  6238                           ;switchs.c: 73:                     set_temp -= 5 ;
  6239  0F60  3005               	movlw	5
  6240  0F61  02E6               	subwf	_set_temp,f
  6241  0F62                     i1l2994:	
  6242                           
  6243                           ;switchs.c: 74:                     switch_wait = 0 ;
  6244  0F62  01DA               	clrf	_switch_wait
  6245  0F63  01DB               	clrf	_switch_wait+1
  6246  0F64                     i1l2996:	
  6247                           
  6248                           ;switchs.c: 75:                     down_sw = RELEASED ;
  6249  0F64  01EA               	clrf	_down_sw
  6250  0F65  0AEA               	incf	_down_sw,f
  6251                           
  6252                           ;switchs.c: 76:                 }
  6253  0F66  2F91               	goto	i1l280
  6254  0F67                     i1l2998:	
  6255                           
  6256                           ;switchs.c: 78:                     switch_wait += 1 ;
  6257  0F67  3001               	movlw	1
  6258  0F68  07DA               	addwf	_switch_wait,f
  6259  0F69  1803               	skipnc
  6260  0F6A  0ADB               	incf	_switch_wait+1,f
  6261  0F6B  3000               	movlw	0
  6262  0F6C  07DB               	addwf	_switch_wait+1,f
  6263  0F6D  2F91               	goto	i1l280
  6264  0F6E                     i1l3000:	
  6265                           
  6266                           ;switchs.c: 82:                 mode = NORMAL_MODE ;
  6267  0F6E  01E4               	clrf	_mode
  6268                           
  6269                           ;switchs.c: 83:                 switch_wait = 0 ;
  6270  0F6F  01DA               	clrf	_switch_wait
  6271  0F70  01DB               	clrf	_switch_wait+1
  6272  0F71                     i1l3002:	
  6273                           
  6274                           ;switchs.c: 84:                 EEPROM_write(0xff , set_temp);
  6275  0F71  30FF               	movlw	255
  6276  0F72  00F1               	movwf	EEPROM_write@address
  6277  0F73  3000               	movlw	0
  6278  0F74  00F2               	movwf	EEPROM_write@address+1
  6279  0F75  0866               	movf	_set_temp,w
  6280  0F76  00F4               	movwf	??_sw_action
  6281  0F77  0874               	movf	??_sw_action,w
  6282  0F78  00F3               	movwf	EEPROM_write@_x
  6283  0F79  120A  158A  22DB  120A  158A  	fcall	_EEPROM_write
  6284  0F7E  2F91               	goto	i1l280
  6285  0F7F                     i1l3006:	
  6286  0F7F  1283               	bcf	3,5	;RP0=0, select bank0
  6287  0F80  1303               	bcf	3,6	;RP1=0, select bank0
  6288  0F81  0864               	movf	_mode,w
  6289  0F82  00F4               	movwf	??_sw_action
  6290  0F83  01F5               	clrf	??_sw_action+1
  6291                           
  6292                           ; Switch on 2 bytes has been partitioned into a top level switch of size 1, and 1 sub-sw
      +                          itches
  6293                           ; Switch size 1, requested type "simple"
  6294                           ; Number of cases is 1, Range of values is 0 to 0
  6295                           ; switch strategies available:
  6296                           ; Name         Instructions Cycles
  6297                           ; simple_byte            4     3 (average)
  6298                           ; direct_byte           11     8 (fixed)
  6299                           ; jumptable            260     6 (fixed)
  6300                           ;	Chosen strategy is simple_byte
  6301  0F84  0875               	movf	??_sw_action+1,w
  6302  0F85  3A00               	xorlw	0	; case 0
  6303  0F86  1903               	skipnz
  6304  0F87  2F89               	goto	i1l3306
  6305  0F88  2F91               	goto	i1l280
  6306  0F89                     i1l3306:	
  6307                           
  6308                           ; Switch size 1, requested type "simple"
  6309                           ; Number of cases is 2, Range of values is 0 to 1
  6310                           ; switch strategies available:
  6311                           ; Name         Instructions Cycles
  6312                           ; simple_byte            7     4 (average)
  6313                           ; direct_byte           14     8 (fixed)
  6314                           ; jumptable            260     6 (fixed)
  6315                           ;	Chosen strategy is simple_byte
  6316  0F89  0874               	movf	??_sw_action,w
  6317  0F8A  3A00               	xorlw	0	; case 0
  6318  0F8B  1903               	skipnz
  6319  0F8C  2F27               	goto	i1l2972
  6320  0F8D  3A01               	xorlw	1	; case 1
  6321  0F8E  1903               	skipnz
  6322  0F8F  2F38               	goto	i1l2976
  6323  0F90  2F91               	goto	i1l280
  6324  0F91                     i1l280:	
  6325  0F91  0008               	return
  6326  0F92                     __end_of_sw_action:	
  6327                           
  6328                           	psect	text30
  6329  0ADB                     __ptext30:	
  6330 ;; *************** function _EEPROM_write *****************
  6331 ;; Defined at:
  6332 ;;		line 18 in file "eeprom.c"
  6333 ;; Parameters:    Size  Location     Type
  6334 ;;  address         2    1[COMMON] unsigned int 
  6335 ;;  _x              1    3[COMMON] unsigned char 
  6336 ;; Auto vars:     Size  Location     Type
  6337 ;;		None
  6338 ;; Return value:  Size  Location     Type
  6339 ;;                  1    wreg      void 
  6340 ;; Registers used:
  6341 ;;		wreg, status,2, status,0, pclath, cstack
  6342 ;; Tracked objects:
  6343 ;;		On entry : 0/0
  6344 ;;		On exit  : 0/0
  6345 ;;		Unchanged: 0/0
  6346 ;; Data sizes:     COMMON   BANK0   BANK1   BANK3   BANK2
  6347 ;;      Params:         3       0       0       0       0
  6348 ;;      Locals:         0       0       0       0       0
  6349 ;;      Temps:          0       0       0       0       0
  6350 ;;      Totals:         3       0       0       0       0
  6351 ;;Total ram usage:        3 bytes
  6352 ;; Hardware stack levels used:    1
  6353 ;; Hardware stack levels required when called:    2
  6354 ;; This function calls:
  6355 ;;		i1_I2C1_Start
  6356 ;;		i1_I2C1_Stop
  6357 ;;		i1_I2C1_Wr
  6358 ;; This function is called by:
  6359 ;;		_sw_action
  6360 ;; This function uses a non-reentrant model
  6361 ;;
  6362                           
  6363                           
  6364                           ;psect for function _EEPROM_write
  6365  0ADB                     _EEPROM_write:	
  6366  0ADB                     i1l2512:	
  6367                           ;incstack = 0
  6368                           ; Regs used in _EEPROM_write: [wreg+status,2+status,0+pclath+cstack]
  6369                           
  6370                           
  6371                           ;eeprom.c: 19:     I2C1_Start();
  6372  0ADB  120A  158A  21FF  120A  158A  	fcall	i1_I2C1_Start
  6373                           
  6374                           ;eeprom.c: 20:     I2C1_Wr(0XA2);
  6375  0AE0  30A2               	movlw	162
  6376  0AE1  120A  158A  2261  120A  158A  	fcall	i1_I2C1_Wr
  6377                           
  6378                           ;eeprom.c: 21:     I2C1_Wr(address);
  6379  0AE6  0871               	movf	EEPROM_write@address,w
  6380  0AE7  120A  158A  2261  120A  158A  	fcall	i1_I2C1_Wr
  6381                           
  6382                           ;eeprom.c: 22:     I2C1_Wr(_x);
  6383  0AEC  0873               	movf	EEPROM_write@_x,w
  6384  0AED  120A  158A  2261  120A  158A  	fcall	i1_I2C1_Wr
  6385                           
  6386                           ;eeprom.c: 23:     I2C1_Stop();
  6387  0AF2  120A  158A  2208  120A  158A  	fcall	i1_I2C1_Stop
  6388  0AF7                     i1l159:	
  6389  0AF7  0008               	return
  6390  0AF8                     __end_of_EEPROM_write:	
  6391                           
  6392                           	psect	text31
  6393  0A61                     __ptext31:	
  6394 ;; *************** function i1_I2C1_Wr *****************
  6395 ;; Defined at:
  6396 ;;		line 51 in file "I2C_drive.c"
  6397 ;; Parameters:    Size  Location     Type
  6398 ;;  _data           1    wreg     unsigned char 
  6399 ;; Auto vars:     Size  Location     Type
  6400 ;;  _data           1    0[COMMON] unsigned char 
  6401 ;; Return value:  Size  Location     Type
  6402 ;;                  1    wreg      void 
  6403 ;; Registers used:
  6404 ;;		wreg, status,2, status,0, pclath, cstack
  6405 ;; Tracked objects:
  6406 ;;		On entry : 0/0
  6407 ;;		On exit  : 0/0
  6408 ;;		Unchanged: 0/0
  6409 ;; Data sizes:     COMMON   BANK0   BANK1   BANK3   BANK2
  6410 ;;      Params:         0       0       0       0       0
  6411 ;;      Locals:         1       0       0       0       0
  6412 ;;      Temps:          0       0       0       0       0
  6413 ;;      Totals:         1       0       0       0       0
  6414 ;;Total ram usage:        1 bytes
  6415 ;; Hardware stack levels used:    1
  6416 ;; Hardware stack levels required when called:    1
  6417 ;; This function calls:
  6418 ;;		i1_I2C_Wait
  6419 ;; This function is called by:
  6420 ;;		_EEPROM_write
  6421 ;; This function uses a non-reentrant model
  6422 ;;
  6423                           
  6424                           
  6425                           ;psect for function i1_I2C1_Wr
  6426  0A61                     i1_I2C1_Wr:	
  6427                           
  6428                           ;incstack = 0
  6429                           ; Regs used in i1_I2C1_Wr: [wreg+status,2+status,0+pclath+cstack]
  6430                           ;i1I2C1_Wr@_data stored from wreg
  6431  0A61  00F0               	movwf	i1I2C1_Wr@_data
  6432  0A62                     i1l2422:	
  6433                           
  6434                           ;I2C_drive.c: 52:     I2C_Wait();
  6435  0A62  120A  158A  2239  120A  158A  	fcall	i1_I2C_Wait
  6436  0A67                     i1l2424:	
  6437                           
  6438                           ;I2C_drive.c: 53:     SSPBUF = _data ;
  6439  0A67  0870               	movf	i1I2C1_Wr@_data,w
  6440  0A68  1283               	bcf	3,5	;RP0=0, select bank0
  6441  0A69  1303               	bcf	3,6	;RP1=0, select bank0
  6442  0A6A  0093               	movwf	19	;volatile
  6443  0A6B                     i1l2426:	
  6444                           
  6445                           ;I2C_drive.c: 54:     I2C_Wait();
  6446  0A6B  120A  158A  2239  120A  158A  	fcall	i1_I2C_Wait
  6447  0A70                     i1l137:	
  6448  0A70  0008               	return
  6449  0A71                     __end_ofi1_I2C1_Wr:	
  6450                           
  6451                           	psect	text32
  6452  0A08                     __ptext32:	
  6453 ;; *************** function i1_I2C1_Stop *****************
  6454 ;; Defined at:
  6455 ;;		line 41 in file "I2C_drive.c"
  6456 ;; Parameters:    Size  Location     Type
  6457 ;;		None
  6458 ;; Auto vars:     Size  Location     Type
  6459 ;;		None
  6460 ;; Return value:  Size  Location     Type
  6461 ;;                  1    wreg      void 
  6462 ;; Registers used:
  6463 ;;		wreg, status,2, status,0, pclath, cstack
  6464 ;; Tracked objects:
  6465 ;;		On entry : 0/0
  6466 ;;		On exit  : 0/0
  6467 ;;		Unchanged: 0/0
  6468 ;; Data sizes:     COMMON   BANK0   BANK1   BANK3   BANK2
  6469 ;;      Params:         0       0       0       0       0
  6470 ;;      Locals:         0       0       0       0       0
  6471 ;;      Temps:          0       0       0       0       0
  6472 ;;      Totals:         0       0       0       0       0
  6473 ;;Total ram usage:        0 bytes
  6474 ;; Hardware stack levels used:    1
  6475 ;; Hardware stack levels required when called:    1
  6476 ;; This function calls:
  6477 ;;		i1_I2C_Wait
  6478 ;; This function is called by:
  6479 ;;		_EEPROM_write
  6480 ;; This function uses a non-reentrant model
  6481 ;;
  6482                           
  6483                           
  6484                           ;psect for function i1_I2C1_Stop
  6485  0A08                     i1_I2C1_Stop:	
  6486  0A08                     i1l2418:	
  6487                           ;incstack = 0
  6488                           ; Regs used in i1_I2C1_Stop: [wreg+status,2+status,0+pclath+cstack]
  6489                           
  6490                           
  6491                           ;I2C_drive.c: 42:     I2C_Wait();
  6492  0A08  120A  158A  2239  120A  158A  	fcall	i1_I2C_Wait
  6493  0A0D                     i1l2420:	
  6494                           
  6495                           ;I2C_drive.c: 43:     (SSPCON2 |= (1 << 2));
  6496  0A0D  1683               	bsf	3,5	;RP0=1, select bank1
  6497  0A0E  1303               	bcf	3,6	;RP1=0, select bank1
  6498  0A0F  1511               	bsf	17,2	;volatile
  6499  0A10                     i1l134:	
  6500  0A10  0008               	return
  6501  0A11                     __end_ofi1_I2C1_Stop:	
  6502                           
  6503                           	psect	text33
  6504  09FF                     __ptext33:	
  6505 ;; *************** function i1_I2C1_Start *****************
  6506 ;; Defined at:
  6507 ;;		line 31 in file "I2C_drive.c"
  6508 ;; Parameters:    Size  Location     Type
  6509 ;;		None
  6510 ;; Auto vars:     Size  Location     Type
  6511 ;;		None
  6512 ;; Return value:  Size  Location     Type
  6513 ;;                  1    wreg      void 
  6514 ;; Registers used:
  6515 ;;		wreg, status,2, status,0, pclath, cstack
  6516 ;; Tracked objects:
  6517 ;;		On entry : 0/0
  6518 ;;		On exit  : 0/0
  6519 ;;		Unchanged: 0/0
  6520 ;; Data sizes:     COMMON   BANK0   BANK1   BANK3   BANK2
  6521 ;;      Params:         0       0       0       0       0
  6522 ;;      Locals:         0       0       0       0       0
  6523 ;;      Temps:          0       0       0       0       0
  6524 ;;      Totals:         0       0       0       0       0
  6525 ;;Total ram usage:        0 bytes
  6526 ;; Hardware stack levels used:    1
  6527 ;; Hardware stack levels required when called:    1
  6528 ;; This function calls:
  6529 ;;		i1_I2C_Wait
  6530 ;; This function is called by:
  6531 ;;		_EEPROM_write
  6532 ;; This function uses a non-reentrant model
  6533 ;;
  6534                           
  6535                           
  6536                           ;psect for function i1_I2C1_Start
  6537  09FF                     i1_I2C1_Start:	
  6538  09FF                     i1l2414:	
  6539                           ;incstack = 0
  6540                           ; Regs used in i1_I2C1_Start: [wreg+status,2+status,0+pclath+cstack]
  6541                           
  6542                           
  6543                           ;I2C_drive.c: 32:     I2C_Wait();
  6544  09FF  120A  158A  2239  120A  158A  	fcall	i1_I2C_Wait
  6545  0A04                     i1l2416:	
  6546                           
  6547                           ;I2C_drive.c: 33:     (SSPCON2 |= (1 << 0));
  6548  0A04  1683               	bsf	3,5	;RP0=1, select bank1
  6549  0A05  1303               	bcf	3,6	;RP1=0, select bank1
  6550  0A06  1411               	bsf	17,0	;volatile
  6551  0A07                     i1l131:	
  6552  0A07  0008               	return
  6553  0A08                     __end_ofi1_I2C1_Start:	
  6554                           
  6555                           	psect	text34
  6556  0A39                     __ptext34:	
  6557 ;; *************** function i1_I2C_Wait *****************
  6558 ;; Defined at:
  6559 ;;		line 8 in file "I2C_drive.c"
  6560 ;; Parameters:    Size  Location     Type
  6561 ;;		None
  6562 ;; Auto vars:     Size  Location     Type
  6563 ;;		None
  6564 ;; Return value:  Size  Location     Type
  6565 ;;                  1    wreg      void 
  6566 ;; Registers used:
  6567 ;;		wreg, status,2
  6568 ;; Tracked objects:
  6569 ;;		On entry : 0/0
  6570 ;;		On exit  : 0/0
  6571 ;;		Unchanged: 0/0
  6572 ;; Data sizes:     COMMON   BANK0   BANK1   BANK3   BANK2
  6573 ;;      Params:         0       0       0       0       0
  6574 ;;      Locals:         0       0       0       0       0
  6575 ;;      Temps:          0       0       0       0       0
  6576 ;;      Totals:         0       0       0       0       0
  6577 ;;Total ram usage:        0 bytes
  6578 ;; Hardware stack levels used:    1
  6579 ;; This function calls:
  6580 ;;		Nothing
  6581 ;; This function is called by:
  6582 ;;		i1_I2C1_Start
  6583 ;;		i1_I2C1_Stop
  6584 ;;		i1_I2C1_Wr
  6585 ;; This function uses a non-reentrant model
  6586 ;;
  6587                           
  6588                           
  6589                           ;psect for function i1_I2C_Wait
  6590  0A39                     i1_I2C_Wait:	
  6591  0A39                     i1l2148:	
  6592                           ;incstack = 0
  6593                           ; Regs used in i1_I2C_Wait: [wreg+status,2]
  6594                           
  6595  0A39                     i1l122:	
  6596                           ;I2C_drive.c: 9:   while ((SSPSTAT & 0x04) || (SSPCON2 & 0x1F));
  6597                           
  6598  0A39  1683               	bsf	3,5	;RP0=1, select bank1
  6599  0A3A  1303               	bcf	3,6	;RP1=0, select bank1
  6600  0A3B  1914               	btfsc	20,2	;volatile
  6601  0A3C  2A3E               	goto	u158_21
  6602  0A3D  2A3F               	goto	u158_20
  6603  0A3E                     u158_21:	
  6604  0A3E  2A39               	goto	i1l122
  6605  0A3F                     u158_20:	
  6606  0A3F                     i1l2150:	
  6607  0A3F  0811               	movf	17,w	;volatile
  6608  0A40  391F               	andlw	31
  6609  0A41  1D03               	btfss	3,2
  6610  0A42  2A44               	goto	u159_21
  6611  0A43  2A45               	goto	u159_20
  6612  0A44                     u159_21:	
  6613  0A44  2A39               	goto	i1l122
  6614  0A45                     u159_20:	
  6615  0A45                     i1l125:	
  6616  0A45  0008               	return
  6617  0A46                     __end_ofi1_I2C_Wait:	
  6618                           
  6619                           	psect	text35
  6620  09E9                     __ptext35:	
  6621 ;; *************** function _stop_timer *****************
  6622 ;; Defined at:
  6623 ;;		line 25 in file "timer2.c"
  6624 ;; Parameters:    Size  Location     Type
  6625 ;;		None
  6626 ;; Auto vars:     Size  Location     Type
  6627 ;;		None
  6628 ;; Return value:  Size  Location     Type
  6629 ;;                  1    wreg      void 
  6630 ;; Registers used:
  6631 ;;		wreg, status,2, status,0
  6632 ;; Tracked objects:
  6633 ;;		On entry : 0/0
  6634 ;;		On exit  : 0/0
  6635 ;;		Unchanged: 0/0
  6636 ;; Data sizes:     COMMON   BANK0   BANK1   BANK3   BANK2
  6637 ;;      Params:         0       0       0       0       0
  6638 ;;      Locals:         0       0       0       0       0
  6639 ;;      Temps:          1       0       0       0       0
  6640 ;;      Totals:         1       0       0       0       0
  6641 ;;Total ram usage:        1 bytes
  6642 ;; Hardware stack levels used:    1
  6643 ;; This function calls:
  6644 ;;		Nothing
  6645 ;; This function is called by:
  6646 ;;		_isr
  6647 ;; This function uses a non-reentrant model
  6648 ;;
  6649                           
  6650                           
  6651                           ;psect for function _stop_timer
  6652  09E9                     _stop_timer:	
  6653  09E9                     i1l3034:	
  6654                           ;incstack = 0
  6655                           ; Regs used in _stop_timer: [wreg+status,2+status,0]
  6656                           
  6657                           
  6658                           ;timer2.c: 26:     (T2CON &= ~(1 << 2)) ;
  6659  09E9  30FB               	movlw	251
  6660  09EA  00F0               	movwf	??_stop_timer
  6661  09EB  0870               	movf	??_stop_timer,w
  6662  09EC  1283               	bcf	3,5	;RP0=0, select bank0
  6663  09ED  1303               	bcf	3,6	;RP1=0, select bank0
  6664  09EE  0592               	andwf	18,f	;volatile
  6665  09EF                     i1l363:	
  6666  09EF  0008               	return
  6667  09F0                     __end_of_stop_timer:	
  6668                           
  6669                           	psect	text36
  6670  09E3                     __ptext36:	
  6671 ;; *************** function _start_timer *****************
  6672 ;; Defined at:
  6673 ;;		line 34 in file "timer2.c"
  6674 ;; Parameters:    Size  Location     Type
  6675 ;;		None
  6676 ;; Auto vars:     Size  Location     Type
  6677 ;;		None
  6678 ;; Return value:  Size  Location     Type
  6679 ;;                  1    wreg      void 
  6680 ;; Registers used:
  6681 ;;		wreg
  6682 ;; Tracked objects:
  6683 ;;		On entry : 0/0
  6684 ;;		On exit  : 0/0
  6685 ;;		Unchanged: 0/0
  6686 ;; Data sizes:     COMMON   BANK0   BANK1   BANK3   BANK2
  6687 ;;      Params:         0       0       0       0       0
  6688 ;;      Locals:         0       0       0       0       0
  6689 ;;      Temps:          0       0       0       0       0
  6690 ;;      Totals:         0       0       0       0       0
  6691 ;;Total ram usage:        0 bytes
  6692 ;; Hardware stack levels used:    1
  6693 ;; This function calls:
  6694 ;;		Nothing
  6695 ;; This function is called by:
  6696 ;;		_isr
  6697 ;; This function uses a non-reentrant model
  6698 ;;
  6699                           
  6700                           
  6701                           ;psect for function _start_timer
  6702  09E3                     _start_timer:	
  6703  09E3                     i1l3040:	
  6704                           ;incstack = 0
  6705                           ; Regs used in _start_timer: [wreg]
  6706                           
  6707                           
  6708                           ;timer2.c: 35:     (T2CON |= (1 << 2)) ;
  6709  09E3  1283               	bcf	3,5	;RP0=0, select bank0
  6710  09E4  1303               	bcf	3,6	;RP1=0, select bank0
  6711  09E5  1512               	bsf	18,2	;volatile
  6712  09E6                     i1l3042:	
  6713                           
  6714                           ;timer2.c: 36:     TMR2 = 131 ;
  6715  09E6  3083               	movlw	131
  6716  09E7  0091               	movwf	17	;volatile
  6717  09E8                     i1l366:	
  6718  09E8  0008               	return
  6719  09E9                     __end_of_start_timer:	
  6720                           
  6721                           	psect	text37
  6722  0C78                     __ptext37:	
  6723 ;; *************** function _ssd_blink *****************
  6724 ;; Defined at:
  6725 ;;		line 140 in file "SSD.c"
  6726 ;; Parameters:    Size  Location     Type
  6727 ;;  e_temp          1    wreg     unsigned char 
  6728 ;; Auto vars:     Size  Location     Type
  6729 ;;  e_temp          1   13[COMMON] unsigned char 
  6730 ;; Return value:  Size  Location     Type
  6731 ;;                  1    wreg      void 
  6732 ;; Registers used:
  6733 ;;		wreg, fsr0l, fsr0h, status,2, status,0, pclath, cstack
  6734 ;; Tracked objects:
  6735 ;;		On entry : 0/0
  6736 ;;		On exit  : 0/0
  6737 ;;		Unchanged: 0/0
  6738 ;; Data sizes:     COMMON   BANK0   BANK1   BANK3   BANK2
  6739 ;;      Params:         0       0       0       0       0
  6740 ;;      Locals:         1       0       0       0       0
  6741 ;;      Temps:          0       2       0       0       0
  6742 ;;      Totals:         1       2       0       0       0
  6743 ;;Total ram usage:        3 bytes
  6744 ;; Hardware stack levels used:    1
  6745 ;; Hardware stack levels required when called:    2
  6746 ;; This function calls:
  6747 ;;		_ssd_turn_off
  6748 ;;		_ssd_update
  6749 ;; This function is called by:
  6750 ;;		_isr
  6751 ;; This function uses a non-reentrant model
  6752 ;;
  6753                           
  6754                           
  6755                           ;psect for function _ssd_blink
  6756  0C78                     _ssd_blink:	
  6757                           
  6758                           ;incstack = 0
  6759                           ; Regs used in _ssd_blink: [wreg-fsr0h+status,2+status,0+pclath+cstack]
  6760                           ;ssd_blink@e_temp stored from wreg
  6761  0C78  00FD               	movwf	ssd_blink@e_temp
  6762  0C79                     i1l3012:	
  6763                           
  6764                           ;SSD.c: 141:      ssd_timer += 1;
  6765  0C79  3001               	movlw	1
  6766  0C7A  1283               	bcf	3,5	;RP0=0, select bank0
  6767  0C7B  1303               	bcf	3,6	;RP1=0, select bank0
  6768  0C7C  07D8               	addwf	_ssd_timer,f
  6769  0C7D  1803               	skipnc
  6770  0C7E  0AD9               	incf	_ssd_timer+1,f
  6771  0C7F  3000               	movlw	0
  6772  0C80  07D9               	addwf	_ssd_timer+1,f
  6773                           
  6774                           ;SSD.c: 143:      switch (blink){
  6775  0C81  2CA9               	goto	i1l3028
  6776  0C82                     i1l3014:	
  6777                           
  6778                           ;SSD.c: 146:             if (ssd_timer < 1000){
  6779  0C82  3003               	movlw	3
  6780  0C83  0259               	subwf	_ssd_timer+1,w
  6781  0C84  30E8               	movlw	232
  6782  0C85  1903               	skipnz
  6783  0C86  0258               	subwf	_ssd_timer,w
  6784  0C87  1803               	skipnc
  6785  0C88  2C8A               	goto	u310_21
  6786  0C89  2C8B               	goto	u310_20
  6787  0C8A                     u310_21:	
  6788  0C8A  2C92               	goto	i1l224
  6789  0C8B                     u310_20:	
  6790  0C8B                     i1l3016:	
  6791                           
  6792                           ;SSD.c: 147:                 ssd_update(e_temp);
  6793  0C8B  087D               	movf	ssd_blink@e_temp,w
  6794  0C8C  120A  158A  2792  120A  158A  	fcall	_ssd_update
  6795                           
  6796                           ;SSD.c: 148:                 }
  6797  0C91  2CB9               	goto	i1l231
  6798  0C92                     i1l224:	
  6799                           ;SSD.c: 149:             else{
  6800                           
  6801                           
  6802                           ;SSD.c: 150:                 blink = SSD_OFF ;
  6803  0C92  01DF               	clrf	_blink
  6804  0C93  0ADF               	incf	_blink,f
  6805  0C94                     i1l3018:	
  6806                           
  6807                           ;SSD.c: 151:                 ssd_timer = 0 ;
  6808  0C94  01D8               	clrf	_ssd_timer
  6809  0C95  01D9               	clrf	_ssd_timer+1
  6810  0C96                     i1l3020:	
  6811                           
  6812                           ;SSD.c: 152:                 ssd_turn_off();
  6813  0C96  120A  158A  222C  120A  158A  	fcall	_ssd_turn_off
  6814  0C9B  2CB9               	goto	i1l231
  6815  0C9C                     i1l3022:	
  6816                           
  6817                           ;SSD.c: 157:             if (ssd_timer == 1000){
  6818  0C9C  30E8               	movlw	232
  6819  0C9D  0658               	xorwf	_ssd_timer,w
  6820  0C9E  3003               	movlw	3
  6821  0C9F  1903               	skipnz
  6822  0CA0  0659               	xorwf	_ssd_timer+1,w
  6823  0CA1  1D03               	btfss	3,2
  6824  0CA2  2CA4               	goto	u311_21
  6825  0CA3  2CA5               	goto	u311_20
  6826  0CA4                     u311_21:	
  6827  0CA4  2CB9               	goto	i1l231
  6828  0CA5                     u311_20:	
  6829  0CA5                     i1l3024:	
  6830                           
  6831                           ;SSD.c: 158:                 blink = SSD_ON ;
  6832  0CA5  01DF               	clrf	_blink
  6833                           
  6834                           ;SSD.c: 159:                 ssd_timer = 0 ;
  6835  0CA6  01D8               	clrf	_ssd_timer
  6836  0CA7  01D9               	clrf	_ssd_timer+1
  6837                           
  6838                           ;SSD.c: 160:             }
  6839  0CA8  2CB9               	goto	i1l231
  6840  0CA9                     i1l3028:	
  6841  0CA9  085F               	movf	_blink,w
  6842  0CAA  00A0               	movwf	??_ssd_blink
  6843  0CAB  01A1               	clrf	??_ssd_blink+1
  6844                           
  6845                           ; Switch on 2 bytes has been partitioned into a top level switch of size 1, and 1 sub-sw
      +                          itches
  6846                           ; Switch size 1, requested type "simple"
  6847                           ; Number of cases is 1, Range of values is 0 to 0
  6848                           ; switch strategies available:
  6849                           ; Name         Instructions Cycles
  6850                           ; simple_byte            4     3 (average)
  6851                           ; direct_byte           11     8 (fixed)
  6852                           ; jumptable            260     6 (fixed)
  6853                           ;	Chosen strategy is simple_byte
  6854  0CAC  0821               	movf	??_ssd_blink+1,w
  6855  0CAD  3A00               	xorlw	0	; case 0
  6856  0CAE  1903               	skipnz
  6857  0CAF  2CB1               	goto	i1l3308
  6858  0CB0  2CB9               	goto	i1l231
  6859  0CB1                     i1l3308:	
  6860                           
  6861                           ; Switch size 1, requested type "simple"
  6862                           ; Number of cases is 2, Range of values is 0 to 1
  6863                           ; switch strategies available:
  6864                           ; Name         Instructions Cycles
  6865                           ; simple_byte            7     4 (average)
  6866                           ; direct_byte           14     8 (fixed)
  6867                           ; jumptable            260     6 (fixed)
  6868                           ;	Chosen strategy is simple_byte
  6869  0CB1  0820               	movf	??_ssd_blink,w
  6870  0CB2  3A00               	xorlw	0	; case 0
  6871  0CB3  1903               	skipnz
  6872  0CB4  2C82               	goto	i1l3014
  6873  0CB5  3A01               	xorlw	1	; case 1
  6874  0CB6  1903               	skipnz
  6875  0CB7  2C9C               	goto	i1l3022
  6876  0CB8  2CB9               	goto	i1l231
  6877  0CB9                     i1l231:	
  6878  0CB9  0008               	return
  6879  0CBA                     __end_of_ssd_blink:	
  6880                           
  6881                           	psect	text38
  6882  0F92                     __ptext38:	
  6883 ;; *************** function _ssd_update *****************
  6884 ;; Defined at:
  6885 ;;		line 95 in file "SSD.c"
  6886 ;; Parameters:    Size  Location     Type
  6887 ;;  temp            1    wreg     unsigned char 
  6888 ;; Auto vars:     Size  Location     Type
  6889 ;;  temp            1   12[COMMON] unsigned char 
  6890 ;; Return value:  Size  Location     Type
  6891 ;;                  1    wreg      void 
  6892 ;; Registers used:
  6893 ;;		wreg, fsr0l, fsr0h, status,2, status,0, pclath, cstack
  6894 ;; Tracked objects:
  6895 ;;		On entry : 0/0
  6896 ;;		On exit  : 0/0
  6897 ;;		Unchanged: 0/0
  6898 ;; Data sizes:     COMMON   BANK0   BANK1   BANK3   BANK2
  6899 ;;      Params:         0       0       0       0       0
  6900 ;;      Locals:         1       0       0       0       0
  6901 ;;      Temps:          3       0       0       0       0
  6902 ;;      Totals:         4       0       0       0       0
  6903 ;;Total ram usage:        4 bytes
  6904 ;; Hardware stack levels used:    1
  6905 ;; Hardware stack levels required when called:    1
  6906 ;; This function calls:
  6907 ;;		___awdiv
  6908 ;;		___awmod
  6909 ;;		_display7s
  6910 ;; This function is called by:
  6911 ;;		_isr
  6912 ;;		_ssd_blink
  6913 ;; This function uses a non-reentrant model
  6914 ;;
  6915                           
  6916                           
  6917                           ;psect for function _ssd_update
  6918  0F92                     _ssd_update:	
  6919                           
  6920                           ;incstack = 0
  6921                           ; Regs used in _ssd_update: [wreg-fsr0h+status,2+status,0+pclath+cstack]
  6922                           ;ssd_update@temp stored from wreg
  6923  0F92  00FC               	movwf	ssd_update@temp
  6924  0F93                     i1l2428:	
  6925                           
  6926                           ;SSD.c: 96:     ssd_delay += 1;
  6927  0F93  3001               	movlw	1
  6928  0F94  00F9               	movwf	??_ssd_update
  6929  0F95  0879               	movf	??_ssd_update,w
  6930  0F96  1283               	bcf	3,5	;RP0=0, select bank0
  6931  0F97  1303               	bcf	3,6	;RP1=0, select bank0
  6932  0F98  07E8               	addwf	_ssd_delay,f
  6933                           
  6934                           ;SSD.c: 98:     if (ssd_delay == 50){
  6935  0F99  3032               	movlw	50
  6936  0F9A  0668               	xorwf	_ssd_delay,w
  6937  0F9B  1D03               	btfss	3,2
  6938  0F9C  2F9E               	goto	u198_21
  6939  0F9D  2F9F               	goto	u198_20
  6940  0F9E                     u198_21:	
  6941  0F9E  2FFF               	goto	i1l216
  6942  0F9F                     u198_20:	
  6943  0F9F  2FEF               	goto	i1l2458
  6944  0FA0                     i1l2432:	
  6945                           
  6946                           ;SSD.c: 102:                 tens = temp / 10 ;
  6947  0FA0  300A               	movlw	10
  6948  0FA1  00F0               	movwf	___awdiv@divisor
  6949  0FA2  3000               	movlw	0
  6950  0FA3  00F1               	movwf	___awdiv@divisor+1
  6951  0FA4  087C               	movf	ssd_update@temp,w
  6952  0FA5  00F9               	movwf	??_ssd_update
  6953  0FA6  01FA               	clrf	??_ssd_update+1
  6954  0FA7  0879               	movf	??_ssd_update,w
  6955  0FA8  00F2               	movwf	___awdiv@dividend
  6956  0FA9  087A               	movf	??_ssd_update+1,w
  6957  0FAA  00F3               	movwf	___awdiv@dividend+1
  6958  0FAB  120A  158A  2657  120A  158A  	fcall	___awdiv
  6959  0FB0  0870               	movf	?___awdiv,w
  6960  0FB1  00FB               	movwf	??_ssd_update+2
  6961  0FB2  087B               	movf	??_ssd_update+2,w
  6962  0FB3  1283               	bcf	3,5	;RP0=0, select bank0
  6963  0FB4  1303               	bcf	3,6	;RP1=0, select bank0
  6964  0FB5  00E2               	movwf	_tens
  6965  0FB6                     i1l2434:	
  6966                           
  6967                           ;SSD.c: 103:                 (PORTA |= (1 << 4));
  6968  0FB6  1605               	bsf	5,4	;volatile
  6969  0FB7                     i1l2436:	
  6970                           
  6971                           ;SSD.c: 104:                 (PORTA &= ~(1 << 5));
  6972  0FB7  30DF               	movlw	223
  6973  0FB8  00F9               	movwf	??_ssd_update
  6974  0FB9  0879               	movf	??_ssd_update,w
  6975  0FBA  0585               	andwf	5,f	;volatile
  6976  0FBB                     i1l2438:	
  6977                           
  6978                           ;SSD.c: 105:                 PORTD = display7s(tens);
  6979  0FBB  0862               	movf	_tens,w
  6980  0FBC  120A  158A  25F8  120A  158A  	fcall	_display7s
  6981  0FC1  1283               	bcf	3,5	;RP0=0, select bank0
  6982  0FC2  1303               	bcf	3,6	;RP1=0, select bank0
  6983  0FC3  0088               	movwf	8	;volatile
  6984  0FC4                     i1l2440:	
  6985                           
  6986                           ;SSD.c: 106:                 ssd_delay = 0 ;
  6987  0FC4  01E8               	clrf	_ssd_delay
  6988  0FC5                     i1l2442:	
  6989                           
  6990                           ;SSD.c: 107:                 ssd_select = SSD_RIGHT ;
  6991  0FC5  01E0               	clrf	_ssd_select
  6992  0FC6  0AE0               	incf	_ssd_select,f
  6993                           
  6994                           ;SSD.c: 108:                 break ;
  6995  0FC7  2FFF               	goto	i1l216
  6996  0FC8                     i1l2444:	
  6997                           
  6998                           ;SSD.c: 110:                  ones = temp % 10 ;
  6999  0FC8  300A               	movlw	10
  7000  0FC9  00F0               	movwf	___awmod@divisor
  7001  0FCA  3000               	movlw	0
  7002  0FCB  00F1               	movwf	___awmod@divisor+1
  7003  0FCC  087C               	movf	ssd_update@temp,w
  7004  0FCD  00F9               	movwf	??_ssd_update
  7005  0FCE  01FA               	clrf	??_ssd_update+1
  7006  0FCF  0879               	movf	??_ssd_update,w
  7007  0FD0  00F2               	movwf	___awmod@dividend
  7008  0FD1  087A               	movf	??_ssd_update+1,w
  7009  0FD2  00F3               	movwf	___awmod@dividend+1
  7010  0FD3  120A  158A  259F  120A  158A  	fcall	___awmod
  7011  0FD8  0870               	movf	?___awmod,w
  7012  0FD9  00FB               	movwf	??_ssd_update+2
  7013  0FDA  087B               	movf	??_ssd_update+2,w
  7014  0FDB  1283               	bcf	3,5	;RP0=0, select bank0
  7015  0FDC  1303               	bcf	3,6	;RP1=0, select bank0
  7016  0FDD  00E1               	movwf	_ones
  7017  0FDE                     i1l2446:	
  7018                           
  7019                           ;SSD.c: 111:                  (PORTA |= (1 << 5));
  7020  0FDE  1685               	bsf	5,5	;volatile
  7021  0FDF                     i1l2448:	
  7022                           
  7023                           ;SSD.c: 112:                  (PORTA &= ~(1 << 4));
  7024  0FDF  30EF               	movlw	239
  7025  0FE0  00F9               	movwf	??_ssd_update
  7026  0FE1  0879               	movf	??_ssd_update,w
  7027  0FE2  0585               	andwf	5,f	;volatile
  7028  0FE3                     i1l2450:	
  7029                           
  7030                           ;SSD.c: 113:                  PORTD = display7s(ones);
  7031  0FE3  0861               	movf	_ones,w
  7032  0FE4  120A  158A  25F8  120A  158A  	fcall	_display7s
  7033  0FE9  1283               	bcf	3,5	;RP0=0, select bank0
  7034  0FEA  1303               	bcf	3,6	;RP1=0, select bank0
  7035  0FEB  0088               	movwf	8	;volatile
  7036  0FEC                     i1l2452:	
  7037                           
  7038                           ;SSD.c: 114:                  ssd_delay = 0 ;
  7039  0FEC  01E8               	clrf	_ssd_delay
  7040  0FED                     i1l2454:	
  7041                           
  7042                           ;SSD.c: 115:                  ssd_select = SSD_LEFT ;
  7043  0FED  01E0               	clrf	_ssd_select
  7044                           
  7045                           ;SSD.c: 116:                  break;
  7046  0FEE  2FFF               	goto	i1l216
  7047  0FEF                     i1l2458:	
  7048  0FEF  0860               	movf	_ssd_select,w
  7049  0FF0  00F9               	movwf	??_ssd_update
  7050  0FF1  01FA               	clrf	??_ssd_update+1
  7051                           
  7052                           ; Switch on 2 bytes has been partitioned into a top level switch of size 1, and 1 sub-sw
      +                          itches
  7053                           ; Switch size 1, requested type "simple"
  7054                           ; Number of cases is 1, Range of values is 0 to 0
  7055                           ; switch strategies available:
  7056                           ; Name         Instructions Cycles
  7057                           ; simple_byte            4     3 (average)
  7058                           ; direct_byte           11     8 (fixed)
  7059                           ; jumptable            260     6 (fixed)
  7060                           ;	Chosen strategy is simple_byte
  7061  0FF2  087A               	movf	??_ssd_update+1,w
  7062  0FF3  3A00               	xorlw	0	; case 0
  7063  0FF4  1903               	skipnz
  7064  0FF5  2FF7               	goto	i1l3310
  7065  0FF6  2FFF               	goto	i1l216
  7066  0FF7                     i1l3310:	
  7067                           
  7068                           ; Switch size 1, requested type "simple"
  7069                           ; Number of cases is 2, Range of values is 0 to 1
  7070                           ; switch strategies available:
  7071                           ; Name         Instructions Cycles
  7072                           ; simple_byte            7     4 (average)
  7073                           ; direct_byte           14     8 (fixed)
  7074                           ; jumptable            260     6 (fixed)
  7075                           ;	Chosen strategy is simple_byte
  7076  0FF7  0879               	movf	??_ssd_update,w
  7077  0FF8  3A00               	xorlw	0	; case 0
  7078  0FF9  1903               	skipnz
  7079  0FFA  2FA0               	goto	i1l2432
  7080  0FFB  3A01               	xorlw	1	; case 1
  7081  0FFC  1903               	skipnz
  7082  0FFD  2FC8               	goto	i1l2444
  7083  0FFE  2FFF               	goto	i1l216
  7084  0FFF                     i1l216:	
  7085  0FFF  0008               	return
  7086  1000                     __end_of_ssd_update:	
  7087                           
  7088                           	psect	text39
  7089  0DF8                     __ptext39:	
  7090 ;; *************** function _display7s *****************
  7091 ;; Defined at:
  7092 ;;		line 31 in file "SSD.c"
  7093 ;; Parameters:    Size  Location     Type
  7094 ;;  v               1    wreg     unsigned char 
  7095 ;; Auto vars:     Size  Location     Type
  7096 ;;  v               1    2[COMMON] unsigned char 
  7097 ;; Return value:  Size  Location     Type
  7098 ;;                  1    wreg      unsigned char 
  7099 ;; Registers used:
  7100 ;;		wreg, fsr0l, fsr0h, status,2, status,0
  7101 ;; Tracked objects:
  7102 ;;		On entry : 0/0
  7103 ;;		On exit  : 0/0
  7104 ;;		Unchanged: 0/0
  7105 ;; Data sizes:     COMMON   BANK0   BANK1   BANK3   BANK2
  7106 ;;      Params:         0       0       0       0       0
  7107 ;;      Locals:         1       0       0       0       0
  7108 ;;      Temps:          2       0       0       0       0
  7109 ;;      Totals:         3       0       0       0       0
  7110 ;;Total ram usage:        3 bytes
  7111 ;; Hardware stack levels used:    1
  7112 ;; This function calls:
  7113 ;;		Nothing
  7114 ;; This function is called by:
  7115 ;;		_ssd_update
  7116 ;; This function uses a non-reentrant model
  7117 ;;
  7118                           
  7119                           
  7120                           ;psect for function _display7s
  7121  0DF8                     _display7s:	
  7122                           
  7123                           ;incstack = 0
  7124                           ; Regs used in _display7s: [wreg-fsr0h+status,2+status,0]
  7125                           ;display7s@v stored from wreg
  7126  0DF8  00F2               	movwf	display7s@v
  7127  0DF9                     i1l2156:	
  7128                           
  7129                           ;SSD.c: 31: uint8_t display7s(uint8_t v);SSD.c: 32: {;SSD.c: 33:   switch(v)
  7130  0DF9  2E1C               	goto	i1l2262
  7131  0DFA                     i1l2158:	
  7132                           
  7133                           ;SSD.c: 36:       return 0x3F;
  7134  0DFA  303F               	movlw	63
  7135  0DFB  2E56               	goto	i1l190
  7136  0DFC                     i1l2164:	
  7137                           
  7138                           ;SSD.c: 39:       return 0x06;
  7139  0DFC  3006               	movlw	6
  7140  0DFD  2E56               	goto	i1l190
  7141  0DFE                     i1l2170:	
  7142                           
  7143                           ;SSD.c: 42:       return 0x5B;
  7144  0DFE  305B               	movlw	91
  7145  0DFF  2E56               	goto	i1l190
  7146  0E00                     i1l2176:	
  7147                           
  7148                           ;SSD.c: 45:       return 0x4F;
  7149  0E00  304F               	movlw	79
  7150  0E01  2E56               	goto	i1l190
  7151  0E02                     i1l2182:	
  7152                           
  7153                           ;SSD.c: 48:       return 0x66;
  7154  0E02  3066               	movlw	102
  7155  0E03  2E56               	goto	i1l190
  7156  0E04                     i1l2188:	
  7157                           
  7158                           ;SSD.c: 51:       return 0x6D;
  7159  0E04  306D               	movlw	109
  7160  0E05  2E56               	goto	i1l190
  7161  0E06                     i1l2194:	
  7162                           
  7163                           ;SSD.c: 54:       return 0x7D;
  7164  0E06  307D               	movlw	125
  7165  0E07  2E56               	goto	i1l190
  7166  0E08                     i1l2200:	
  7167                           
  7168                           ;SSD.c: 57:       return 0x07;
  7169  0E08  3007               	movlw	7
  7170  0E09  2E56               	goto	i1l190
  7171  0E0A                     i1l2206:	
  7172                           
  7173                           ;SSD.c: 60:       return 0x7F;
  7174  0E0A  307F               	movlw	127
  7175  0E0B  2E56               	goto	i1l190
  7176  0E0C                     i1l2212:	
  7177                           
  7178                           ;SSD.c: 63:       return 0x6F;
  7179  0E0C  306F               	movlw	111
  7180  0E0D  2E56               	goto	i1l190
  7181  0E0E                     i1l2218:	
  7182                           
  7183                           ;SSD.c: 66:       return 0x77;
  7184  0E0E  3077               	movlw	119
  7185  0E0F  2E56               	goto	i1l190
  7186  0E10                     i1l2224:	
  7187                           
  7188                           ;SSD.c: 69:       return 0x7c;
  7189  0E10  307C               	movlw	124
  7190  0E11  2E56               	goto	i1l190
  7191  0E12                     i1l2230:	
  7192                           
  7193                           ;SSD.c: 72:       return 0x58;
  7194  0E12  3058               	movlw	88
  7195  0E13  2E56               	goto	i1l190
  7196  0E14                     i1l2236:	
  7197                           
  7198                           ;SSD.c: 75:       return 0x5E;
  7199  0E14  305E               	movlw	94
  7200  0E15  2E56               	goto	i1l190
  7201  0E16                     i1l2242:	
  7202                           
  7203                           ;SSD.c: 78:       return 0x79;
  7204  0E16  3079               	movlw	121
  7205  0E17  2E56               	goto	i1l190
  7206  0E18                     i1l2248:	
  7207                           
  7208                           ;SSD.c: 81:       return 0x71;
  7209  0E18  3071               	movlw	113
  7210  0E19  2E56               	goto	i1l190
  7211  0E1A                     i1l2254:	
  7212                           
  7213                           ;SSD.c: 84:       return 0;
  7214  0E1A  3000               	movlw	0
  7215  0E1B  2E56               	goto	i1l190
  7216  0E1C                     i1l2262:	
  7217  0E1C  0872               	movf	display7s@v,w
  7218  0E1D  00F0               	movwf	??_display7s
  7219  0E1E  01F1               	clrf	??_display7s+1
  7220                           
  7221                           ; Switch on 2 bytes has been partitioned into a top level switch of size 1, and 1 sub-sw
      +                          itches
  7222                           ; Switch size 1, requested type "simple"
  7223                           ; Number of cases is 1, Range of values is 0 to 0
  7224                           ; switch strategies available:
  7225                           ; Name         Instructions Cycles
  7226                           ; simple_byte            4     3 (average)
  7227                           ; direct_byte           11     8 (fixed)
  7228                           ; jumptable            260     6 (fixed)
  7229                           ;	Chosen strategy is simple_byte
  7230  0E1F  0871               	movf	??_display7s+1,w
  7231  0E20  3A00               	xorlw	0	; case 0
  7232  0E21  1903               	skipnz
  7233  0E22  2E24               	goto	i1l3312
  7234  0E23  2E1A               	goto	i1l2254
  7235  0E24                     i1l3312:	
  7236                           
  7237                           ; Switch size 1, requested type "simple"
  7238                           ; Number of cases is 16, Range of values is 0 to 15
  7239                           ; switch strategies available:
  7240                           ; Name         Instructions Cycles
  7241                           ; simple_byte           49    25 (average)
  7242                           ; direct_byte           56     8 (fixed)
  7243                           ; jumptable            260     6 (fixed)
  7244                           ;	Chosen strategy is simple_byte
  7245  0E24  0870               	movf	??_display7s,w
  7246  0E25  3A00               	xorlw	0	; case 0
  7247  0E26  1903               	skipnz
  7248  0E27  2DFA               	goto	i1l2158
  7249  0E28  3A01               	xorlw	1	; case 1
  7250  0E29  1903               	skipnz
  7251  0E2A  2DFC               	goto	i1l2164
  7252  0E2B  3A03               	xorlw	3	; case 2
  7253  0E2C  1903               	skipnz
  7254  0E2D  2DFE               	goto	i1l2170
  7255  0E2E  3A01               	xorlw	1	; case 3
  7256  0E2F  1903               	skipnz
  7257  0E30  2E00               	goto	i1l2176
  7258  0E31  3A07               	xorlw	7	; case 4
  7259  0E32  1903               	skipnz
  7260  0E33  2E02               	goto	i1l2182
  7261  0E34  3A01               	xorlw	1	; case 5
  7262  0E35  1903               	skipnz
  7263  0E36  2E04               	goto	i1l2188
  7264  0E37  3A03               	xorlw	3	; case 6
  7265  0E38  1903               	skipnz
  7266  0E39  2E06               	goto	i1l2194
  7267  0E3A  3A01               	xorlw	1	; case 7
  7268  0E3B  1903               	skipnz
  7269  0E3C  2E08               	goto	i1l2200
  7270  0E3D  3A0F               	xorlw	15	; case 8
  7271  0E3E  1903               	skipnz
  7272  0E3F  2E0A               	goto	i1l2206
  7273  0E40  3A01               	xorlw	1	; case 9
  7274  0E41  1903               	skipnz
  7275  0E42  2E0C               	goto	i1l2212
  7276  0E43  3A03               	xorlw	3	; case 10
  7277  0E44  1903               	skipnz
  7278  0E45  2E0E               	goto	i1l2218
  7279  0E46  3A01               	xorlw	1	; case 11
  7280  0E47  1903               	skipnz
  7281  0E48  2E10               	goto	i1l2224
  7282  0E49  3A07               	xorlw	7	; case 12
  7283  0E4A  1903               	skipnz
  7284  0E4B  2E12               	goto	i1l2230
  7285  0E4C  3A01               	xorlw	1	; case 13
  7286  0E4D  1903               	skipnz
  7287  0E4E  2E14               	goto	i1l2236
  7288  0E4F  3A03               	xorlw	3	; case 14
  7289  0E50  1903               	skipnz
  7290  0E51  2E16               	goto	i1l2242
  7291  0E52  3A01               	xorlw	1	; case 15
  7292  0E53  1903               	skipnz
  7293  0E54  2E18               	goto	i1l2248
  7294  0E55  2E1A               	goto	i1l2254
  7295  0E56                     i1l190:	
  7296  0E56  0008               	return
  7297  0E57                     __end_of_display7s:	
  7298                           
  7299                           	psect	text40
  7300  0D9F                     __ptext40:	
  7301 ;; *************** function ___awmod *****************
  7302 ;; Defined at:
  7303 ;;		line 5 in file "C:\Program Files (x86)\Microchip\xc8\v2.10\pic\sources\c90\common\awmod.c"
  7304 ;; Parameters:    Size  Location     Type
  7305 ;;  divisor         2    0[COMMON] int 
  7306 ;;  dividend        2    2[COMMON] int 
  7307 ;; Auto vars:     Size  Location     Type
  7308 ;;  sign            1    6[COMMON] unsigned char 
  7309 ;;  counter         1    5[COMMON] unsigned char 
  7310 ;; Return value:  Size  Location     Type
  7311 ;;                  2    0[COMMON] int 
  7312 ;; Registers used:
  7313 ;;		wreg, status,2, status,0
  7314 ;; Tracked objects:
  7315 ;;		On entry : 0/0
  7316 ;;		On exit  : 0/0
  7317 ;;		Unchanged: 0/0
  7318 ;; Data sizes:     COMMON   BANK0   BANK1   BANK3   BANK2
  7319 ;;      Params:         4       0       0       0       0
  7320 ;;      Locals:         2       0       0       0       0
  7321 ;;      Temps:          1       0       0       0       0
  7322 ;;      Totals:         7       0       0       0       0
  7323 ;;Total ram usage:        7 bytes
  7324 ;; Hardware stack levels used:    1
  7325 ;; This function calls:
  7326 ;;		Nothing
  7327 ;; This function is called by:
  7328 ;;		_ssd_update
  7329 ;; This function uses a non-reentrant model
  7330 ;;
  7331                           
  7332                           
  7333                           ;psect for function ___awmod
  7334  0D9F                     ___awmod:	
  7335  0D9F                     i1l2336:	
  7336                           ;incstack = 0
  7337                           ; Regs used in ___awmod: [wreg+status,2+status,0]
  7338                           
  7339  0D9F  01F6               	clrf	___awmod@sign
  7340  0DA0                     i1l2338:	
  7341  0DA0  1FF3               	btfss	___awmod@dividend+1,7
  7342  0DA1  2DA3               	goto	u179_21
  7343  0DA2  2DA4               	goto	u179_20
  7344  0DA3                     u179_21:	
  7345  0DA3  2DAB               	goto	i1l2344
  7346  0DA4                     u179_20:	
  7347  0DA4                     i1l2340:	
  7348  0DA4  09F2               	comf	___awmod@dividend,f
  7349  0DA5  09F3               	comf	___awmod@dividend+1,f
  7350  0DA6  0AF2               	incf	___awmod@dividend,f
  7351  0DA7  1903               	skipnz
  7352  0DA8  0AF3               	incf	___awmod@dividend+1,f
  7353  0DA9                     i1l2342:	
  7354  0DA9  01F6               	clrf	___awmod@sign
  7355  0DAA  0AF6               	incf	___awmod@sign,f
  7356  0DAB                     i1l2344:	
  7357  0DAB  1FF1               	btfss	___awmod@divisor+1,7
  7358  0DAC  2DAE               	goto	u180_21
  7359  0DAD  2DAF               	goto	u180_20
  7360  0DAE                     u180_21:	
  7361  0DAE  2DB4               	goto	i1l2348
  7362  0DAF                     u180_20:	
  7363  0DAF                     i1l2346:	
  7364  0DAF  09F0               	comf	___awmod@divisor,f
  7365  0DB0  09F1               	comf	___awmod@divisor+1,f
  7366  0DB1  0AF0               	incf	___awmod@divisor,f
  7367  0DB2  1903               	skipnz
  7368  0DB3  0AF1               	incf	___awmod@divisor+1,f
  7369  0DB4                     i1l2348:	
  7370  0DB4  0870               	movf	___awmod@divisor,w
  7371  0DB5  0471               	iorwf	___awmod@divisor+1,w
  7372  0DB6  1903               	btfsc	3,2
  7373  0DB7  2DB9               	goto	u181_21
  7374  0DB8  2DBA               	goto	u181_20
  7375  0DB9                     u181_21:	
  7376  0DB9  2DE9               	goto	i1l2366
  7377  0DBA                     u181_20:	
  7378  0DBA                     i1l2350:	
  7379  0DBA  01F5               	clrf	___awmod@counter
  7380  0DBB  0AF5               	incf	___awmod@counter,f
  7381  0DBC  2DC8               	goto	i1l2356
  7382  0DBD                     i1l2352:	
  7383  0DBD  3001               	movlw	1
  7384  0DBE                     u182_25:	
  7385  0DBE  1003               	clrc
  7386  0DBF  0DF0               	rlf	___awmod@divisor,f
  7387  0DC0  0DF1               	rlf	___awmod@divisor+1,f
  7388  0DC1  3EFF               	addlw	-1
  7389  0DC2  1D03               	skipz
  7390  0DC3  2DBE               	goto	u182_25
  7391  0DC4                     i1l2354:	
  7392  0DC4  3001               	movlw	1
  7393  0DC5  00F4               	movwf	??___awmod
  7394  0DC6  0874               	movf	??___awmod,w
  7395  0DC7  07F5               	addwf	___awmod@counter,f
  7396  0DC8                     i1l2356:	
  7397  0DC8  1FF1               	btfss	___awmod@divisor+1,7
  7398  0DC9  2DCB               	goto	u183_21
  7399  0DCA  2DCC               	goto	u183_20
  7400  0DCB                     u183_21:	
  7401  0DCB  2DBD               	goto	i1l2352
  7402  0DCC                     u183_20:	
  7403  0DCC                     i1l2358:	
  7404  0DCC  0871               	movf	___awmod@divisor+1,w
  7405  0DCD  0273               	subwf	___awmod@dividend+1,w
  7406  0DCE  1D03               	skipz
  7407  0DCF  2DD2               	goto	u184_25
  7408  0DD0  0870               	movf	___awmod@divisor,w
  7409  0DD1  0272               	subwf	___awmod@dividend,w
  7410  0DD2                     u184_25:	
  7411  0DD2  1C03               	skipc
  7412  0DD3  2DD5               	goto	u184_21
  7413  0DD4  2DD6               	goto	u184_20
  7414  0DD5                     u184_21:	
  7415  0DD5  2DDC               	goto	i1l2362
  7416  0DD6                     u184_20:	
  7417  0DD6                     i1l2360:	
  7418  0DD6  0870               	movf	___awmod@divisor,w
  7419  0DD7  02F2               	subwf	___awmod@dividend,f
  7420  0DD8  0871               	movf	___awmod@divisor+1,w
  7421  0DD9  1C03               	skipc
  7422  0DDA  03F3               	decf	___awmod@dividend+1,f
  7423  0DDB  02F3               	subwf	___awmod@dividend+1,f
  7424  0DDC                     i1l2362:	
  7425  0DDC  3001               	movlw	1
  7426  0DDD                     u185_25:	
  7427  0DDD  1003               	clrc
  7428  0DDE  0CF1               	rrf	___awmod@divisor+1,f
  7429  0DDF  0CF0               	rrf	___awmod@divisor,f
  7430  0DE0  3EFF               	addlw	-1
  7431  0DE1  1D03               	skipz
  7432  0DE2  2DDD               	goto	u185_25
  7433  0DE3                     i1l2364:	
  7434  0DE3  3001               	movlw	1
  7435  0DE4  02F5               	subwf	___awmod@counter,f
  7436  0DE5  1D03               	btfss	3,2
  7437  0DE6  2DE8               	goto	u186_21
  7438  0DE7  2DE9               	goto	u186_20
  7439  0DE8                     u186_21:	
  7440  0DE8  2DCC               	goto	i1l2358
  7441  0DE9                     u186_20:	
  7442  0DE9                     i1l2366:	
  7443  0DE9  0876               	movf	___awmod@sign,w
  7444  0DEA  1903               	btfsc	3,2
  7445  0DEB  2DED               	goto	u187_21
  7446  0DEC  2DEE               	goto	u187_20
  7447  0DED                     u187_21:	
  7448  0DED  2DF3               	goto	i1l2370
  7449  0DEE                     u187_20:	
  7450  0DEE                     i1l2368:	
  7451  0DEE  09F2               	comf	___awmod@dividend,f
  7452  0DEF  09F3               	comf	___awmod@dividend+1,f
  7453  0DF0  0AF2               	incf	___awmod@dividend,f
  7454  0DF1  1903               	skipnz
  7455  0DF2  0AF3               	incf	___awmod@dividend+1,f
  7456  0DF3                     i1l2370:	
  7457  0DF3  0873               	movf	___awmod@dividend+1,w
  7458  0DF4  00F1               	movwf	?___awmod+1
  7459  0DF5  0872               	movf	___awmod@dividend,w
  7460  0DF6  00F0               	movwf	?___awmod
  7461  0DF7                     i1l618:	
  7462  0DF7  0008               	return
  7463  0DF8                     __end_of___awmod:	
  7464                           
  7465                           	psect	text41
  7466  0E57                     __ptext41:	
  7467 ;; *************** function ___awdiv *****************
  7468 ;; Defined at:
  7469 ;;		line 5 in file "C:\Program Files (x86)\Microchip\xc8\v2.10\pic\sources\c90\common\awdiv.c"
  7470 ;; Parameters:    Size  Location     Type
  7471 ;;  divisor         2    0[COMMON] int 
  7472 ;;  dividend        2    2[COMMON] int 
  7473 ;; Auto vars:     Size  Location     Type
  7474 ;;  quotient        2    7[COMMON] int 
  7475 ;;  sign            1    6[COMMON] unsigned char 
  7476 ;;  counter         1    5[COMMON] unsigned char 
  7477 ;; Return value:  Size  Location     Type
  7478 ;;                  2    0[COMMON] int 
  7479 ;; Registers used:
  7480 ;;		wreg, status,2, status,0
  7481 ;; Tracked objects:
  7482 ;;		On entry : 0/0
  7483 ;;		On exit  : 0/0
  7484 ;;		Unchanged: 0/0
  7485 ;; Data sizes:     COMMON   BANK0   BANK1   BANK3   BANK2
  7486 ;;      Params:         4       0       0       0       0
  7487 ;;      Locals:         4       0       0       0       0
  7488 ;;      Temps:          1       0       0       0       0
  7489 ;;      Totals:         9       0       0       0       0
  7490 ;;Total ram usage:        9 bytes
  7491 ;; Hardware stack levels used:    1
  7492 ;; This function calls:
  7493 ;;		Nothing
  7494 ;; This function is called by:
  7495 ;;		_ssd_update
  7496 ;; This function uses a non-reentrant model
  7497 ;;
  7498                           
  7499                           
  7500                           ;psect for function ___awdiv
  7501  0E57                     ___awdiv:	
  7502  0E57                     i1l2292:	
  7503                           ;incstack = 0
  7504                           ; Regs used in ___awdiv: [wreg+status,2+status,0]
  7505                           
  7506  0E57  01F6               	clrf	___awdiv@sign
  7507  0E58                     i1l2294:	
  7508  0E58  1FF1               	btfss	___awdiv@divisor+1,7
  7509  0E59  2E5B               	goto	u169_21
  7510  0E5A  2E5C               	goto	u169_20
  7511  0E5B                     u169_21:	
  7512  0E5B  2E63               	goto	i1l2300
  7513  0E5C                     u169_20:	
  7514  0E5C                     i1l2296:	
  7515  0E5C  09F0               	comf	___awdiv@divisor,f
  7516  0E5D  09F1               	comf	___awdiv@divisor+1,f
  7517  0E5E  0AF0               	incf	___awdiv@divisor,f
  7518  0E5F  1903               	skipnz
  7519  0E60  0AF1               	incf	___awdiv@divisor+1,f
  7520  0E61                     i1l2298:	
  7521  0E61  01F6               	clrf	___awdiv@sign
  7522  0E62  0AF6               	incf	___awdiv@sign,f
  7523  0E63                     i1l2300:	
  7524  0E63  1FF3               	btfss	___awdiv@dividend+1,7
  7525  0E64  2E66               	goto	u170_21
  7526  0E65  2E67               	goto	u170_20
  7527  0E66                     u170_21:	
  7528  0E66  2E70               	goto	i1l2306
  7529  0E67                     u170_20:	
  7530  0E67                     i1l2302:	
  7531  0E67  09F2               	comf	___awdiv@dividend,f
  7532  0E68  09F3               	comf	___awdiv@dividend+1,f
  7533  0E69  0AF2               	incf	___awdiv@dividend,f
  7534  0E6A  1903               	skipnz
  7535  0E6B  0AF3               	incf	___awdiv@dividend+1,f
  7536  0E6C                     i1l2304:	
  7537  0E6C  3001               	movlw	1
  7538  0E6D  00F4               	movwf	??___awdiv
  7539  0E6E  0874               	movf	??___awdiv,w
  7540  0E6F  06F6               	xorwf	___awdiv@sign,f
  7541  0E70                     i1l2306:	
  7542  0E70  01F7               	clrf	___awdiv@quotient
  7543  0E71  01F8               	clrf	___awdiv@quotient+1
  7544  0E72                     i1l2308:	
  7545  0E72  0870               	movf	___awdiv@divisor,w
  7546  0E73  0471               	iorwf	___awdiv@divisor+1,w
  7547  0E74  1903               	btfsc	3,2
  7548  0E75  2E77               	goto	u171_21
  7549  0E76  2E78               	goto	u171_20
  7550  0E77                     u171_21:	
  7551  0E77  2EAF               	goto	i1l2328
  7552  0E78                     u171_20:	
  7553  0E78                     i1l2310:	
  7554  0E78  01F5               	clrf	___awdiv@counter
  7555  0E79  0AF5               	incf	___awdiv@counter,f
  7556  0E7A  2E86               	goto	i1l2316
  7557  0E7B                     i1l2312:	
  7558  0E7B  3001               	movlw	1
  7559  0E7C                     u172_25:	
  7560  0E7C  1003               	clrc
  7561  0E7D  0DF0               	rlf	___awdiv@divisor,f
  7562  0E7E  0DF1               	rlf	___awdiv@divisor+1,f
  7563  0E7F  3EFF               	addlw	-1
  7564  0E80  1D03               	skipz
  7565  0E81  2E7C               	goto	u172_25
  7566  0E82                     i1l2314:	
  7567  0E82  3001               	movlw	1
  7568  0E83  00F4               	movwf	??___awdiv
  7569  0E84  0874               	movf	??___awdiv,w
  7570  0E85  07F5               	addwf	___awdiv@counter,f
  7571  0E86                     i1l2316:	
  7572  0E86  1FF1               	btfss	___awdiv@divisor+1,7
  7573  0E87  2E89               	goto	u173_21
  7574  0E88  2E8A               	goto	u173_20
  7575  0E89                     u173_21:	
  7576  0E89  2E7B               	goto	i1l2312
  7577  0E8A                     u173_20:	
  7578  0E8A                     i1l2318:	
  7579  0E8A  3001               	movlw	1
  7580  0E8B                     u174_25:	
  7581  0E8B  1003               	clrc
  7582  0E8C  0DF7               	rlf	___awdiv@quotient,f
  7583  0E8D  0DF8               	rlf	___awdiv@quotient+1,f
  7584  0E8E  3EFF               	addlw	-1
  7585  0E8F  1D03               	skipz
  7586  0E90  2E8B               	goto	u174_25
  7587  0E91  0871               	movf	___awdiv@divisor+1,w
  7588  0E92  0273               	subwf	___awdiv@dividend+1,w
  7589  0E93  1D03               	skipz
  7590  0E94  2E97               	goto	u175_25
  7591  0E95  0870               	movf	___awdiv@divisor,w
  7592  0E96  0272               	subwf	___awdiv@dividend,w
  7593  0E97                     u175_25:	
  7594  0E97  1C03               	skipc
  7595  0E98  2E9A               	goto	u175_21
  7596  0E99  2E9B               	goto	u175_20
  7597  0E9A                     u175_21:	
  7598  0E9A  2EA2               	goto	i1l2324
  7599  0E9B                     u175_20:	
  7600  0E9B                     i1l2320:	
  7601  0E9B  0870               	movf	___awdiv@divisor,w
  7602  0E9C  02F2               	subwf	___awdiv@dividend,f
  7603  0E9D  0871               	movf	___awdiv@divisor+1,w
  7604  0E9E  1C03               	skipc
  7605  0E9F  03F3               	decf	___awdiv@dividend+1,f
  7606  0EA0  02F3               	subwf	___awdiv@dividend+1,f
  7607  0EA1                     i1l2322:	
  7608  0EA1  1477               	bsf	___awdiv@quotient,0
  7609  0EA2                     i1l2324:	
  7610  0EA2  3001               	movlw	1
  7611  0EA3                     u176_25:	
  7612  0EA3  1003               	clrc
  7613  0EA4  0CF1               	rrf	___awdiv@divisor+1,f
  7614  0EA5  0CF0               	rrf	___awdiv@divisor,f
  7615  0EA6  3EFF               	addlw	-1
  7616  0EA7  1D03               	skipz
  7617  0EA8  2EA3               	goto	u176_25
  7618  0EA9                     i1l2326:	
  7619  0EA9  3001               	movlw	1
  7620  0EAA  02F5               	subwf	___awdiv@counter,f
  7621  0EAB  1D03               	btfss	3,2
  7622  0EAC  2EAE               	goto	u177_21
  7623  0EAD  2EAF               	goto	u177_20
  7624  0EAE                     u177_21:	
  7625  0EAE  2E8A               	goto	i1l2318
  7626  0EAF                     u177_20:	
  7627  0EAF                     i1l2328:	
  7628  0EAF  0876               	movf	___awdiv@sign,w
  7629  0EB0  1903               	btfsc	3,2
  7630  0EB1  2EB3               	goto	u178_21
  7631  0EB2  2EB4               	goto	u178_20
  7632  0EB3                     u178_21:	
  7633  0EB3  2EB9               	goto	i1l2332
  7634  0EB4                     u178_20:	
  7635  0EB4                     i1l2330:	
  7636  0EB4  09F7               	comf	___awdiv@quotient,f
  7637  0EB5  09F8               	comf	___awdiv@quotient+1,f
  7638  0EB6  0AF7               	incf	___awdiv@quotient,f
  7639  0EB7  1903               	skipnz
  7640  0EB8  0AF8               	incf	___awdiv@quotient+1,f
  7641  0EB9                     i1l2332:	
  7642  0EB9  0878               	movf	___awdiv@quotient+1,w
  7643  0EBA  00F1               	movwf	?___awdiv+1
  7644  0EBB  0877               	movf	___awdiv@quotient,w
  7645  0EBC  00F0               	movwf	?___awdiv
  7646  0EBD                     i1l605:	
  7647  0EBD  0008               	return
  7648  0EBE                     __end_of___awdiv:	
  7649                           
  7650                           	psect	text42
  7651  0A2C                     __ptext42:	
  7652 ;; *************** function _ssd_turn_off *****************
  7653 ;; Defined at:
  7654 ;;		line 128 in file "SSD.c"
  7655 ;; Parameters:    Size  Location     Type
  7656 ;;		None
  7657 ;; Auto vars:     Size  Location     Type
  7658 ;;		None
  7659 ;; Return value:  Size  Location     Type
  7660 ;;                  1    wreg      void 
  7661 ;; Registers used:
  7662 ;;		wreg, status,2, status,0
  7663 ;; Tracked objects:
  7664 ;;		On entry : 0/0
  7665 ;;		On exit  : 0/0
  7666 ;;		Unchanged: 0/0
  7667 ;; Data sizes:     COMMON   BANK0   BANK1   BANK3   BANK2
  7668 ;;      Params:         0       0       0       0       0
  7669 ;;      Locals:         0       0       0       0       0
  7670 ;;      Temps:          1       0       0       0       0
  7671 ;;      Totals:         1       0       0       0       0
  7672 ;;Total ram usage:        1 bytes
  7673 ;; Hardware stack levels used:    1
  7674 ;; This function calls:
  7675 ;;		Nothing
  7676 ;; This function is called by:
  7677 ;;		_isr
  7678 ;;		_ssd_blink
  7679 ;; This function uses a non-reentrant model
  7680 ;;
  7681                           
  7682                           
  7683                           ;psect for function _ssd_turn_off
  7684  0A2C                     _ssd_turn_off:	
  7685  0A2C                     i1l2464:	
  7686                           ;incstack = 0
  7687                           ; Regs used in _ssd_turn_off: [wreg+status,2+status,0]
  7688                           
  7689                           
  7690                           ;SSD.c: 129:     (PORTD &= ~(255 << 0));
  7691  0A2C  1283               	bcf	3,5	;RP0=0, select bank0
  7692  0A2D  1303               	bcf	3,6	;RP1=0, select bank0
  7693  0A2E  0188               	clrf	8	;volatile
  7694  0A2F                     i1l2466:	
  7695                           
  7696                           ;SSD.c: 130:     (PORTA &= ~(1 << 4));
  7697  0A2F  30EF               	movlw	239
  7698  0A30  00F0               	movwf	??_ssd_turn_off
  7699  0A31  0870               	movf	??_ssd_turn_off,w
  7700  0A32  0585               	andwf	5,f	;volatile
  7701  0A33                     i1l2468:	
  7702                           
  7703                           ;SSD.c: 131:     (PORTA &= ~(1 << 5));
  7704  0A33  30DF               	movlw	223
  7705  0A34  00F0               	movwf	??_ssd_turn_off
  7706  0A35  0870               	movf	??_ssd_turn_off,w
  7707  0A36  0585               	andwf	5,f	;volatile
  7708                           
  7709                           ;SSD.c: 132:     ssd_delay = 0 ;
  7710  0A37  01E8               	clrf	_ssd_delay
  7711  0A38                     i1l219:	
  7712  0A38  0008               	return
  7713  0A39                     __end_of_ssd_turn_off:	
  7714                           
  7715                           	psect	text43
  7716  0C10                     __ptext43:	
  7717 ;; *************** function _led *****************
  7718 ;; Defined at:
  7719 ;;		line 58 in file "temp_control.c"
  7720 ;; Parameters:    Size  Location     Type
  7721 ;;		None
  7722 ;; Auto vars:     Size  Location     Type
  7723 ;;		None
  7724 ;; Return value:  Size  Location     Type
  7725 ;;                  1    wreg      void 
  7726 ;; Registers used:
  7727 ;;		wreg, fsr0l, fsr0h, status,2, status,0
  7728 ;; Tracked objects:
  7729 ;;		On entry : 0/0
  7730 ;;		On exit  : 0/0
  7731 ;;		Unchanged: 0/0
  7732 ;; Data sizes:     COMMON   BANK0   BANK1   BANK3   BANK2
  7733 ;;      Params:         0       0       0       0       0
  7734 ;;      Locals:         0       0       0       0       0
  7735 ;;      Temps:          2       0       0       0       0
  7736 ;;      Totals:         2       0       0       0       0
  7737 ;;Total ram usage:        2 bytes
  7738 ;; Hardware stack levels used:    1
  7739 ;; This function calls:
  7740 ;;		Nothing
  7741 ;; This function is called by:
  7742 ;;		_isr
  7743 ;; This function uses a non-reentrant model
  7744 ;;
  7745                           
  7746                           
  7747                           ;psect for function _led
  7748  0C10                     _led:	
  7749  0C10                     i1l2938:	
  7750                           ;incstack = 0
  7751                           ; Regs used in _led: [wreg-fsr0h+status,2+status,0]
  7752                           
  7753                           
  7754                           ;temp_control.c: 59:     switch (state){
  7755  0C10  2C2E               	goto	i1l2954
  7756  0C11                     i1l2940:	
  7757                           
  7758                           ;temp_control.c: 62:             led_timer += 1;
  7759  0C11  3001               	movlw	1
  7760  0C12  07D6               	addwf	_led_timer,f
  7761  0C13  1803               	skipnc
  7762  0C14  0AD7               	incf	_led_timer+1,f
  7763  0C15  3000               	movlw	0
  7764  0C16  07D7               	addwf	_led_timer+1,f
  7765  0C17                     i1l2942:	
  7766                           
  7767                           ;temp_control.c: 63:                 if (led_timer == 1000){
  7768  0C17  30E8               	movlw	232
  7769  0C18  0656               	xorwf	_led_timer,w
  7770  0C19  3003               	movlw	3
  7771  0C1A  1903               	skipnz
  7772  0C1B  0657               	xorwf	_led_timer+1,w
  7773  0C1C  1D03               	btfss	3,2
  7774  0C1D  2C1F               	goto	u299_21
  7775  0C1E  2C20               	goto	u299_20
  7776  0C1F                     u299_21:	
  7777  0C1F  2C43               	goto	i1l316
  7778  0C20                     u299_20:	
  7779  0C20                     i1l2944:	
  7780                           
  7781                           ;temp_control.c: 64:                     (PORTB ^= ( 1 << 4));
  7782  0C20  3010               	movlw	16
  7783  0C21  00F0               	movwf	??_led
  7784  0C22  0870               	movf	??_led,w
  7785  0C23  0686               	xorwf	6,f	;volatile
  7786  0C24                     i1l2946:	
  7787                           
  7788                           ;temp_control.c: 65:                     led_timer = 0 ; }
  7789  0C24  01D6               	clrf	_led_timer
  7790  0C25  01D7               	clrf	_led_timer+1
  7791  0C26  2C43               	goto	i1l316
  7792  0C27                     i1l313:	
  7793                           ;temp_control.c: 68:         case COOLER_ON :
  7794                           
  7795                           
  7796                           ;temp_control.c: 69:                 (PORTB |= (1 << 4));
  7797  0C27  1606               	bsf	6,4	;volatile
  7798  0C28  2C24               	goto	i1l2946
  7799  0C29                     i1l2950:	
  7800                           
  7801                           ;temp_control.c: 74:             (PORTB &= ~(1 << 4));
  7802  0C29  30EF               	movlw	239
  7803  0C2A  00F0               	movwf	??_led
  7804  0C2B  0870               	movf	??_led,w
  7805  0C2C  0586               	andwf	6,f	;volatile
  7806                           
  7807                           ;temp_control.c: 75:             break;
  7808  0C2D  2C43               	goto	i1l316
  7809  0C2E                     i1l2954:	
  7810  0C2E  1283               	bcf	3,5	;RP0=0, select bank0
  7811  0C2F  1303               	bcf	3,6	;RP1=0, select bank0
  7812  0C30  085E               	movf	_state,w
  7813  0C31  00F0               	movwf	??_led
  7814  0C32  01F1               	clrf	??_led+1
  7815                           
  7816                           ; Switch on 2 bytes has been partitioned into a top level switch of size 1, and 1 sub-sw
      +                          itches
  7817                           ; Switch size 1, requested type "simple"
  7818                           ; Number of cases is 1, Range of values is 0 to 0
  7819                           ; switch strategies available:
  7820                           ; Name         Instructions Cycles
  7821                           ; simple_byte            4     3 (average)
  7822                           ; direct_byte           11     8 (fixed)
  7823                           ; jumptable            260     6 (fixed)
  7824                           ;	Chosen strategy is simple_byte
  7825  0C33  0871               	movf	??_led+1,w
  7826  0C34  3A00               	xorlw	0	; case 0
  7827  0C35  1903               	skipnz
  7828  0C36  2C38               	goto	i1l3314
  7829  0C37  2C43               	goto	i1l316
  7830  0C38                     i1l3314:	
  7831                           
  7832                           ; Switch size 1, requested type "simple"
  7833                           ; Number of cases is 3, Range of values is 0 to 2
  7834                           ; switch strategies available:
  7835                           ; Name         Instructions Cycles
  7836                           ; simple_byte           10     6 (average)
  7837                           ; direct_byte           17     8 (fixed)
  7838                           ; jumptable            260     6 (fixed)
  7839                           ;	Chosen strategy is simple_byte
  7840  0C38  0870               	movf	??_led,w
  7841  0C39  3A00               	xorlw	0	; case 0
  7842  0C3A  1903               	skipnz
  7843  0C3B  2C11               	goto	i1l2940
  7844  0C3C  3A01               	xorlw	1	; case 1
  7845  0C3D  1903               	skipnz
  7846  0C3E  2C27               	goto	i1l313
  7847  0C3F  3A03               	xorlw	3	; case 2
  7848  0C40  1903               	skipnz
  7849  0C41  2C29               	goto	i1l2950
  7850  0C42  2C43               	goto	i1l316
  7851  0C43                     i1l316:	
  7852  0C43  0008               	return
  7853  0C44                     __end_of_led:	
  7854  007E                     btemp	set	126	;btemp
  7855  007E                     wtemp0	set	126


Data Sizes:
    Strings     0
    Constant    0
    Data        2
    BSS         40
    Persistent  0
    Stack       0

Auto Spaces:
    Space          Size  Autos    Used
    COMMON           14     14      14
    BANK0            80     54      76
    BANK1            80     23      43
    BANK3            96      0       0
    BANK2            96      0       0

Pointer List with Targets:

    None.

Critical Paths under _main in COMMON

    None.

Critical Paths under _isr in COMMON

    _isr->_ssd_blink
    _temp_sensor_read->_average
    _average->___lwdiv
    ___xxtofl->_ADC_Read
    ___fltol->___xxtofl
    ___flmul->___xxtofl
    ___fldiv->___xxtofl
    _sw_action->_EEPROM_write
    _EEPROM_write->i1_I2C1_Wr
    _ssd_blink->_ssd_update
    _ssd_update->___awdiv

Critical Paths under _main in BANK0

    None.

Critical Paths under _isr in BANK0

    _isr->_temp_sensor_read
    _temp_sensor_read->___fltol
    ___fltol->___fldiv
    ___fltol->___flmul
    ___flmul->___xxtofl
    ___fldiv->___xxtofl

Critical Paths under _main in BANK1

    _temp_sensor_init->_ADC_Init
    _EEPROM_read->_I2C1_Wr
    _EEPROM_init->_I2C1_Init
    _I2C1_Init->___lldiv

Critical Paths under _isr in BANK1

    None.

Critical Paths under _main in BANK3

    None.

Critical Paths under _isr in BANK3

    None.

Critical Paths under _main in BANK2

    None.

Critical Paths under _isr in BANK2

    None.

Call Graph Tables:

 ---------------------------------------------------------------------------------
 (Depth) Function   	        Calls       Base Space   Used Autos Params    Refs
 ---------------------------------------------------------------------------------
 (0) _main                                                 1     1      0     632
                                             22 BANK1      1     1      0
                        _EEPROM_init
                        _EEPROM_read
                           _ssd_init
                        _switch_init
                  _temp_control_init
                   _temp_sensor_init
                        _timer2_init
 ---------------------------------------------------------------------------------
 (1) _timer2_init                                          1     1      0       0
                                              0 BANK1      1     1      0
 ---------------------------------------------------------------------------------
 (1) _temp_sensor_init                                     0     0      0       0
                           _ADC_Init
 ---------------------------------------------------------------------------------
 (2) _ADC_Init                                             1     1      0       0
                                              0 BANK1      1     1      0
 ---------------------------------------------------------------------------------
 (1) _temp_control_init                                    1     1      0       0
                                              0 BANK1      1     1      0
 ---------------------------------------------------------------------------------
 (1) _switch_init                                          0     0      0       0
 ---------------------------------------------------------------------------------
 (1) _ssd_init                                             1     1      0       0
                                              0 BANK1      1     1      0
 ---------------------------------------------------------------------------------
 (1) _EEPROM_read                                          4     2      2     220
                                              1 BANK1      4     2      2
                            _I2C1_Rd
                         _I2C1_Start
                          _I2C1_Stop
                            _I2C1_Wr
 ---------------------------------------------------------------------------------
 (2) _I2C1_Wr                                              1     1      0      22
                                              0 BANK1      1     1      0
                           _I2C_Wait
 ---------------------------------------------------------------------------------
 (2) _I2C1_Stop                                            0     0      0       0
                           _I2C_Wait
 ---------------------------------------------------------------------------------
 (2) _I2C1_Start                                           0     0      0       0
                           _I2C_Wait
 ---------------------------------------------------------------------------------
 (3) _I2C_Wait                                             0     0      0       0
 ---------------------------------------------------------------------------------
 (2) _I2C1_Rd                                              0     0      0       0
 ---------------------------------------------------------------------------------
 (1) _EEPROM_init                                          0     0      0     412
                          _I2C1_Init
 ---------------------------------------------------------------------------------
 (2) _I2C1_Init                                            8     4      4     412
                                             14 BANK1      8     4      4
                            ___lldiv
 ---------------------------------------------------------------------------------
 (3) ___lldiv                                             14     6      8     314
                                              0 BANK1     14     6      8
 ---------------------------------------------------------------------------------
 Estimated maximum stack depth 3
 ---------------------------------------------------------------------------------
 (Depth) Function   	        Calls       Base Space   Used Autos Params    Refs
 ---------------------------------------------------------------------------------
 (4) _isr                                                  6     6      0    7234
                                             48 BANK0      6     6      0
                                _led
                          _ssd_blink
                       _ssd_turn_off
                         _ssd_update
                        _start_timer
                         _stop_timer
                          _sw_action
                        _switch_scan
                   _temp_control_off
                   _temp_sensor_read
                           _temp_set
 ---------------------------------------------------------------------------------
 (5) _temp_set                                             4     4      0      66
                                              0 COMMON     4     4      0
 ---------------------------------------------------------------------------------
 (5) _temp_sensor_read                                     5     5      0    4996
                                             43 BANK0      5     5      0
                           _ADC_Read
                            ___fldiv
                            ___flmul
                            ___fltol
                           ___xxtofl
                            _average
 ---------------------------------------------------------------------------------
 (6) _average                                              6     6      0     429
                                              8 COMMON     6     6      0
                            ___lwdiv
 ---------------------------------------------------------------------------------
 (7) ___lwdiv                                              8     4      4     314
                                              0 COMMON     8     4      4
 ---------------------------------------------------------------------------------
 (6) ___xxtofl                                            14    10      4     474
                                              5 COMMON     8     4      4
                                              0 BANK0      6     6      0
                           _ADC_Read (ARG)
 ---------------------------------------------------------------------------------
 (6) ___fltol                                             11     7      4     381
                                             32 BANK0     11     7      4
                           _ADC_Read (ARG)
                            ___fldiv (ARG)
                            ___flmul (ARG)
                           ___xxtofl (ARG)
 ---------------------------------------------------------------------------------
 (6) ___flmul                                             26    18      8    2417
                                              6 BANK0     26    18      8
                           _ADC_Read (ARG)
                          __Umul8_16
                           ___xxtofl (ARG)
 ---------------------------------------------------------------------------------
 (7) __Umul8_16                                            9     7      2     799
                                              0 COMMON     9     7      2
 ---------------------------------------------------------------------------------
 (6) ___fldiv                                             26    18      8    1273
                                              6 BANK0     26    18      8
                           ___xxtofl (ARG)
 ---------------------------------------------------------------------------------
 (6) _ADC_Read                                             5     3      2      22
                                              0 COMMON     5     3      2
 ---------------------------------------------------------------------------------
 (5) _temp_control_off                                     1     1      0       0
                                              0 COMMON     1     1      0
 ---------------------------------------------------------------------------------
 (5) _switch_scan                                          1     1      0       0
                                              0 COMMON     1     1      0
 ---------------------------------------------------------------------------------
 (5) _sw_action                                            2     2      0     218
                                              4 COMMON     2     2      0
                       _EEPROM_write
 ---------------------------------------------------------------------------------
 (6) _EEPROM_write                                         3     0      3     218
                                              1 COMMON     3     0      3
                       i1_I2C1_Start
                        i1_I2C1_Stop
                          i1_I2C1_Wr
 ---------------------------------------------------------------------------------
 (7) i1_I2C1_Wr                                            1     1      0      22
                                              0 COMMON     1     1      0
                         i1_I2C_Wait
 ---------------------------------------------------------------------------------
 (7) i1_I2C1_Stop                                          0     0      0       0
                         i1_I2C_Wait
 ---------------------------------------------------------------------------------
 (7) i1_I2C1_Start                                         0     0      0       0
                         i1_I2C_Wait
 ---------------------------------------------------------------------------------
 (8) i1_I2C_Wait                                           0     0      0       0
 ---------------------------------------------------------------------------------
 (5) _stop_timer                                           1     1      0       0
                                              0 COMMON     1     1      0
 ---------------------------------------------------------------------------------
 (5) _start_timer                                          0     0      0       0
 ---------------------------------------------------------------------------------
 (5) _ssd_blink                                            3     3      0     988
                                             13 COMMON     1     1      0
                                              0 BANK0      2     2      0
                       _ssd_turn_off
                         _ssd_update
 ---------------------------------------------------------------------------------
 (5) _ssd_update                                           4     4      0     966
                                              9 COMMON     4     4      0
                            ___awdiv
                            ___awmod
                          _display7s
 ---------------------------------------------------------------------------------
 (6) _display7s                                            3     3      0      22
                                              0 COMMON     3     3      0
 ---------------------------------------------------------------------------------
 (6) ___awmod                                              7     3      4     448
                                              0 COMMON     7     3      4
 ---------------------------------------------------------------------------------
 (6) ___awdiv                                              9     5      4     452
                                              0 COMMON     9     5      4
 ---------------------------------------------------------------------------------
 (5) _ssd_turn_off                                         1     1      0       0
                                              0 COMMON     1     1      0
 ---------------------------------------------------------------------------------
 (5) _led                                                  2     2      0       0
                                              0 COMMON     2     2      0
 ---------------------------------------------------------------------------------
 Estimated maximum stack depth 8
 ---------------------------------------------------------------------------------

 Call Graph Graphs:

 _main (ROOT)
   _EEPROM_init
     _I2C1_Init
       ___lldiv
   _EEPROM_read
     _I2C1_Rd
     _I2C1_Start
       _I2C_Wait
     _I2C1_Stop
       _I2C_Wait
     _I2C1_Wr
       _I2C_Wait
   _ssd_init
   _switch_init
   _temp_control_init
   _temp_sensor_init
     _ADC_Init
   _timer2_init

 _isr (ROOT)
   _led
   _ssd_blink
     _ssd_turn_off
     _ssd_update
       ___awdiv
       ___awmod
       _display7s
   _ssd_turn_off
   _ssd_update
     ___awdiv
     ___awmod
     _display7s
   _start_timer
   _stop_timer
   _sw_action
     _EEPROM_write
       i1_I2C1_Start
         i1_I2C_Wait
       i1_I2C1_Stop
         i1_I2C_Wait
       i1_I2C1_Wr
         i1_I2C_Wait
   _switch_scan
   _temp_control_off
   _temp_sensor_read
     _ADC_Read
     ___fldiv
       ___xxtofl (ARG)
         _ADC_Read (ARG)
     ___flmul
       _ADC_Read (ARG)
       __Umul8_16 (ARG)
       ___xxtofl (ARG)
         _ADC_Read (ARG)
     ___fltol
       _ADC_Read (ARG)
       ___fldiv (ARG)
         ___xxtofl (ARG)
           _ADC_Read (ARG)
       ___flmul (ARG)
         _ADC_Read (ARG)
         __Umul8_16 (ARG)
         ___xxtofl (ARG)
           _ADC_Read (ARG)
       ___xxtofl (ARG)
         _ADC_Read (ARG)
     ___xxtofl
       _ADC_Read (ARG)
     _average
       ___lwdiv
   _temp_set

 Address spaces:
Name               Size   Autos  Total    Cost      Usage
BANK3               60      0       0       9        0.0%
BITBANK3            60      0       0       8        0.0%
SFR3                 0      0       0       4        0.0%
BITSFR3              0      0       0       4        0.0%
BANK2               60      0       0      11        0.0%
BITBANK2            60      0       0      10        0.0%
SFR2                 0      0       0       5        0.0%
BITSFR2              0      0       0       5        0.0%
BANK1               50     17      2B       7       53.8%
BITBANK1            50      0       0       6        0.0%
SFR1                 0      0       0       2        0.0%
BITSFR1              0      0       0       2        0.0%
BANK0               50     36      4C       5       95.0%
BITBANK0            50      0       0       4        0.0%
SFR0                 0      0       0       1        0.0%
BITSFR0              0      0       0       1        0.0%
COMMON               E      E       E       1      100.0%
BITCOMMON            E      0       0       0        0.0%
CODE                 0      0       0       0        0.0%
DATA                 0      0      85      12        0.0%
ABS                  0      0      85       3        0.0%
NULL                 0      0       0       0        0.0%
STACK                0      0       0       2        0.0%
EEDATA             100      0       0       0        0.0%


Microchip Technology PIC Macro Assembler V2.10 build 88905656 
Symbol Table                                                                                   Tue Jul 07 21:12:50 2020

              _ssd_turn_off 0A2C                ___fldiv@aexp 003F                ___fldiv@bexp 003E  
                         _i 005D                ___fldiv@sign 0037                 __CFG_CP$OFF 0000  
                        l84 0D42                          l85 0D47                          l86 0D47  
                        l99 0ADA                ___awdiv@sign 0076                          fsr 0004  
        EEPROM_read@address 00A1                ?i1_I2C1_Stop 0070         __Umul8_16@word_mpld 0076  
               __CFG_LVP$ON 0000                 ?i1_I2C_Wait 0070             __end_of_I2C1_Rd 0A61  
                       l122 0A46                         l131 0A19                         l140 0A59  
                       l125 0A52                         l142 0A5E                         l134 0A22  
                       l143 0A60             __end_of_I2C1_Wr 0AA6                         l128 0C77  
                       l137 0AA5                         l162 0C0F                         l156 0A80  
                       l254 09F6                         l336 0A2B                         l360 0B3A  
                       l185 0B16                         l297 0B5F                         l488 0F25  
              __CFG_CPD$OFF 0000                         _led 0C10                         _isr 06EC  
                       fsr0 0004                         indf 0000                 _start_timer 09E3  
              ___awmod@sign 0076   __size_of_temp_control_off 0011               ?i1_I2C1_Start 0070  
              ___flmul@aexp 0038                ___flmul@bexp 0039                ___flmul@sign 0033  
              ___flmul@temp 003E                ___flmul@prod 003A                ___fltol@exp1 004A  
                      l2152 0A46                        l2154 0A4C                        l3050 09F0  
                      l2500 0A95                        l3060 0B10                        l3052 0AF8  
                      l3044 0A23                        l2270 0ED0                        l3062 0A71  
                      l2502 0A9A                        l3070 0BEA                        l3054 0AFE  
                      l3046 0A28                        l3150 0D08                        l2280 0EFF  
                      l2272 0ED3                        l2504 0AA0                        l3080 0C0C  
                      l3072 0BF2                        l3064 0BDF                        l3056 0B04  
                      l3048 0B3B                        l3160 0D32                        l3152 0D0D  
                      l2282 0F0D                        l2274 0EE0                        l2506 0A53  
                      l3074 0BF7                        l3066 0BDF                        l3058 0B0A  
                      l3090 0B2A                        l3154 0D12                        l2284 0F0E  
                      l2276 0EE4                        l2268 0EBE                        l2508 0A5F  
                      l3076 0BFD                        l3068 0BE4                        l3092 0B2B  
                      l3084 0B17                        l3156 0D17                        l3148 0CFE  
                      l2286 0F17                        l2278 0EED                        l3078 0C07  
                      l2470 0ABF                        l3094 0B2C                        l3086 0B1F  
                      l3158 0D2B                        l2288 0F1D                        l2472 0AC7  
                      l3096 0B34                        l3088 0B28                        l2490 0C76  
                      l2474 0AD7                        l3098 0B37                        l2484 0C44  
                      l2492 0A11                        l2486 0C48                        l2494 0A16  
                      ?_led 0070                        l2488 0C75                        l2496 0A1A  
                      l2498 0A1F                        ?_isr 0070                        u2010 0C58  
                      u2020 0A5E                        u2021 0A5D                        u2015 0C53  
                      u1600 0A4C                        u1601 0A4B                        u1610 0A52  
                      u1611 0A51                        u1620 0ED0                        u3140 0D2B  
                      u1621 0ECF                        u3141 0D2A                        u1640 0EE4  
                      u1641 0EE3                        u1635 0ED5                        u1660 0EFF  
                      u1661 0EFE                        u1655 0EE6                        _PIE1 008C  
                      u1680 0F1D                        u1681 0F1C                        u1665 0EFB  
                      u1675 0F0F                        _PIR1 000C                        i1l75 074D  
                      i1l67 0742                        i1l78 0776                        _TMR2 0011  
              __CFG_WRT$OFF 0000              i1I2C1_Wr@_data 0070                        _main 0CFE  
                      _mode 0064                        _ones 0061                        _temp 005C  
                      _tens 0062                        btemp 007E            __end_of_I2C_Wait 0A53  
          __end_of_ADC_Init 0ADB            __end_of_ADC_Read 0BAF          __size_ofi1_I2C1_Wr 0010  
                      start 0012             ___fldiv@new_exp 0038                 _switch_init 09F0  
               _switch_scan 0AA6                 _switch_wait 005A                       ??_led 0070  
                     ??_isr 0050        __end_of_EEPROM_write 0AF8           __end_of_I2C1_Init 0C78  
             ___fltol@sign1 0049                       ?_main 0070             __end_of___fldiv 0574  
           __end_of___awdiv 0EBE           __end_of_I2C1_Stop 0A23               __CFG_WDTE$OFF 0000  
           __end_of___awmod 0DF8             __end_of___flmul 0397             __end_of___fltol 07FF  
           __end_of___lldiv 0F26             ___awdiv@divisor 0070                       _T2CON 0012  
           __end_of___lwdiv 0CFE                       i1l102 0BA4                       i1l105 0BAE  
                     i1l122 0A39                       i1l131 0A07                       i1l125 0A45  
                     i1l134 0A10                       i1l231 0CB9                       i1l303 0D9E  
                     i1l216 0FFF                       i1l224 0C92                       i1l313 0C27  
                     i1l137 0A70                       i1l306 0D9E                       i1l219 0A38  
                     i1l316 0C43                       i1l341 0BDE                       i1l190 0E56  
                     i1l262 0ABE                       i1l159 0AF7                       i1l319 0A91  
                     i1l280 0F91                       i1l258 0AB8                       i1l346 062F  
                     i1l363 09EF                       i1l605 0EBD                       i1l269 0F31  
                     i1l366 09E8                       i1l801 03F3                       i1l618 0DF7  
                     i1l803 0573                       i1l900 0B86                       i1l724 0CFD  
                     i1l645 07E9                       i1l638 07FE                       i1l823 0557  
                     i1l648 07FE                       i1l825 0567                       i1l817 04E5  
                     i1l841 0396                       i1l853 038A                       i1l847 0302  
                     i1l881 06EB                       i1l892 06B5                       i1l893 06C1  
                     i1l885 0699                       i1l879 0654                       i1l898 0B74  
           ___awdiv@counter 0075                       _PORTA 0005                       _PORTB 0006  
                     _PORTC 0007                       _PORTD 0008                       _TRISA 0085  
                     _TRISB 0086                       _TRISC 0087                       _TRISD 0088  
                     _SSPIF 0063              ??i1_I2C1_Start 0070              EEPROM_write@_x 0073  
           __end_of_average 0BDF                       _blink 005F                       _state 005E  
                     _up_sw 006B              __CFG_BOREN$OFF 0000                       pclath 000A  
                     status 0003                       wtemp0 007E         __size_ofi1_I2C_Wait 000D  
           _temp_hold_array 00B7                ??_I2C1_Start 00A0        __size_of_EEPROM_init 0010  
      __size_of_EEPROM_read 0031             __initialization 0015                __end_of_main 0D4B  
                 ??_I2C1_Rd 00A0                   ??_I2C1_Wr 00A0                _switch_delay 0067  
                    ??_main 00B6           __end_ofi1_I2C1_Wr 0A71         EEPROM_write@address 0071  
                    _ADCON0 001F                      _ADCON1 009F          __end_of_I2C1_Start 0A1A  
                    _ADRESH 001E                      _ADRESL 009E            ___awdiv@dividend 0072  
                    i1l2200 0E08                      i1l3000 0F6E                      i1l3002 0F71  
                    i1l2300 0E63                      i1l2212 0E0C                      i1l3020 0C96  
                    i1l3012 0C79                      i1l3100 06EC                      i1l2310 0E78  
                    i1l2302 0E67                      i1l2230 0E12                      i1l2206 0E0A  
                    i1l3022 0C9C                      i1l3014 0C82                      i1l2150 0A3F  
                    i1l3006 0F7F                      i1l3110 0707                      i1l3102 06EE  
                    i1l2320 0E9B                      i1l2312 0E7B                      i1l2304 0E6C  
                    i1l2224 0E10                      i1l3024 0CA5                      i1l3016 0C8B  
                    i1l3040 09E3                      u200_20 0BA8                      i1l2400 0B61  
                    i1l3120 0724                      i1l3112 070F                      i1l3104 06F2  
                    u200_21 0BA7                      i1l2330 0EB4                      i1l2322 0EA1  
                    i1l2314 0E82                      i1l2306 0E70                      i1l2242 0E16  
                    i1l2218 0E0E                      i1l2170 0DFE                      i1l3018 0C94  
                    i1l3042 09E6                      i1l3034 09E9                      i1l2410 0B82  
                    i1l2402 0B63                      i1l3130 074F                      i1l3122 0729  
                    i1l3114 0714                      i1l3106 06F7                      i1l2332 0EB9  
                    i1l2324 0EA2                      i1l2316 0E86                      i1l2308 0E72  
                    i1l2340 0DA4                      i1l2236 0E14                      i1l2164 0DFC  
                    i1l2156 0DF9                      i1l3028 0CA9                      i1l2148 0A39  
                    i1l2420 0A0D                      i1l3036 0A81                      i1l2404 0B6A  
                    i1l3132 075F                      i1l3116 0719                      i1l3108 0701  
                    i1l2326 0EA9                      i1l2318 0E8A                      i1l2350 0DBA  
                    i1l2342 0DA9                      i1l2254 0E1A                      i1l2182 0E02  
                    i1l2158 0DFA                      i1l2262 0E1C                      i1l3310 0FF7  
                    i1l2414 09FF                      i1l2422 0A62                      i1l3038 0A8F  
                    i1l2406 0B6E                      i1l3134 0760                      i1l3302 073A  
                    i1l3118 071F                      i1l3126 0732                      i1l2328 0EAF  
                    i1l2360 0DD6                      i1l2352 0DBD                      i1l2344 0DAB  
                    i1l2336 0D9F                      i1l3312 0E24                      i1l2248 0E18  
                    i1l2176 0E00                      i1l2440 0FC4                      i1l2432 0FA0  
                    i1l2416 0A04                      i1l2424 0A67                      i1l2512 0ADB  
                    i1l2600 03E8                      i1l2408 0B7D                      i1l2520 0BB3  
                    i1l3304 076E                      i1l3128 0746                      i1l3314 0C38  
                    i1l2370 0DF3                      i1l2362 0DDC                      i1l2354 0DC4  
                    i1l2346 0DAF                      i1l2338 0DA0                      i1l2194 0E06  
                    i1l2450 0FE3                      i1l2442 0FC5                      i1l2434 0FB6  
                    i1l2418 0A08                      i1l2426 0A6B                      i1l3306 0F89  
                    i1l2610 040B                      i1l2602 03E9                      i1l2530 0783  
                    i1l2522 0BC6                      i1l2514 0BAF                      i1l3138 0766  
                    i1l2292 0E57                      i1l2364 0DE3                      i1l2356 0DC8  
                    i1l2348 0DB4                      i1l2188 0E04                      i1l2452 0FEC  
                    i1l2444 0FC8                      i1l2436 0FB7                      i1l2428 0F93  
                    i1l3308 0CB1                      i1l2700 0561                      i1l2620 0422  
                    i1l2604 03EB                      i1l2540 07AF                      i1l2532 0790  
                    i1l2380 0CC5                      i1l2524 0BCA                      i1l2294 0E58  
                    i1l2358 0DCC                      i1l2366 0DE9                      i1l2454 0FED  
                    i1l2446 0FDE                      i1l2438 0FBB                      i1l2702 0563  
                    i1l2630 044E                      i1l2622 0434                      i1l2606 03FB  
                    i1l2614 0414                      i1l2710 003D                      i1l2542 07B7  
                    i1l2390 0CEB                      i1l2382 0CCC                      i1l2374 0CBA  
                    i1l2526 0BD0                      i1l2464 0A2C                      i1l2296 0E5C  
                    i1l2368 0DEE                      i1l2448 0FDF                      i1l2480 0BA8  
                    i1l2632 0453                      i1l2640 0473                      i1l2624 043C  
                    i1l2616 0419                      i1l2608 0407                      i1l2800 02D3  
                    i1l2720 0052                      i1l2712 0043                      i1l2560 07DE  
                    u210_20 07DD                      i1l2552 07C5                      i1l2544 07B9  
                    i1l2536 0799                      i1l2392 0CEC                      i1l2384 0CD0  
                    i1l2376 0CBC                      u210_21 07DC                      i1l2466 0A2F  
                    i1l2298 0E61                      i1l2458 0FEF                      i1l2650 049E  
                    i1l2642 0485                      i1l2634 0465                      i1l2626 0444  
                    i1l2570 03A4                      i1l2810 02EB                      i1l2802 02DC  
                    i1l2730 006F                      i1l2722 005A                      i1l2714 0047  
                    i1l2562 07EE                      i1l2546 07BD                      i1l2554 07D7  
                    i1l2538 07AE                      i1l2394 0CF3                      i1l2386 0CD4  
                    i1l2378 0CC2                      i1l2468 0A33                      i1l2476 0B88  
                    i1l2660 04B6                      i1l2652 04A6                      i1l2644 0486  
                    i1l2636 0469                      i1l2628 044C                      i1l2580 03BB  
                    i1l2572 03A8                      i1l2820 031A                      i1l2812 02FF  
                    i1l2804 02E2                      i1l2740 0086                      i1l2732 0073  
                    i1l2724 005C                      i1l2716 0048                      i1l2708 0036  
                    i1l2564 07F3                      i1l2388 0CE5                      i1l2396 0CF9  
                    i1l2900 061D                      i1l2478 0BA3                      i1l2670 04CE  
                    i1l2662 04BF                      i1l2654 04A8                      i1l2646 0494  
                    i1l2638 046A                      i1l2590 03D1                      i1l2582 03BC  
                    i1l2574 03A9                      i1l2566 0397                      i1l2830 0355  
                    i1l2822 031E                      i1l2806 02E6                      i1l2742 0088  
                    i1l2734 0074                      i1l2726 0064                      i1l2718 004D  
                    i1l2902 0623                      i1l2680 04FD                      i1l2672 04E2  
                    i1l2656 04B1                      i1l2664 04C5                      i1l2648 0498  
                    i1l2592 03D5                      i1l2576 03AE                      i1l2584 03BE  
                    i1l2568 039E                      i1l2840 0382                      i1l2832 0364  
                    i1l2824 0337                      i1l2816 0307                      i1l2808 02E7  
                    i1l2760 00F9                      i1l2752 00A3                      i1l2744 0090  
                    i1l2736 0079                      i1l2728 0069                      u203_20 0BD0  
                    i1l2904 0624                      i1l2920 0D63                      u203_21 0BCF  
                    i1l2690 053B                      i1l2682 0501                      i1l2666 04C9  
                    i1l2658 04B5                      i1l2594 03D6                      i1l2586 03C6  
                    i1l2578 03B3                      i1l2842 0383                      i1l2834 036E  
                    i1l2818 030C                      i1l2826 033D                      i1l2770 0176  
                    i1l2762 0125                      i1l2754 00B3                      i1l2746 0095  
                    i1l2738 007E                      i1l2850 0638                      i1l2906 062E  
                    i1l2930 0D86                      i1l2922 0D67                      i1l2940 0C11  
                    i1l2692 054A                      i1l2684 051A                      i1l2676 04EA  
                    i1l2668 04CA                      i1l2596 03DB                      i1l2588 03CB  
                    i1l2844 038E                      i1l2836 0370                      i1l2828 034A  
                    i1l2780 01F6                      i1l2772 0193                      i1l2764 0141  
                    i1l2756 00C0                      i1l2748 009A                      i1l2860 0665  
                    i1l2852 063C                      i1l2932 0D89                      i1l2924 0D69  
                    i1l2916 0D4C                      u211_25 07E0                      i1l2950 0C29  
                    i1l2942 0C17                      i1l2694 054E                      i1l2678 04EF  
                    i1l2686 0520                      i1l2598 03E0                      i1l2838 037E  
                    i1l2790 02AE                      i1l2782 0223                      i1l2774 01A3  
                    i1l2766 015D                      i1l2758 00DD                      i1l2870 0690  
                    i1l2862 066A                      i1l2854 064C                      i1l2934 0D91  
                    i1l2926 0D7F                      i1l2918 0D60                      i1l2944 0C20  
                    u300_20 0AB2                      i1l2960 0AA6                      i1l2696 0556  
                    i1l2688 052D                      u220_20 03FB                      i1l2792 02B7  
                    i1l2784 0233                      i1l2776 01C0                      i1l2768 0166  
                    u212_20 07EE                      u204_20 0790                      i1l2880 06C3  
                    i1l2872 06A0                      i1l2864 0677                      i1l2856 065C  
                    i1l2848 0633                      i1l2936 0D99                      i1l2928 0D82  
                    u300_21 0AB1                      u220_21 03FA                      u212_21 07ED  
                    u204_21 078F                      i1l2946 0C24                      i1l2954 0C2E  
                    i1l2938 0C10                      i1l2970 0F26                      i1l2962 0AB2  
                    i1l2698 055D                      i1l2794 02C5                      i1l2786 0260  
                    i1l2778 01D9                      i1l2882 06D9                      i1l2874 06AB  
                    i1l2866 067E                      i1l2980 0F46                      i1l2972 0F27  
                    i1l2964 0AB6                      i1l2796 02CE                      i1l2788 0286  
                    i1l2884 06DE                      i1l2876 06AF                      i1l2868 0682  
                    i1l2892 0574                      i1l2990 0F5A                      i1l2982 0F4C  
                    i1l2974 0F2C                      i1l2966 0ABC                      i1l2798 02D2  
                    i1l2886 06E2                      i1l2878 06B9                      i1l2894 0580  
                    i1l2992 0F60                      i1l2984 0F50                      i1l2976 0F38  
                    i1l2968 0ABD                      u301_20 0AB6                      u221_20 0419  
                    u213_20 07F3                      u205_20 07A7                      i1l2888 06E3  
                    i1l2896 0618                      u301_21 0AB5                      u221_21 0418  
                    u213_21 07F2                      i1l2994 0F62                      i1l2986 0F52  
                    i1l2978 0F41                      i1l2898 061C                      i1l2996 0F64  
                    i1l2988 0F55                      u205_25 07A2                      i1l2998 0F67  
                    u310_20 0C8B                      u302_20 0ABC                      u222_20 0453  
                    u214_20 03A8                      u206_20 07BD                      u310_21 0C8A  
                    u302_21 0ABB                      u222_21 0452                      u214_21 03A7  
                    u206_21 07BC                      u230_25 04AA                      u311_20 0CA5  
                    u303_20 0F2C                      u231_20 04B5                      u215_20 03AE  
                    u207_20 07C4                      u311_21 0CA4                      u303_21 0F2B  
                    u231_21 04B4                      u215_21 03AD                      u207_21 07C3  
                    u223_25 0455                      u304_20 0F31                      u240_20 052D  
                    u216_20 03B3                      u312_20 06F2                      u304_21 0F30  
                    u240_21 052C                      u216_21 03B2                      u312_21 06F1  
                    u240_25 0529                      u232_25 04B8                      u224_25 045E  
                    u208_25 07C6                      u305_20 0F41                      u241_20 054A  
                    u233_20 04C9                      u225_20 0469                      u217_20 03D5  
                    u209_20 07D6                      u313_20 0746                      _INTCON 000B  
                    u305_21 0F40                      u241_21 0549                      u233_21 04C8  
                    u225_21 0468                      u217_21 03D4                      u209_21 07D5  
                    u313_21 0745                      u241_25 0546                      u170_20 0E67  
                    u306_20 0F46                      u242_20 0561                      u234_20 04CE  
                    u218_20 03DB                      u250_20 009A                      u170_21 0E66  
                    u306_21 0F45                      u242_21 0560                      u234_21 04CD  
                    u218_21 03DA                      u250_21 0099                      u226_25 046C  
                    u171_20 0E78                      u307_20 0F4C                      u235_20 04E2  
                    u227_20 0485                      u219_20 03E0                      u243_20 0047  
                    u171_21 0E77                      u307_21 0F4B                      u235_21 04E1  
                    u227_21 0484                      u219_21 03DF                      u251_21 00EB  
                    u243_21 0046                      u251_22 00F2                      u251_23 00F9  
                    u227_25 0481                      u180_20 0DAF                      u308_20 0F5A  
                    u236_20 04E9                      u228_20 049E                      u244_20 004D  
                    u180_21 0DAE                      u308_21 0F59                      u236_21 04E8  
                    u228_21 049D                      u260_21 0215                      u252_21 0107  
                    u244_21 004C                      u260_22 021C                      u252_22 010E  
                    u260_23 0223                      u252_23 0115                      u172_25 0E7C  
                    u173_20 0E8A                      u181_20 0DBA                      u309_20 0F60  
                    u237_20 04EF                      u229_20 04A6                      u245_20 0052  
                    u173_21 0E89                      u181_21 0DB9                      u309_21 0F5F  
                    u237_21 04EE                      u229_21 04A5                      u261_21 0242  
                    u253_21 0133                      u245_21 0051                      u261_22 0249  
                    u253_22 013A                      u261_23 0250                      u253_23 0141  
                    u158_20 0A3F                      u238_20 0501                      u270_20 02E6  
                    u262_20 026C                      u246_20 0073                      u190_20 0CD4  
                    u158_21 0A3E                      u238_21 0500                      u270_21 02E5  
                    u254_21 014F                      u246_21 0072                      u190_21 0CD3  
                    u254_22 0156                      u254_23 015D                      u174_25 0E8B  
                    u182_25 0DBE                      u262_25 0267                      u175_20 0E9B  
                    u183_20 0DCC                      u159_20 0A45                      u239_20 0510  
                    u271_20 02EB                      u247_20 0079                      u175_21 0E9A  
                    u183_21 0DCB                      u159_21 0A44                      u271_21 02EA  
                    u263_21 0278                      u247_21 0078                      u263_22 027F  
                    u263_23 0286                      u175_25 0E97                      u239_25 050B  
                    u255_25 015F                      u191_25 0CD5                      u184_20 0DD6  
                    u272_20 02FF                      u264_20 0294                      u248_20 007E  
                    u280_20 0638                      u192_20 0CE5                      u184_21 0DD5  
                    u272_21 02FE                      u256_21 0185                      u248_21 007D  
                    u280_21 0637                      u192_21 0CE4                      u256_22 018C  
                    u256_23 0193                      u176_25 0EA3                      u184_25 0DD2  
                    u264_25 028F                      u192_25 0CE1                      u177_20 0EAF  
                    u169_20 0E5C                      u273_20 0306                      u249_20 0095  
                    u281_20 063C                      u177_21 0EAE                      u169_21 0E5B  
                    u273_21 0305                      u265_21 02A0                      u257_21 01B2  
                    u249_21 0094                      u281_21 063B                      u265_22 02A7  
                    u257_22 01B9                      u265_23 02AE                      u257_23 01C0  
                    u185_25 0DDD                      u193_25 0CED                      u178_20 0EB4  
                    u186_20 0DE9                      u274_20 030C                      u290_20 06B9  
                    u282_20 065C                      u194_20 0CF9                      u178_21 0EB3  
                    u186_21 0DE8                      u274_21 030B                      u290_21 06B8  
                    u282_21 065B                      u194_21 0CF8                      u266_25 02B0  
                    u258_25 01C2                      u187_20 0DEE                      u179_20 0DA4  
                    u195_20 0B6E                      u275_20 031E                      u291_20 06CE  
                    u187_21 0DED                      u179_21 0DA3                      u195_21 0B6D  
                    u275_21 031D                      u259_21 01E8                      u259_22 01EF  
                    u259_23 01F6                      u267_25 02C7                      u291_25 06C9  
                    u283_25 066F                      u276_20 032D                      u268_20 02D2  
                    u292_20 06DE                      u284_20 067D                      u188_20 0CC2  
                    u268_21 02D1                      u292_21 06DD                      u284_21 067C  
                    u188_21 0CC1                      u196_25 0B75                      u276_25 0328  
                    u197_20 0B82                      u277_20 034A                      u293_20 06E2  
                    u197_21 0B81                      u277_21 0349                      u293_21 06E1  
                    u277_25 0346                      u269_25 02D5                      u285_25 0691  
                    u189_25 0CC6                      u198_20 0F9F                      u278_20 0364  
                    u286_20 069F                      u294_20 0580                      u198_21 0F9E  
                    u278_21 0363                      u286_21 069E                      u294_21 057F  
                    u278_25 0360                      u279_20 0382                      u295_20 0623  
                    u279_21 0381                      u295_21 0622                      u199_25 0B99  
                    u287_25 06A4                      u288_20 06AF                      u296_20 0D60  
                    u288_21 06AE                      u296_21 0D5F                      u296_25 0D5C  
                    u289_20 06B5                      u297_20 0D7F                      u289_21 06B4  
                    u297_21 0D7E                      u297_25 0D7B                      u298_20 0D91  
                    u298_21 0D90                      u299_20 0C20                      u299_21 0C1F  
                    _SSPADD 0093                      _SSPCON 0014                      _SSPBUF 0013  
          __end_of___xxtofl 06EC              __CFG_PWRTE$OFF 0000                   ??___fldiv 002E  
                 ??___awdiv 0074                   ??___awmod 0074                   ??___flmul 002E  
                 ??___fltol 0044                   ??___lldiv 00A8                   ??___lwdiv 0074  
              ?_timer2_init 0070             ADC_Read@channel 0074   __size_of_temp_sensor_init 0009  
 __size_of_temp_sensor_read 00BC            ___awdiv@quotient 0077             ___awmod@divisor 0070  
           ___awmod@counter 0075                   ??_average 0078        __size_ofi1_I2C1_Stop 0009  
                 ?_I2C_Wait 0070          __size_of__Umul8_16 0027            __end_of_temp_set 0D9F  
                 ?_ADC_Init 0070                   ?_ADC_Read 0070                      saved_w 007E  
          _temp_control_off 0A81            __end_of_ssd_init 0B17                ___xxtofl@arg 0022  
           __CFG_FOSC$EXTRC 0000                ___xxtofl@exp 0021                ___xxtofl@val 0075  
   __end_of__initialization 0032                  ___fltol@f1 0040        __end_ofi1_I2C1_Start 0A08  
            __pcstackCOMMON 0070       __size_of_EEPROM_write 001D                __pidataBANK0 09E1  
              ??i1_I2C_Wait 0070                ?_start_timer 0070                  ??_I2C_Wait 00A0  
                ??_ADC_Init 00A0                  ??_ADC_Read 0072          __size_of_display7s 005F  
                __pbssBANK0 0056                  __pbssBANK1 00B7             ssd_blink@e_temp 007D  
              _EEPROM_write 0ADB          __end_ofi1_I2C_Wait 0A46           __end_of__Umul8_16 0B87  
                __pmaintext 0CFE                ?_switch_init 0070                ?_switch_scan 0070  
                   _I2C1_Rd 0A53                     _I2C1_Wr 0A92                  __pintentry 0004  
                 ?___xxtofl 0075          __size_of_ssd_blink 0042                   _I2C1_Init 0C44  
                 _I2C1_Stop 0A1A          __size_of_sw_action 006C                     _SSPCON2 0091  
                   _SSPSTAT 0094                   ?_temp_set 0070           __end_of_display7s 0E57  
                 ?_ssd_init 0070                     ___fldiv 0397                     ___awdiv 0E57  
                   ___awmod 0D9F                     ___flmul 0036                     ___fltol 0783  
                   ___lldiv 0EBE                     ___lwdiv 0CBA            _temp_sensor_init 0A23  
          _temp_sensor_read 0574                     __ptext1 0B17                     __ptext2 0A23  
                   __ptext3 0ABF                     __ptext4 0B3B                     __ptext5 09F0  
                   __ptext6 0AF8                     __ptext7 0BDF                     __ptext8 0A92  
                   __ptext9 0A1A        __size_of_timer2_init 0024                     _average 0BAF  
                   _down_sw 006A                __size_of_led 0034                __size_of_isr 0097  
                ??___xxtofl 0079            ___awmod@dividend 0072                  ?_I2C1_Init 00AE  
                ?_I2C1_Stop 0070                   i1_I2C1_Wr 0A61                     clrloop0 09F8  
      end_of_initialization 0032       __size_ofi1_I2C1_Start 0009               ??_EEPROM_init 00B6  
             ??_EEPROM_read 00A3             ___lldiv@divisor 00A0           _temp_control_init 0B3B  
           ___lldiv@counter 00AD           __end_of_ssd_blink 0CBA    __end_of_temp_control_off 0A92  
                ??_temp_set 0070           __end_of_sw_action 0F92          ?_temp_control_init 0070  
                ??_ssd_init 00A0                  _temp_timer 0069              ssd_update@temp 007C  
       ??_temp_control_init 00A0                  _ssd_select 0060               ___xxtofl@sign 0020  
                _power_mode 0063                  _ssd_update 0F92                i1_I2C1_Start 09FF  
      __size_of_start_timer 0006                 ___fldiv@grs 003A                 ___fldiv@rem 0033  
                ?i1_I2C1_Wr 0070           __size_of_I2C_Wait 000D           __size_of_ADC_Init 001C  
         __size_of_ADC_Read 0028                  average@sum 007B                 ___flmul@grs 0034  
 __end_of_temp_control_init 0B60                  display7s@v 0072               EEPROM_read@_x 00A4  
                _stop_timer 09E9               ?_ssd_turn_off 0070         __end_of_EEPROM_init 0A81  
       __end_of_EEPROM_read 0C10               ??i1_I2C1_Stop 0070        __size_of_switch_init 0007  
      __size_of_switch_scan 0019         start_initialization 0015                 ??_I2C1_Init 00B2  
               ??_I2C1_Stop 00A0                 __end_of_led 0C44                 __end_of_isr 0783  
            ??_ssd_turn_off 0070                    ?_I2C1_Rd 0070                    ?_I2C1_Wr 0070  
                 __Umul8_16 0B60                 __pdataBANK0 006A                   ___fldiv@a 0026  
                 ___fldiv@b 002A                   ___flmul@a 002A                   ___flmul@b 0026  
                 ___latbits 0002                 ?_ssd_update 0070               __pcstackBANK0 0020  
             __pcstackBANK1 00A0         __end_ofi1_I2C1_Stop 0A11                 ??i1_I2C1_Wr 0070  
         __size_of___xxtofl 00BC    __end_of_temp_sensor_init 0A2C    __end_of_temp_sensor_read 0630  
__size_of_temp_control_init 0025                 _EEPROM_init 0A71                 _EEPROM_read 0BDF  
          ___lwdiv@dividend 0072                 ?_stop_timer 0070                    ?___fldiv 0026  
                  ?___awdiv 0070                    ?___awmod 0070                    ?___flmul 0026  
                  ?___fltol 0040                    ?___lldiv 00A0                  ?__Umul8_16 0070  
                  ?___lwdiv 0070           __size_of_temp_set 0054           __size_of_ssd_init 001F  
                 _display7s 0DF8                    ?_average 0070                   _led_timer 0056  
                  _I2C_Wait 0A46                    _ADC_Init 0ABF                    _ADC_Read 0B87  
                 _hold_temp 0065            ___lwdiv@quotient 0075           interrupt_function 0004  
                 clear_ram0 09F7                  _I2C1_Start 0A11           ?_temp_control_off 0070  
       __size_of_ssd_update 006E               ??_timer2_init 00A0          ??_temp_control_off 0070  
                 _ssd_delay 0068                   _ssd_blink 0C78            __size_of_I2C1_Rd 000E  
          __size_of_I2C1_Wr 0014                   _ssd_timer 0058                   _sw_action 0F26  
               i1_I2C1_Stop 0A08                  ?_display7s 0070        __end_of_ssd_turn_off 0A39  
       __size_of_stop_timer 0007                 ??__Umul8_16 0072                  ?_ssd_blink 0070  
          __size_of___fldiv 01DD            __size_of___awdiv 0067            __size_of___awmod 0059  
          __size_of___flmul 0361            __size_of___fltol 007C            __size_of___lldiv 0068  
          __size_of___lwdiv 0044                  ?_sw_action 0070               ??_start_timer 0070  
          __size_of_average 0030         __end_of_timer2_init 0B3B                    ___xxtofl 0630  
           ___lwdiv@divisor 0070             ___lwdiv@counter 0077                    __ptext10 0A11  
                  __ptext11 0A46                    __ptext20 0CBA                    __ptext12 0A53  
                  __ptext21 0630                    __ptext13 0A71                    __ptext30 0ADB  
                  __ptext22 0783                    __ptext14 0C44                    __ptext31 0A61  
                  __ptext23 0036                    __ptext15 0EBE                    __ptext40 0D9F  
                  __ptext32 0A08                    __ptext24 0B60                    __ptext16 06EC  
                  __ptext41 0E57                    __ptext33 09FF                    __ptext25 0397  
                  __ptext17 0D4B                    __ptext42 0A2C                    __ptext34 0A39  
                  __ptext26 0B87                    __ptext18 0574                    __ptext43 0C10  
                  __ptext35 09E9                    __ptext27 0A81                    __ptext19 0BAF  
                  __ptext36 09E3                    __ptext28 0AA6                    __ptext37 0C78  
                  __ptext29 0F26                    __ptext38 0F92                    __ptext39 0DF8  
             ?_EEPROM_write 0071               __size_of_main 004D                 ?_I2C1_Start 0070  
                  _set_temp 0066                    _temp_set 0D4B               ??_switch_init 00A0  
             ??_switch_scan 0070                    _ssd_init 0AF8                    average@i 007D  
               ??_display7s 0070                  i1_I2C_Wait 0A39                ??_ssd_update 0079  
       __end_of_start_timer 09E9                    intlevel1 0000              ??_EEPROM_write 0074  
         ?_temp_sensor_init 0070           ?_temp_sensor_read 0070            ___lldiv@dividend 00A4  
              ?_EEPROM_init 0070                ?_EEPROM_read 00A1          ??_temp_sensor_init 00A1  
        ??_temp_sensor_read 004B                temp_set@temp 0073               I2C1_Init@freq 00AE  
              ??_stop_timer 0070          __end_of_ssd_update 1000                 ??_ssd_blink 0020  
               _timer2_init 0B17                 ??_sw_action 0074      __Umul8_16@multiplicand 0070  
       __end_of_switch_init 09F7         __end_of_switch_scan 0ABF       __size_of_ssd_turn_off 000D  
          ___lldiv@quotient 00A9         __size_of_I2C1_Start 0009          __end_of_stop_timer 09F0  
              I2C1_Wr@_data 00A0          __size_of_I2C1_Init 0034          __size_of_I2C1_Stop 0009  
      __Umul8_16@multiplier 0078           __Umul8_16@product 0074  
